---
triple:          'arm64-apple-darwin'
binary-path:     '/Users/folaosibo/Documents/AIICOInternshipProjects/MatchingAlgorithmCondensed/main'
relocations:
  - { offsetInCU: 0x53, offset: 0x53, size: 0x8, addend: 0x0, symName: __ZL12MATCHED_TEXT, symObjAddr: 0x25C390, symBinAddr: 0x100068000, symSize: 0x0 }
  - { offsetInCU: 0x2C0E, offset: 0x2C0E, size: 0x8, addend: 0x0, symName: __ZNSt3__119piecewise_constructE, symObjAddr: 0x5EBCE, symBinAddr: 0x10005F8F6, symSize: 0x0 }
  - { offsetInCU: 0x1A271, offset: 0x1A271, size: 0x8, addend: 0x0, symName: __ZNSt3__17advanceB8ue170006IPN8nlohmann16json_abi_v3_11_310basic_jsonINS_3mapENS_6vectorENS_12basic_stringIcNS_11char_traitsIcEENS_9allocatorIcEEEEbxydS9_NS2_14adl_serializerENS5_IhNS9_IhEEEEvEEllvEEvRT_T0_, symObjAddr: 0x26890, symBinAddr: 0x100027680, symSize: 0x38 }
  - { offsetInCU: 0x1A4F1, offset: 0x1A4F1, size: 0x8, addend: 0x0, symName: __ZNSt3__17advanceB8ue170006INS_16reverse_iteratorIPN8nlohmann16json_abi_v3_11_310basic_jsonINS_3mapENS_6vectorENS_12basic_stringIcNS_11char_traitsIcEENS_9allocatorIcEEEEbxydSA_NS3_14adl_serializerENS6_IhNSA_IhEEEEvEEEEllvEEvRT_T0_, symObjAddr: 0x26CCC, symBinAddr: 0x100027ABC, symSize: 0x38 }
  - { offsetInCU: 0x1A659, offset: 0x1A659, size: 0x8, addend: 0x0, symName: __ZNSt3__17advanceB8ue170006INS_15__list_iteratorINS_4listI11TransactionNS_9allocatorIS3_EEEEPvEEllvEEvRT_T0_, symObjAddr: 0x2CB98, symBinAddr: 0x10002D988, symSize: 0x38 }
  - { offsetInCU: 0x1A71E, offset: 0x1A71E, size: 0x8, addend: 0x0, symName: __ZNSt3__124__put_character_sequenceB8ue170006IcNS_11char_traitsIcEEEERNS_13basic_ostreamIT_T0_EES7_PKS4_m, symObjAddr: 0x2D070, symBinAddr: 0x10002DE60, symSize: 0x1EC }
  - { offsetInCU: 0x2002F, offset: 0x2002F, size: 0x8, addend: 0x0, symName: __ZNSt3__17advanceB8ue170006INS_14__map_iteratorINS_15__tree_iteratorINS_12__value_typeINS_12basic_stringIcNS_11char_traitsIcEENS_9allocatorIcEEEEN8nlohmann16json_abi_v3_11_310basic_jsonINS_3mapENS_6vectorES9_bxydS7_NSB_14adl_serializerENSE_IhNS7_IhEEEEvEEEEPNS_11__tree_nodeISJ_PvEElEEEEiivEEvRT_T0_, symObjAddr: 0x4BDE8, symBinAddr: 0x10004CBD8, symSize: 0x40 }
  - { offsetInCU: 0x200B6, offset: 0x200B6, size: 0x8, addend: 0x0, symName: __ZNSt3__17advanceB8ue170006INS_11__wrap_iterIPN8nlohmann16json_abi_v3_11_310basic_jsonINS_3mapENS_6vectorENS_12basic_stringIcNS_11char_traitsIcEENS_9allocatorIcEEEEbxydSA_NS3_14adl_serializerENS6_IhNSA_IhEEEEvEEEEiivEEvRT_T0_, symObjAddr: 0x4BE28, symBinAddr: 0x10004CC18, symSize: 0x40 }
  - { offsetInCU: 0x2013D, offset: 0x2013D, size: 0x8, addend: 0x0, symName: __ZNSt3__17advanceB8ue170006INS_21__tree_const_iteratorINS_12__value_typeINS_12basic_stringIcNS_11char_traitsIcEENS_9allocatorIcEEEEN8nlohmann16json_abi_v3_11_310basic_jsonINS_3mapENS_6vectorES8_bxydS6_NSA_14adl_serializerENSD_IhNS6_IhEEEEvEEEEPNS_11__tree_nodeISI_PvEElEEllvEEvRT_T0_, symObjAddr: 0x4F77C, symBinAddr: 0x10005056C, symSize: 0x38 }
  - { offsetInCU: 0x20661, offset: 0x20661, size: 0x8, addend: 0x0, symName: __ZNSt3__17advanceB8ue170006INS_20__map_const_iteratorINS_21__tree_const_iteratorINS_12__value_typeINS_12basic_stringIcNS_11char_traitsIcEENS_9allocatorIcEEEEN8nlohmann16json_abi_v3_11_310basic_jsonINS_3mapENS_6vectorES9_bxydS7_NSB_14adl_serializerENSE_IhNS7_IhEEEEvEEEEPNS_11__tree_nodeISJ_PvEElEEEEllvEEvRT_T0_, symObjAddr: 0x56178, symBinAddr: 0x100056F68, symSize: 0x38 }
  - { offsetInCU: 0x219E0, offset: 0x219E0, size: 0x8, addend: 0x0, symName: __ZNSt3__15beginB8ue170006INS_4listI11TransactionNS_9allocatorIS2_EEEEEEDTcldtfp_5beginEERT_, symObjAddr: 0xAF4, symBinAddr: 0x1000018E4, symSize: 0x2C }
  - { offsetInCU: 0x21A14, offset: 0x21A14, size: 0x8, addend: 0x0, symName: __ZNSt3__1neB8ue170006ERKNS_15__list_iteratorI11TransactionPvEES5_, symObjAddr: 0xB20, symBinAddr: 0x100001910, symSize: 0x34 }
  - { offsetInCU: 0x21A52, offset: 0x21A52, size: 0x8, addend: 0x0, symName: __ZNSt3__13endB8ue170006INS_4listI11TransactionNS_9allocatorIS2_EEEEEEDTcldtfp_3endEERT_, symObjAddr: 0xB54, symBinAddr: 0x100001944, symSize: 0x2C }
  - { offsetInCU: 0x21A87, offset: 0x21A87, size: 0x8, addend: 0x0, symName: __ZNSt3__15beginB8ue170006INS_4listINS1_I11TransactionNS_9allocatorIS2_EEEENS3_IS5_EEEEEEDTcldtfp_5beginEERT_, symObjAddr: 0x101C, symBinAddr: 0x100001E0C, symSize: 0x2C }
  - { offsetInCU: 0x21ABB, offset: 0x21ABB, size: 0x8, addend: 0x0, symName: __ZNSt3__1neB8ue170006ERKNS_15__list_iteratorINS_4listI11TransactionNS_9allocatorIS2_EEEEPvEES9_, symObjAddr: 0x1048, symBinAddr: 0x100001E38, symSize: 0x34 }
  - { offsetInCU: 0x21AF9, offset: 0x21AF9, size: 0x8, addend: 0x0, symName: __ZNSt3__13endB8ue170006INS_4listINS1_I11TransactionNS_9allocatorIS2_EEEENS3_IS5_EEEEEEDTcldtfp_3endEERT_, symObjAddr: 0x107C, symBinAddr: 0x100001E6C, symSize: 0x2C }
  - { offsetInCU: 0x21B2E, offset: 0x21B2E, size: 0x8, addend: 0x0, symName: __ZNSt3__19transformB8ue170006INS_11__wrap_iterIPcEES3_PFiiEEET0_T_S7_S6_T1_, symObjAddr: 0x40C4, symBinAddr: 0x100004EB4, symSize: 0x98 }
  - { offsetInCU: 0x228C6, offset: 0x228C6, size: 0x8, addend: 0x0, symName: __ZNSt3__15beginB8ue170006INS_4listINS_12basic_stringIcNS_11char_traitsIcEENS_9allocatorIcEEEENS5_IS7_EEEEEEDTcldtfp_5beginEERT_, symObjAddr: 0x4558, symBinAddr: 0x100005348, symSize: 0x2C }
  - { offsetInCU: 0x228FA, offset: 0x228FA, size: 0x8, addend: 0x0, symName: __ZNSt3__1neB8ue170006ERKNS_15__list_iteratorINS_12basic_stringIcNS_11char_traitsIcEENS_9allocatorIcEEEEPvEESA_, symObjAddr: 0x4584, symBinAddr: 0x100005374, symSize: 0x34 }
  - { offsetInCU: 0x22938, offset: 0x22938, size: 0x8, addend: 0x0, symName: __ZNSt3__13endB8ue170006INS_4listINS_12basic_stringIcNS_11char_traitsIcEENS_9allocatorIcEEEENS5_IS7_EEEEEEDTcldtfp_3endEERT_, symObjAddr: 0x45B8, symBinAddr: 0x1000053A8, symSize: 0x2C }
  - { offsetInCU: 0x2296C, offset: 0x2296C, size: 0x8, addend: 0x0, symName: __ZNSt3__1lsB8ue170006INS_11char_traitsIcEEEERNS_13basic_ostreamIcT_EES6_PKc, symObjAddr: 0x49A8, symBinAddr: 0x100005798, symSize: 0x48 }
  - { offsetInCU: 0x229B2, offset: 0x229B2, size: 0x8, addend: 0x0, symName: __ZNSt3__14endsB8ue170006IcNS_11char_traitsIcEEEERNS_13basic_ostreamIT_T0_EES7_, symObjAddr: 0x4A1C, symBinAddr: 0x10000580C, symSize: 0x2C }
  - { offsetInCU: 0x229F3, offset: 0x229F3, size: 0x8, addend: 0x0, symName: __ZNSt3__1eqB8ue170006ERKNS_15__list_iteratorI11TransactionPvEES5_, symObjAddr: 0x4A48, symBinAddr: 0x100005838, symSize: 0x30 }
  - { offsetInCU: 0x22A2F, offset: 0x22A2F, size: 0x8, addend: 0x0, symName: __ZNSt3__14endlB8ue170006IcNS_11char_traitsIcEEEERNS_13basic_ostreamIT_T0_EES7_, symObjAddr: 0x4C64, symBinAddr: 0x100005A54, symSize: 0x58 }
  - { offsetInCU: 0x22A70, offset: 0x22A70, size: 0x8, addend: 0x0, symName: __ZNSt3__1eqB8ue170006ERKNS_15__list_iteratorINS_4listI11TransactionNS_9allocatorIS2_EEEEPvEES9_, symObjAddr: 0x4CBC, symBinAddr: 0x100005AAC, symSize: 0x30 }
  - { offsetInCU: 0x22AAD, offset: 0x22AAD, size: 0x8, addend: 0x0, symName: __ZNSt3__1neB8ue170006IPcEEbRKNS_11__wrap_iterIT_EES6_, symObjAddr: 0x4E30, symBinAddr: 0x100005C20, symSize: 0x34 }
  - { offsetInCU: 0x2336B, offset: 0x2336B, size: 0x8, addend: 0x0, symName: __ZNSt3__14nextB8ue170006INS_15__list_iteratorINS_4listI11TransactionNS_9allocatorIS3_EEEEPvEEEENS_9enable_ifIXsr29__has_input_iterator_categoryIT_EE5valueESA_E4typeESA_NS_15iterator_traitsISA_E15difference_typeE, symObjAddr: 0xBFEC, symBinAddr: 0x10000CDDC, symSize: 0x3C }
  - { offsetInCU: 0x23550, offset: 0x23550, size: 0x8, addend: 0x0, symName: __ZNSt3__1lsB8ue170006IcNS_11char_traitsIcEENS_9allocatorIcEEEERNS_13basic_ostreamIT_T0_EES9_RKNS_12basic_stringIS6_S7_T1_EE, symObjAddr: 0xC47C, symBinAddr: 0x10000D26C, symSize: 0x4C }
  - { offsetInCU: 0x235B4, offset: 0x235B4, size: 0x8, addend: 0x0, symName: __ZNSt3__118__constexpr_strlenB8ue170006EPKc, symObjAddr: 0x229B4, symBinAddr: 0x1000237A4, symSize: 0x24 }
  - { offsetInCU: 0x23612, offset: 0x23612, size: 0x8, addend: 0x0, symName: __ZNSt3__110destroy_atB8ue170006I11TransactionLi0EEEvPT_, symObjAddr: 0x22ECC, symBinAddr: 0x100023CBC, symSize: 0x24 }
  - { offsetInCU: 0x23649, offset: 0x23649, size: 0x8, addend: 0x0, symName: __ZNSt3__112__destroy_atB8ue170006I11TransactionLi0EEEvPT_, symObjAddr: 0x22EF0, symBinAddr: 0x100023CE0, symSize: 0x24 }
  - { offsetInCU: 0x23681, offset: 0x23681, size: 0x8, addend: 0x0, symName: __ZNSt3__119__libcpp_deallocateB8ue170006EPvmm, symObjAddr: 0x22F58, symBinAddr: 0x100023D48, symSize: 0x60 }
  - { offsetInCU: 0x236E8, offset: 0x236E8, size: 0x8, addend: 0x0, symName: __ZNSt3__124__is_overaligned_for_newB8ue170006Em, symObjAddr: 0x22FB8, symBinAddr: 0x100023DA8, symSize: 0x20 }
  - { offsetInCU: 0x23716, offset: 0x23716, size: 0x8, addend: 0x0, symName: __ZNSt3__127__do_deallocate_handle_sizeB8ue170006IJSt11align_val_tEEEvPvmDpT_, symObjAddr: 0x22FD8, symBinAddr: 0x100023DC8, symSize: 0x30 }
  - { offsetInCU: 0x2376A, offset: 0x2376A, size: 0x8, addend: 0x0, symName: __ZNSt3__127__do_deallocate_handle_sizeB8ue170006IJEEEvPvmDpT_, symObjAddr: 0x23008, symBinAddr: 0x100023DF8, symSize: 0x28 }
  - { offsetInCU: 0x237A9, offset: 0x237A9, size: 0x8, addend: 0x0, symName: __ZNSt3__124__libcpp_operator_deleteB8ue170006IJPvSt11align_val_tEEEvDpT_, symObjAddr: 0x23030, symBinAddr: 0x100023E20, symSize: 0x2C }
  - { offsetInCU: 0x237F3, offset: 0x237F3, size: 0x8, addend: 0x0, symName: __ZNSt3__124__libcpp_operator_deleteB8ue170006IJPvEEEvDpT_, symObjAddr: 0x2305C, symBinAddr: 0x100023E4C, symSize: 0x24 }
  - { offsetInCU: 0x2385B, offset: 0x2385B, size: 0x8, addend: 0x0, symName: __ZNSt3__110destroy_atB8ue170006INS_4listI11TransactionNS_9allocatorIS2_EEEELi0EEEvPT_, symObjAddr: 0x234E4, symBinAddr: 0x1000242D4, symSize: 0x24 }
  - { offsetInCU: 0x23892, offset: 0x23892, size: 0x8, addend: 0x0, symName: __ZNSt3__112__destroy_atB8ue170006INS_4listI11TransactionNS_9allocatorIS2_EEEELi0EEEvPT_, symObjAddr: 0x23508, symBinAddr: 0x1000242F8, symSize: 0x24 }
  - { offsetInCU: 0x238FD, offset: 0x238FD, size: 0x8, addend: 0x0, symName: __ZNSt3__13minB8ue170006ImEERKT_S3_S3_, symObjAddr: 0x23BD8, symBinAddr: 0x1000249C8, symSize: 0x2C }
  - { offsetInCU: 0x23940, offset: 0x23940, size: 0x8, addend: 0x0, symName: __ZNSt3__112__to_addressB8ue170006IKcEEPT_S3_, symObjAddr: 0x23C04, symBinAddr: 0x1000249F4, symSize: 0x14 }
  - { offsetInCU: 0x239A9, offset: 0x239A9, size: 0x8, addend: 0x0, symName: __ZNSt3__13minB8ue170006ImNS_6__lessIvvEEEERKT_S5_S5_T0_, symObjAddr: 0x23CD0, symBinAddr: 0x100024AC0, symSize: 0x54 }
  - { offsetInCU: 0x23A47, offset: 0x23A47, size: 0x8, addend: 0x0, symName: __ZNSt3__110destroy_atB8ue170006INS_12basic_stringIcNS_11char_traitsIcEENS_9allocatorIcEEEELi0EEEvPT_, symObjAddr: 0x240E0, symBinAddr: 0x100024ED0, symSize: 0x24 }
  - { offsetInCU: 0x23A7E, offset: 0x23A7E, size: 0x8, addend: 0x0, symName: __ZNSt3__112__destroy_atB8ue170006INS_12basic_stringIcNS_11char_traitsIcEENS_9allocatorIcEEEELi0EEEvPT_, symObjAddr: 0x24104, symBinAddr: 0x100024EF4, symSize: 0x24 }
  - { offsetInCU: 0x23AB6, offset: 0x23AB6, size: 0x8, addend: 0x0, symName: __ZNSt3__1eqB8ue170006IPcEEbRKNS_11__wrap_iterIT_EES6_, symObjAddr: 0x2416C, symBinAddr: 0x100024F5C, symSize: 0x48 }
  - { offsetInCU: 0x23AF9, offset: 0x23AF9, size: 0x8, addend: 0x0, symName: __ZNSt3__14moveB8ue170006INS_11__wrap_iterIPN8nlohmann16json_abi_v3_11_310basic_jsonINS_3mapENS_6vectorENS_12basic_stringIcNS_11char_traitsIcEENS_9allocatorIcEEEEbxydSA_NS3_14adl_serializerENS6_IhNSA_IhEEEEvEEEENS_20back_insert_iteratorINS6_ISG_NSA_ISG_EEEEEEEET0_T_SO_SN_, symObjAddr: 0x25200, symBinAddr: 0x100025FF0, symSize: 0x60 }
  - { offsetInCU: 0x23B53, offset: 0x23B53, size: 0x8, addend: 0x0, symName: __ZNSt3__113back_inserterB8ue170006INS_6vectorIN8nlohmann16json_abi_v3_11_310basic_jsonINS_3mapES1_NS_12basic_stringIcNS_11char_traitsIcEENS_9allocatorIcEEEEbxydS9_NS3_14adl_serializerENS1_IhNS9_IhEEEEvEENS9_ISF_EEEEEENS_20back_insert_iteratorIT_EERSJ_, symObjAddr: 0x252C0, symBinAddr: 0x1000260B0, symSize: 0x2C }
  - { offsetInCU: 0x23B87, offset: 0x23B87, size: 0x8, addend: 0x0, symName: __ZNSt3__1neB8ue170006ERKNS_14__map_iteratorINS_15__tree_iteratorINS_12__value_typeINS_12basic_stringIcNS_11char_traitsIcEENS_9allocatorIcEEEEN8nlohmann16json_abi_v3_11_310basic_jsonINS_3mapENS_6vectorES8_bxydS6_NSA_14adl_serializerENSD_IhNS6_IhEEEEvEEEEPNS_11__tree_nodeISI_PvEElEEEESQ_, symObjAddr: 0x25384, symBinAddr: 0x100026174, symSize: 0x30 }
  - { offsetInCU: 0x244A8, offset: 0x244A8, size: 0x8, addend: 0x0, symName: __ZNSt3__120__throw_length_errorB8ue170006EPKc, symObjAddr: 0x25CE8, symBinAddr: 0x100026AD8, symSize: 0x64 }
  - { offsetInCU: 0x244D3, offset: 0x244D3, size: 0x8, addend: 0x0, symName: __ZNSt3__119__allocate_at_leastB8ue170006INS_9allocatorIN8nlohmann16json_abi_v3_11_310basic_jsonINS_3mapENS_6vectorENS_12basic_stringIcNS_11char_traitsIcEENS1_IcEEEEbxydS1_NS3_14adl_serializerENS6_IhNS1_IhEEEEvEEEEEENS_19__allocation_resultINS_16allocator_traitsIT_E7pointerEEERSJ_m, symObjAddr: 0x25F14, symBinAddr: 0x100026D04, symSize: 0x40 }
  - { offsetInCU: 0x24515, offset: 0x24515, size: 0x8, addend: 0x0, symName: __ZNSt3__117__libcpp_allocateB8ue170006Emm, symObjAddr: 0x26098, symBinAddr: 0x100026E88, symSize: 0x60 }
  - { offsetInCU: 0x24570, offset: 0x24570, size: 0x8, addend: 0x0, symName: __ZNSt3__121__libcpp_operator_newB8ue170006IJmSt11align_val_tEEEPvDpT_, symObjAddr: 0x260F8, symBinAddr: 0x100026EE8, symSize: 0x2C }
  - { offsetInCU: 0x245BD, offset: 0x245BD, size: 0x8, addend: 0x0, symName: __ZNSt3__121__libcpp_operator_newB8ue170006IJmEEEPvDpT_, symObjAddr: 0x26124, symBinAddr: 0x100026F14, symSize: 0x24 }
  - { offsetInCU: 0x245F6, offset: 0x245F6, size: 0x8, addend: 0x0, symName: __ZNSt3__142__uninitialized_allocator_move_if_noexceptB8ue170006INS_9allocatorIN8nlohmann16json_abi_v3_11_310basic_jsonINS_3mapENS_6vectorENS_12basic_stringIcNS_11char_traitsIcEENS1_IcEEEEbxydS1_NS3_14adl_serializerENS6_IhNS1_IhEEEEvEEEENS_16reverse_iteratorIPSF_EESJ_SJ_EET2_RT_T0_T1_SK_, symObjAddr: 0x26278, symBinAddr: 0x100027068, symSize: 0x12C }
  - { offsetInCU: 0x24697, offset: 0x24697, size: 0x8, addend: 0x0, symName: __ZNSt3__14swapB8ue170006IPN8nlohmann16json_abi_v3_11_310basic_jsonINS_3mapENS_6vectorENS_12basic_stringIcNS_11char_traitsIcEENS_9allocatorIcEEEEbxydS9_NS2_14adl_serializerENS5_IhNS9_IhEEEEvEEEENS_9enable_ifIXaasr21is_move_constructibleIT_EE5valuesr18is_move_assignableISI_EE5valueEvE4typeERSI_SL_, symObjAddr: 0x263F0, symBinAddr: 0x1000271E0, symSize: 0x3C }
  - { offsetInCU: 0x246E9, offset: 0x246E9, size: 0x8, addend: 0x0, symName: __ZNSt3__112__to_addressB8ue170006IN8nlohmann16json_abi_v3_11_310basic_jsonINS_3mapENS_6vectorENS_12basic_stringIcNS_11char_traitsIcEENS_9allocatorIcEEEEbxydS9_NS2_14adl_serializerENS5_IhNS9_IhEEEEvEEEEPT_SH_, symObjAddr: 0x26548, symBinAddr: 0x100027338, symSize: 0x14 }
  - { offsetInCU: 0x2471F, offset: 0x2471F, size: 0x8, addend: 0x0, symName: __ZNSt3__122__make_exception_guardB8ue170006INS_29_AllocatorDestroyRangeReverseINS_9allocatorIN8nlohmann16json_abi_v3_11_310basic_jsonINS_3mapENS_6vectorENS_12basic_stringIcNS_11char_traitsIcEENS2_IcEEEEbxydS2_NS4_14adl_serializerENS7_IhNS2_IhEEEEvEEEENS_16reverse_iteratorIPSG_EEEEEENS_28__exception_guard_exceptionsIT_EESN_, symObjAddr: 0x2655C, symBinAddr: 0x10002734C, symSize: 0x4C }
  - { offsetInCU: 0x24755, offset: 0x24755, size: 0x8, addend: 0x0, symName: __ZNSt3__1neB8ue170006IPN8nlohmann16json_abi_v3_11_310basic_jsonINS_3mapENS_6vectorENS_12basic_stringIcNS_11char_traitsIcEENS_9allocatorIcEEEEbxydS9_NS2_14adl_serializerENS5_IhNS9_IhEEEEvEESG_EEbRKNS_16reverse_iteratorIT_EERKNSH_IT0_EE, symObjAddr: 0x265EC, symBinAddr: 0x1000273DC, symSize: 0x48 }
  - { offsetInCU: 0x247A1, offset: 0x247A1, size: 0x8, addend: 0x0, symName: __ZNSt3__112__to_addressB8ue170006INS_16reverse_iteratorIPN8nlohmann16json_abi_v3_11_310basic_jsonINS_3mapENS_6vectorENS_12basic_stringIcNS_11char_traitsIcEENS_9allocatorIcEEEEbxydSA_NS3_14adl_serializerENS6_IhNSA_IhEEEEvEEEEvEEu7__decayIDTclsr19__to_address_helperIT_EE6__callclsr3stdE7declvalIRKSJ_EEEEESL_, symObjAddr: 0x26664, symBinAddr: 0x100027454, symSize: 0x24 }
  - { offsetInCU: 0x247FE, offset: 0x247FE, size: 0x8, addend: 0x0, symName: __ZNSt3__112construct_atB8ue170006IN8nlohmann16json_abi_v3_11_310basic_jsonINS_3mapENS_6vectorENS_12basic_stringIcNS_11char_traitsIcEENS_9allocatorIcEEEEbxydS9_NS2_14adl_serializerENS5_IhNS9_IhEEEEvEEJSF_EPSF_EEPT_SI_DpOT0_, symObjAddr: 0x267B4, symBinAddr: 0x1000275A4, symSize: 0x3C }
  - { offsetInCU: 0x2489A, offset: 0x2489A, size: 0x8, addend: 0x0, symName: __ZNSt3__14prevB8ue170006IPN8nlohmann16json_abi_v3_11_310basic_jsonINS_3mapENS_6vectorENS_12basic_stringIcNS_11char_traitsIcEENS_9allocatorIcEEEEbxydS9_NS2_14adl_serializerENS5_IhNS9_IhEEEEvEEEENS_9enable_ifIXsr29__has_input_iterator_categoryIT_EE5valueESI_E4typeESI_NS_15iterator_traitsISI_E15difference_typeE, symObjAddr: 0x26854, symBinAddr: 0x100027644, symSize: 0x3C }
  - { offsetInCU: 0x248DD, offset: 0x248DD, size: 0x8, addend: 0x0, symName: __ZNSt3__121__convert_to_integralB8ue170006El, symObjAddr: 0x268C8, symBinAddr: 0x1000276B8, symSize: 0x14 }
  - { offsetInCU: 0x2490A, offset: 0x2490A, size: 0x8, addend: 0x0, symName: __ZNSt3__19__advanceB8ue170006IPN8nlohmann16json_abi_v3_11_310basic_jsonINS_3mapENS_6vectorENS_12basic_stringIcNS_11char_traitsIcEENS_9allocatorIcEEEEbxydS9_NS2_14adl_serializerENS5_IhNS9_IhEEEEvEEEEvRT_NS_15iterator_traitsISH_E15difference_typeENS_26random_access_iterator_tagE, symObjAddr: 0x268DC, symBinAddr: 0x1000276CC, symSize: 0x28 }
  - { offsetInCU: 0x24955, offset: 0x24955, size: 0x8, addend: 0x0, symName: __ZNSt3__119__allocator_destroyB8ue170006INS_9allocatorIN8nlohmann16json_abi_v3_11_310basic_jsonINS_3mapENS_6vectorENS_12basic_stringIcNS_11char_traitsIcEENS1_IcEEEEbxydS1_NS3_14adl_serializerENS6_IhNS1_IhEEEEvEEEENS_16reverse_iteratorINSH_IPSF_EEEESK_EEvRT_T0_T1_, symObjAddr: 0x26A08, symBinAddr: 0x1000277F8, symSize: 0x70 }
  - { offsetInCU: 0x249BB, offset: 0x249BB, size: 0x8, addend: 0x0, symName: __ZNSt3__1neB8ue170006INS_16reverse_iteratorIPN8nlohmann16json_abi_v3_11_310basic_jsonINS_3mapENS_6vectorENS_12basic_stringIcNS_11char_traitsIcEENS_9allocatorIcEEEEbxydSA_NS3_14adl_serializerENS6_IhNSA_IhEEEEvEEEESI_EEbRKNS1_IT_EERKNS1_IT0_EE, symObjAddr: 0x26AB4, symBinAddr: 0x1000278A4, symSize: 0x60 }
  - { offsetInCU: 0x24A07, offset: 0x24A07, size: 0x8, addend: 0x0, symName: __ZNSt3__112__to_addressB8ue170006INS_16reverse_iteratorINS1_IPN8nlohmann16json_abi_v3_11_310basic_jsonINS_3mapENS_6vectorENS_12basic_stringIcNS_11char_traitsIcEENS_9allocatorIcEEEEbxydSA_NS3_14adl_serializerENS6_IhNSA_IhEEEEvEEEEEEvEEu7__decayIDTclsr19__to_address_helperIT_EE6__callclsr3stdE7declvalIRKSK_EEEEESM_, symObjAddr: 0x26B3C, symBinAddr: 0x10002792C, symSize: 0x24 }
  - { offsetInCU: 0x24A3C, offset: 0x24A3C, size: 0x8, addend: 0x0, symName: __ZNSt3__110destroy_atB8ue170006IN8nlohmann16json_abi_v3_11_310basic_jsonINS_3mapENS_6vectorENS_12basic_stringIcNS_11char_traitsIcEENS_9allocatorIcEEEEbxydS9_NS2_14adl_serializerENS5_IhNS9_IhEEEEvEELi0EEEvPT_, symObjAddr: 0x26BB4, symBinAddr: 0x1000279A4, symSize: 0x24 }
  - { offsetInCU: 0x24A73, offset: 0x24A73, size: 0x8, addend: 0x0, symName: __ZNSt3__112__destroy_atB8ue170006IN8nlohmann16json_abi_v3_11_310basic_jsonINS_3mapENS_6vectorENS_12basic_stringIcNS_11char_traitsIcEENS_9allocatorIcEEEEbxydS9_NS2_14adl_serializerENS5_IhNS9_IhEEEEvEELi0EEEvPT_, symObjAddr: 0x26BD8, symBinAddr: 0x1000279C8, symSize: 0x24 }
  - { offsetInCU: 0x24AD5, offset: 0x24AD5, size: 0x8, addend: 0x0, symName: __ZNSt3__14prevB8ue170006INS_16reverse_iteratorIPN8nlohmann16json_abi_v3_11_310basic_jsonINS_3mapENS_6vectorENS_12basic_stringIcNS_11char_traitsIcEENS_9allocatorIcEEEEbxydSA_NS3_14adl_serializerENS6_IhNSA_IhEEEEvEEEEEENS_9enable_ifIXsr29__has_input_iterator_categoryIT_EE5valueESK_E4typeESK_NS_15iterator_traitsISK_E15difference_typeE, symObjAddr: 0x26C80, symBinAddr: 0x100027A70, symSize: 0x4C }
  - { offsetInCU: 0x24B17, offset: 0x24B17, size: 0x8, addend: 0x0, symName: __ZNSt3__19__advanceB8ue170006INS_16reverse_iteratorIPN8nlohmann16json_abi_v3_11_310basic_jsonINS_3mapENS_6vectorENS_12basic_stringIcNS_11char_traitsIcEENS_9allocatorIcEEEEbxydSA_NS3_14adl_serializerENS6_IhNSA_IhEEEEvEEEEEEvRT_NS_15iterator_traitsISJ_E15difference_typeENS_26random_access_iterator_tagE, symObjAddr: 0x26D04, symBinAddr: 0x100027AF4, symSize: 0x2C }
  - { offsetInCU: 0x24B62, offset: 0x24B62, size: 0x8, addend: 0x0, symName: __ZNSt3__16__moveB8ue170006INS_17_ClassicAlgPolicyENS_11__wrap_iterIPN8nlohmann16json_abi_v3_11_310basic_jsonINS_3mapENS_6vectorENS_12basic_stringIcNS_11char_traitsIcEENS_9allocatorIcEEEEbxydSB_NS4_14adl_serializerENS7_IhNSB_IhEEEEvEEEESJ_NS_20back_insert_iteratorINS7_ISH_NSB_ISH_EEEEEEEENS_4pairIT0_T2_EESP_T1_SQ_, symObjAddr: 0x27058, symBinAddr: 0x100027E48, symSize: 0x5C }
  - { offsetInCU: 0x24BCE, offset: 0x24BCE, size: 0x8, addend: 0x0, symName: __ZNSt3__123__dispatch_copy_or_moveB8ue170006INS_17_ClassicAlgPolicyENS_11__move_loopIS1_EENS_14__move_trivialENS_11__wrap_iterIPN8nlohmann16json_abi_v3_11_310basic_jsonINS_3mapENS_6vectorENS_12basic_stringIcNS_11char_traitsIcEENS_9allocatorIcEEEEbxydSE_NS7_14adl_serializerENSA_IhNSE_IhEEEEvEEEESM_NS_20back_insert_iteratorINSA_ISK_NSE_ISK_EEEEEEEENS_4pairIT2_T4_EESS_T3_ST_, symObjAddr: 0x270B4, symBinAddr: 0x100027EA4, symSize: 0x5C }
  - { offsetInCU: 0x24C4C, offset: 0x24C4C, size: 0x8, addend: 0x0, symName: __ZNSt3__121__unwrap_and_dispatchB8ue170006INS_10__overloadINS_11__move_loopINS_17_ClassicAlgPolicyEEENS_14__move_trivialEEENS_11__wrap_iterIPN8nlohmann16json_abi_v3_11_310basic_jsonINS_3mapENS_6vectorENS_12basic_stringIcNS_11char_traitsIcEENS_9allocatorIcEEEEbxydSG_NS9_14adl_serializerENSC_IhNSG_IhEEEEvEEEESO_NS_20back_insert_iteratorINSC_ISM_NSG_ISM_EEEEEELi0EEENS_4pairIT0_T2_EESU_T1_SV_, symObjAddr: 0x27110, symBinAddr: 0x100027F00, symSize: 0xE8 }
  - { offsetInCU: 0x24CDB, offset: 0x24CDB, size: 0x8, addend: 0x0, symName: __ZNSt3__114__unwrap_rangeB8ue170006INS_11__wrap_iterIPN8nlohmann16json_abi_v3_11_310basic_jsonINS_3mapENS_6vectorENS_12basic_stringIcNS_11char_traitsIcEENS_9allocatorIcEEEEbxydSA_NS3_14adl_serializerENS6_IhNSA_IhEEEEvEEEESI_EEDaT_T0_, symObjAddr: 0x271F8, symBinAddr: 0x100027FE8, symSize: 0x4C }
  - { offsetInCU: 0x24F13, offset: 0x24F13, size: 0x8, addend: 0x0, symName: __ZNSt3__113__unwrap_iterB8ue170006INS_20back_insert_iteratorINS_6vectorIN8nlohmann16json_abi_v3_11_310basic_jsonINS_3mapES2_NS_12basic_stringIcNS_11char_traitsIcEENS_9allocatorIcEEEEbxydSA_NS4_14adl_serializerENS2_IhNSA_IhEEEEvEENSA_ISG_EEEEEENS_18__unwrap_iter_implISJ_Lb0EEELi0EEEDTclsrT0_8__unwrapclsr3stdE7declvalIT_EEEESN_, symObjAddr: 0x272DC, symBinAddr: 0x1000280CC, symSize: 0x34 }
  - { offsetInCU: 0x24F56, offset: 0x24F56, size: 0x8, addend: 0x0, symName: __ZNSt3__19make_pairB8ue170006INS_11__wrap_iterIPN8nlohmann16json_abi_v3_11_310basic_jsonINS_3mapENS_6vectorENS_12basic_stringIcNS_11char_traitsIcEENS_9allocatorIcEEEEbxydSA_NS3_14adl_serializerENS6_IhNSA_IhEEEEvEEEENS_20back_insert_iteratorINS6_ISG_NSA_ISG_EEEEEEEENS_4pairINS_18__unwrap_ref_decayIT_E4typeENSO_IT0_E4typeEEEOSP_OSS_, symObjAddr: 0x27310, symBinAddr: 0x100028100, symSize: 0x38 }
  - { offsetInCU: 0x24FA6, offset: 0x24FA6, size: 0x8, addend: 0x0, symName: __ZNSt3__114__rewrap_rangeB8ue170006INS_11__wrap_iterIPN8nlohmann16json_abi_v3_11_310basic_jsonINS_3mapENS_6vectorENS_12basic_stringIcNS_11char_traitsIcEENS_9allocatorIcEEEEbxydSA_NS3_14adl_serializerENS6_IhNSA_IhEEEEvEEEESI_SH_EET0_SJ_T1_, symObjAddr: 0x27348, symBinAddr: 0x100028138, symSize: 0x3C }
  - { offsetInCU: 0x24FFB, offset: 0x24FFB, size: 0x8, addend: 0x0, symName: __ZNSt3__113__rewrap_iterB8ue170006INS_20back_insert_iteratorINS_6vectorIN8nlohmann16json_abi_v3_11_310basic_jsonINS_3mapES2_NS_12basic_stringIcNS_11char_traitsIcEENS_9allocatorIcEEEEbxydSA_NS4_14adl_serializerENS2_IhNSA_IhEEEEvEENSA_ISG_EEEEEESJ_NS_18__unwrap_iter_implISJ_Lb0EEEEET_SM_T0_, symObjAddr: 0x27384, symBinAddr: 0x100028174, symSize: 0x54 }
  - { offsetInCU: 0x25174, offset: 0x25174, size: 0x8, addend: 0x0, symName: __ZNSt3__113__unwrap_iterB8ue170006INS_11__wrap_iterIPN8nlohmann16json_abi_v3_11_310basic_jsonINS_3mapENS_6vectorENS_12basic_stringIcNS_11char_traitsIcEENS_9allocatorIcEEEEbxydSA_NS3_14adl_serializerENS6_IhNSA_IhEEEEvEEEENS_18__unwrap_iter_implISI_Lb1EEELi0EEEDTclsrT0_8__unwrapclsr3stdE7declvalIT_EEEESM_, symObjAddr: 0x27440, symBinAddr: 0x100028230, symSize: 0x2C }
  - { offsetInCU: 0x2520B, offset: 0x2520B, size: 0x8, addend: 0x0, symName: __ZNSt3__112__to_addressB8ue170006INS_11__wrap_iterIPN8nlohmann16json_abi_v3_11_310basic_jsonINS_3mapENS_6vectorENS_12basic_stringIcNS_11char_traitsIcEENS_9allocatorIcEEEEbxydSA_NS3_14adl_serializerENS6_IhNSA_IhEEEEvEEEEvEEu7__decayIDTclsr19__to_address_helperIT_EE6__callclsr3stdE7declvalIRKSJ_EEEEESL_, symObjAddr: 0x274D0, symBinAddr: 0x1000282C0, symSize: 0x24 }
  - { offsetInCU: 0x25378, offset: 0x25378, size: 0x8, addend: 0x0, symName: __ZNSt3__19make_pairB8ue170006IPN8nlohmann16json_abi_v3_11_310basic_jsonINS_3mapENS_6vectorENS_12basic_stringIcNS_11char_traitsIcEENS_9allocatorIcEEEEbxydS9_NS2_14adl_serializerENS5_IhNS9_IhEEEEvEENS_20back_insert_iteratorINS5_ISF_NS9_ISF_EEEEEEEENS_4pairINS_18__unwrap_ref_decayIT_E4typeENSM_IT0_E4typeEEEOSN_OSQ_, symObjAddr: 0x27624, symBinAddr: 0x100028414, symSize: 0x38 }
  - { offsetInCU: 0x254E4, offset: 0x254E4, size: 0x8, addend: 0x0, symName: __ZNSt3__113__rewrap_iterB8ue170006INS_11__wrap_iterIPN8nlohmann16json_abi_v3_11_310basic_jsonINS_3mapENS_6vectorENS_12basic_stringIcNS_11char_traitsIcEENS_9allocatorIcEEEEbxydSA_NS3_14adl_serializerENS6_IhNSA_IhEEEEvEEEESH_NS_18__unwrap_iter_implISI_Lb1EEEEET_SL_T0_, symObjAddr: 0x27798, symBinAddr: 0x100028588, symSize: 0x4C }
  - { offsetInCU: 0x2556B, offset: 0x2556B, size: 0x8, addend: 0x0, symName: __ZNSt3__1neB8ue170006ERKNS_15__tree_iteratorINS_12__value_typeINS_12basic_stringIcNS_11char_traitsIcEENS_9allocatorIcEEEEN8nlohmann16json_abi_v3_11_310basic_jsonINS_3mapENS_6vectorES7_bxydS5_NS9_14adl_serializerENSC_IhNS5_IhEEEEvEEEEPNS_11__tree_nodeISH_PvEElEESO_, symObjAddr: 0x27B84, symBinAddr: 0x100028974, symSize: 0x34 }
  - { offsetInCU: 0x255A9, offset: 0x255A9, size: 0x8, addend: 0x0, symName: __ZNSt3__1eqB8ue170006ERKNS_15__tree_iteratorINS_12__value_typeINS_12basic_stringIcNS_11char_traitsIcEENS_9allocatorIcEEEEN8nlohmann16json_abi_v3_11_310basic_jsonINS_3mapENS_6vectorES7_bxydS5_NS9_14adl_serializerENSC_IhNS5_IhEEEEvEEEEPNS_11__tree_nodeISH_PvEElEESO_, symObjAddr: 0x27BB8, symBinAddr: 0x1000289A8, symSize: 0x30 }
  - { offsetInCU: 0x25618, offset: 0x25618, size: 0x8, addend: 0x0, symName: __ZNSt3__17launderB8ue170006INS_4pairIKNS_12basic_stringIcNS_11char_traitsIcEENS_9allocatorIcEEEEN8nlohmann16json_abi_v3_11_310basic_jsonINS_3mapENS_6vectorES7_bxydS5_NSA_14adl_serializerENSD_IhNS5_IhEEEEvEEEEEEPT_SK_, symObjAddr: 0x27C64, symBinAddr: 0x100028A54, symSize: 0x24 }
  - { offsetInCU: 0x25650, offset: 0x25650, size: 0x8, addend: 0x0, symName: __ZNSt3__19__launderB8ue170006INS_4pairIKNS_12basic_stringIcNS_11char_traitsIcEENS_9allocatorIcEEEEN8nlohmann16json_abi_v3_11_310basic_jsonINS_3mapENS_6vectorES7_bxydS5_NSA_14adl_serializerENSD_IhNS5_IhEEEEvEEEEEEPT_SK_, symObjAddr: 0x27C88, symBinAddr: 0x100028A78, symSize: 0x14 }
  - { offsetInCU: 0x25687, offset: 0x25687, size: 0x8, addend: 0x0, symName: __ZNSt3__13maxB8ue170006ImEERKT_S3_S3_, symObjAddr: 0x27F84, symBinAddr: 0x100028D74, symSize: 0x2C }
  - { offsetInCU: 0x256CA, offset: 0x256CA, size: 0x8, addend: 0x0, symName: __ZNSt3__13maxB8ue170006ImNS_6__lessIvvEEEERKT_S5_S5_T0_, symObjAddr: 0x27FB0, symBinAddr: 0x100028DA0, symSize: 0x54 }
  - { offsetInCU: 0x25724, offset: 0x25724, size: 0x8, addend: 0x0, symName: __ZNSt3__116__tree_next_iterB8ue170006IPNS_15__tree_end_nodeIPNS_16__tree_node_baseIPvEEEES5_EET_T0_, symObjAddr: 0x2803C, symBinAddr: 0x100028E2C, symSize: 0x90 }
  - { offsetInCU: 0x25762, offset: 0x25762, size: 0x8, addend: 0x0, symName: __ZNSt3__110__tree_minB8ue170006IPNS_16__tree_node_baseIPvEEEET_S5_, symObjAddr: 0x280CC, symBinAddr: 0x100028EBC, symSize: 0x40 }
  - { offsetInCU: 0x25798, offset: 0x25798, size: 0x8, addend: 0x0, symName: __ZNSt3__120__tree_is_left_childB8ue170006IPNS_16__tree_node_baseIPvEEEEbT_, symObjAddr: 0x2810C, symBinAddr: 0x100028EFC, symSize: 0x2C }
  - { offsetInCU: 0x257CD, offset: 0x257CD, size: 0x8, addend: 0x0, symName: __ZNSt3__110destroy_atB8ue170006INS_4pairIKNS_12basic_stringIcNS_11char_traitsIcEENS_9allocatorIcEEEEN8nlohmann16json_abi_v3_11_310basic_jsonINS_3mapENS_6vectorES7_bxydS5_NSA_14adl_serializerENSD_IhNS5_IhEEEEvEEEELi0EEEvPT_, symObjAddr: 0x285D4, symBinAddr: 0x1000293C4, symSize: 0x24 }
  - { offsetInCU: 0x25804, offset: 0x25804, size: 0x8, addend: 0x0, symName: __ZNSt3__112__destroy_atB8ue170006INS_4pairIKNS_12basic_stringIcNS_11char_traitsIcEENS_9allocatorIcEEEEN8nlohmann16json_abi_v3_11_310basic_jsonINS_3mapENS_6vectorES7_bxydS5_NSA_14adl_serializerENSD_IhNS5_IhEEEEvEEEELi0EEEvPT_, symObjAddr: 0x285F8, symBinAddr: 0x1000293E8, symSize: 0x24 }
  - { offsetInCU: 0x2583B, offset: 0x2583B, size: 0x8, addend: 0x0, symName: __ZNSt3__110destroy_atB8ue170006INS_3mapINS_12basic_stringIcNS_11char_traitsIcEENS_9allocatorIcEEEEN8nlohmann16json_abi_v3_11_310basic_jsonIS1_NS_6vectorES7_bxydS5_NS9_14adl_serializerENSB_IhNS5_IhEEEEvEENS_4lessIvEENS5_INS_4pairIKS7_SF_EEEEEELi0EEEvPT_, symObjAddr: 0x288B4, symBinAddr: 0x1000296A4, symSize: 0x24 }
  - { offsetInCU: 0x25872, offset: 0x25872, size: 0x8, addend: 0x0, symName: __ZNSt3__112__destroy_atB8ue170006INS_3mapINS_12basic_stringIcNS_11char_traitsIcEENS_9allocatorIcEEEEN8nlohmann16json_abi_v3_11_310basic_jsonIS1_NS_6vectorES7_bxydS5_NS9_14adl_serializerENSB_IhNS5_IhEEEEvEENS_4lessIvEENS5_INS_4pairIKS7_SF_EEEEEELi0EEEvPT_, symObjAddr: 0x288D8, symBinAddr: 0x1000296C8, symSize: 0x24 }
  - { offsetInCU: 0x258A9, offset: 0x258A9, size: 0x8, addend: 0x0, symName: __ZNSt3__110destroy_atB8ue170006INS_6vectorIN8nlohmann16json_abi_v3_11_310basic_jsonINS_3mapES1_NS_12basic_stringIcNS_11char_traitsIcEENS_9allocatorIcEEEEbxydS9_NS3_14adl_serializerENS1_IhNS9_IhEEEEvEENS9_ISF_EEEELi0EEEvPT_, symObjAddr: 0x28A3C, symBinAddr: 0x10002982C, symSize: 0x24 }
  - { offsetInCU: 0x258E0, offset: 0x258E0, size: 0x8, addend: 0x0, symName: __ZNSt3__112__destroy_atB8ue170006INS_6vectorIN8nlohmann16json_abi_v3_11_310basic_jsonINS_3mapES1_NS_12basic_stringIcNS_11char_traitsIcEENS_9allocatorIcEEEEbxydS9_NS3_14adl_serializerENS1_IhNS9_IhEEEEvEENS9_ISF_EEEELi0EEEvPT_, symObjAddr: 0x28A60, symBinAddr: 0x100029850, symSize: 0x24 }
  - { offsetInCU: 0x25917, offset: 0x25917, size: 0x8, addend: 0x0, symName: __ZNSt3__110destroy_atB8ue170006IN8nlohmann16json_abi_v3_11_327byte_container_with_subtypeINS_6vectorIhNS_9allocatorIhEEEEEELi0EEEvPT_, symObjAddr: 0x28B8C, symBinAddr: 0x10002997C, symSize: 0x24 }
  - { offsetInCU: 0x2594E, offset: 0x2594E, size: 0x8, addend: 0x0, symName: __ZNSt3__112__destroy_atB8ue170006IN8nlohmann16json_abi_v3_11_327byte_container_with_subtypeINS_6vectorIhNS_9allocatorIhEEEEEELi0EEEvPT_, symObjAddr: 0x28BB0, symBinAddr: 0x1000299A0, symSize: 0x24 }
  - { offsetInCU: 0x25986, offset: 0x25986, size: 0x8, addend: 0x0, symName: __ZNSt3__112__to_addressB8ue170006IhEEPT_S2_, symObjAddr: 0x28F7C, symBinAddr: 0x100029D6C, symSize: 0x14 }
  - { offsetInCU: 0x259BB, offset: 0x259BB, size: 0x8, addend: 0x0, symName: __ZNSt3__110destroy_atB8ue170006IhLi0EEEvPT_, symObjAddr: 0x28F90, symBinAddr: 0x100029D80, symSize: 0x24 }
  - { offsetInCU: 0x259F3, offset: 0x259F3, size: 0x8, addend: 0x0, symName: __ZNSt3__112__destroy_atB8ue170006IhLi0EEEvPT_, symObjAddr: 0x28FB4, symBinAddr: 0x100029DA4, symSize: 0x10 }
  - { offsetInCU: 0x25D75, offset: 0x25D75, size: 0x8, addend: 0x0, symName: __ZNSt3__1eqB8ue170006INS_12basic_stringIcNS_11char_traitsIcEENS_9allocatorIcEEEEZN8nlohmann16json_abi_v3_11_310basic_jsonINS_3mapENS_6vectorES6_bxydS4_NS8_14adl_serializerENSB_IhNS4_IhEEEEvE6createIS6_JRA3_KcEEEPT_DpOT0_EUlPS6_E_EEbRKNS_10unique_ptrISK_T0_EEDn, symObjAddr: 0x29208, symBinAddr: 0x100029FF8, symSize: 0x30 }
  - { offsetInCU: 0x25DE9, offset: 0x25DE9, size: 0x8, addend: 0x0, symName: __ZNSt3__112construct_atB8ue170006INS_12basic_stringIcNS_11char_traitsIcEENS_9allocatorIcEEEEJRA3_KcEPS6_EEPT_SC_DpOT0_, symObjAddr: 0x29440, symBinAddr: 0x10002A230, symSize: 0x3C }
  - { offsetInCU: 0x2619A, offset: 0x2619A, size: 0x8, addend: 0x0, symName: __ZNSt3__1eqB8ue170006INS_12basic_stringIcNS_11char_traitsIcEENS_9allocatorIcEEEEZN8nlohmann16json_abi_v3_11_310basic_jsonINS_3mapENS_6vectorES6_bxydS4_NS8_14adl_serializerENSB_IhNS4_IhEEEEvE6createIS6_JRA8_KcEEEPT_DpOT0_EUlPS6_E_EEbRKNS_10unique_ptrISK_T0_EEDn, symObjAddr: 0x29C04, symBinAddr: 0x10002A9F4, symSize: 0x30 }
  - { offsetInCU: 0x261E7, offset: 0x261E7, size: 0x8, addend: 0x0, symName: __ZNSt3__112construct_atB8ue170006INS_12basic_stringIcNS_11char_traitsIcEENS_9allocatorIcEEEEJRA8_KcEPS6_EEPT_SC_DpOT0_, symObjAddr: 0x29D94, symBinAddr: 0x10002AB84, symSize: 0x3C }
  - { offsetInCU: 0x26598, offset: 0x26598, size: 0x8, addend: 0x0, symName: __ZNSt3__1eqB8ue170006INS_12basic_stringIcNS_11char_traitsIcEENS_9allocatorIcEEEEZN8nlohmann16json_abi_v3_11_310basic_jsonINS_3mapENS_6vectorES6_bxydS4_NS8_14adl_serializerENSB_IhNS4_IhEEEEvE6createIS6_JRA5_KcEEEPT_DpOT0_EUlPS6_E_EEbRKNS_10unique_ptrISK_T0_EEDn, symObjAddr: 0x2A4F4, symBinAddr: 0x10002B2E4, symSize: 0x30 }
  - { offsetInCU: 0x265E5, offset: 0x265E5, size: 0x8, addend: 0x0, symName: __ZNSt3__112construct_atB8ue170006INS_12basic_stringIcNS_11char_traitsIcEENS_9allocatorIcEEEEJRA5_KcEPS6_EEPT_SC_DpOT0_, symObjAddr: 0x2A684, symBinAddr: 0x10002B474, symSize: 0x3C }
  - { offsetInCU: 0x26996, offset: 0x26996, size: 0x8, addend: 0x0, symName: __ZNSt3__1eqB8ue170006INS_12basic_stringIcNS_11char_traitsIcEENS_9allocatorIcEEEEZN8nlohmann16json_abi_v3_11_310basic_jsonINS_3mapENS_6vectorES6_bxydS4_NS8_14adl_serializerENSB_IhNS4_IhEEEEvE6createIS6_JRKS6_EEEPT_DpOT0_EUlPS6_E_EEbRKNS_10unique_ptrISJ_T0_EEDn, symObjAddr: 0x2AC3C, symBinAddr: 0x10002BA2C, symSize: 0x30 }
  - { offsetInCU: 0x269E3, offset: 0x269E3, size: 0x8, addend: 0x0, symName: __ZNSt3__112construct_atB8ue170006INS_12basic_stringIcNS_11char_traitsIcEENS_9allocatorIcEEEEJRKS6_EPS6_EEPT_SB_DpOT0_, symObjAddr: 0x2ADCC, symBinAddr: 0x10002BBBC, symSize: 0x3C }
  - { offsetInCU: 0x26D94, offset: 0x26D94, size: 0x8, addend: 0x0, symName: __ZNSt3__1eqB8ue170006INS_12basic_stringIcNS_11char_traitsIcEENS_9allocatorIcEEEEZN8nlohmann16json_abi_v3_11_310basic_jsonINS_3mapENS_6vectorES6_bxydS4_NS8_14adl_serializerENSB_IhNS4_IhEEEEvE6createIS6_JRA10_KcEEEPT_DpOT0_EUlPS6_E_EEbRKNS_10unique_ptrISK_T0_EEDn, symObjAddr: 0x2B30C, symBinAddr: 0x10002C0FC, symSize: 0x30 }
  - { offsetInCU: 0x26DE1, offset: 0x26DE1, size: 0x8, addend: 0x0, symName: __ZNSt3__112construct_atB8ue170006INS_12basic_stringIcNS_11char_traitsIcEENS_9allocatorIcEEEEJRA10_KcEPS6_EEPT_SC_DpOT0_, symObjAddr: 0x2B49C, symBinAddr: 0x10002C28C, symSize: 0x3C }
  - { offsetInCU: 0x27192, offset: 0x27192, size: 0x8, addend: 0x0, symName: __ZNSt3__1eqB8ue170006INS_12basic_stringIcNS_11char_traitsIcEENS_9allocatorIcEEEEZN8nlohmann16json_abi_v3_11_310basic_jsonINS_3mapENS_6vectorES6_bxydS4_NS8_14adl_serializerENSB_IhNS4_IhEEEEvE6createIS6_JRA9_KcEEEPT_DpOT0_EUlPS6_E_EEbRKNS_10unique_ptrISK_T0_EEDn, symObjAddr: 0x2B9DC, symBinAddr: 0x10002C7CC, symSize: 0x30 }
  - { offsetInCU: 0x271DF, offset: 0x271DF, size: 0x8, addend: 0x0, symName: __ZNSt3__112construct_atB8ue170006INS_12basic_stringIcNS_11char_traitsIcEENS_9allocatorIcEEEEJRA9_KcEPS6_EEPT_SC_DpOT0_, symObjAddr: 0x2BB6C, symBinAddr: 0x10002C95C, symSize: 0x3C }
  - { offsetInCU: 0x27590, offset: 0x27590, size: 0x8, addend: 0x0, symName: __ZNSt3__1eqB8ue170006INS_12basic_stringIcNS_11char_traitsIcEENS_9allocatorIcEEEEZN8nlohmann16json_abi_v3_11_310basic_jsonINS_3mapENS_6vectorES6_bxydS4_NS8_14adl_serializerENSB_IhNS4_IhEEEEvE6createIS6_JRA6_KcEEEPT_DpOT0_EUlPS6_E_EEbRKNS_10unique_ptrISK_T0_EEDn, symObjAddr: 0x2C0AC, symBinAddr: 0x10002CE9C, symSize: 0x30 }
  - { offsetInCU: 0x275DD, offset: 0x275DD, size: 0x8, addend: 0x0, symName: __ZNSt3__112construct_atB8ue170006INS_12basic_stringIcNS_11char_traitsIcEENS_9allocatorIcEEEEJRA6_KcEPS6_EEPT_SC_DpOT0_, symObjAddr: 0x2C23C, symBinAddr: 0x10002D02C, symSize: 0x3C }
  - { offsetInCU: 0x2798E, offset: 0x2798E, size: 0x8, addend: 0x0, symName: __ZNSt3__1eqB8ue170006INS_12basic_stringIcNS_11char_traitsIcEENS_9allocatorIcEEEEZN8nlohmann16json_abi_v3_11_310basic_jsonINS_3mapENS_6vectorES6_bxydS4_NS8_14adl_serializerENSB_IhNS4_IhEEEEvE6createIS6_JRA7_KcEEEPT_DpOT0_EUlPS6_E_EEbRKNS_10unique_ptrISK_T0_EEDn, symObjAddr: 0x2C77C, symBinAddr: 0x10002D56C, symSize: 0x30 }
  - { offsetInCU: 0x279DB, offset: 0x279DB, size: 0x8, addend: 0x0, symName: __ZNSt3__112construct_atB8ue170006INS_12basic_stringIcNS_11char_traitsIcEENS_9allocatorIcEEEEJRA7_KcEPS6_EEPT_SC_DpOT0_, symObjAddr: 0x2C90C, symBinAddr: 0x10002D6FC, symSize: 0x3C }
  - { offsetInCU: 0x27A4C, offset: 0x27A4C, size: 0x8, addend: 0x0, symName: __ZNSt3__19__advanceB8ue170006INS_15__list_iteratorINS_4listI11TransactionNS_9allocatorIS3_EEEEPvEEEEvRT_NS_15iterator_traitsIS9_E15difference_typeENS_26bidirectional_iterator_tagE, symObjAddr: 0x2CBD0, symBinAddr: 0x10002D9C0, symSize: 0xA4 }
  - { offsetInCU: 0x27A96, offset: 0x27A96, size: 0x8, addend: 0x0, symName: __ZNSt3__110__str_findB8ue170006IcmNS_11char_traitsIcEELm18446744073709551615EEET0_PKT_S3_S6_S3_S3_, symObjAddr: 0x2CD4C, symBinAddr: 0x10002DB3C, symSize: 0xE4 }
  - { offsetInCU: 0x27B3D, offset: 0x27B3D, size: 0x8, addend: 0x0, symName: __ZNSt3__118__search_substringB8ue170006IcNS_11char_traitsIcEEEEPKT_S5_S5_S5_S5_, symObjAddr: 0x2CE30, symBinAddr: 0x10002DC20, symSize: 0x154 }
  - { offsetInCU: 0x27BD8, offset: 0x27BD8, size: 0x8, addend: 0x0, symName: __ZNSt3__118__constexpr_memchrB8ue170006IKccEEPT_S3_T0_m, symObjAddr: 0x2CFF4, symBinAddr: 0x10002DDE4, symSize: 0x40 }
  - { offsetInCU: 0x27C4E, offset: 0x27C4E, size: 0x8, addend: 0x0, symName: __ZNSt3__116__pad_and_outputB8ue170006IcNS_11char_traitsIcEEEENS_19ostreambuf_iteratorIT_T0_EES6_PKS4_S8_S8_RNS_8ios_baseES4_, symObjAddr: 0x2D278, symBinAddr: 0x10002E068, symSize: 0x240 }
  - { offsetInCU: 0x27D1E, offset: 0x27D1E, size: 0x8, addend: 0x0, symName: __ZNSt3__112__to_addressB8ue170006IcEEPT_S2_, symObjAddr: 0x2D6E8, symBinAddr: 0x10002E4D8, symSize: 0x14 }
  - { offsetInCU: 0x27D54, offset: 0x27D54, size: 0x8, addend: 0x0, symName: __ZNSt3__19use_facetB8ue170006INS_5ctypeIcEEEERKT_RKNS_6localeE, symObjAddr: 0x2D840, symBinAddr: 0x10002E630, symSize: 0x2C }
  - { offsetInCU: 0x28221, offset: 0x28221, size: 0x8, addend: 0x0, symName: __ZNSt3__16all_ofB8ue170006IPKN8nlohmann16json_abi_v3_11_36detail8json_refINS2_10basic_jsonINS_3mapENS_6vectorENS_12basic_stringIcNS_11char_traitsIcEENS_9allocatorIcEEEEbxydSB_NS2_14adl_serializerENS7_IhNSB_IhEEEEvEEEEZNSH_C1ESt16initializer_listISI_EbNS3_7value_tEEUlRSJ_E_EEbT_SQ_T0_, symObjAddr: 0x2DC98, symBinAddr: 0x10002EA88, symSize: 0x94 }
  - { offsetInCU: 0x28679, offset: 0x28679, size: 0x8, addend: 0x0, symName: __ZNSt3__1eqB8ue170006INS_3mapINS_12basic_stringIcNS_11char_traitsIcEENS_9allocatorIcEEEEN8nlohmann16json_abi_v3_11_310basic_jsonIS1_NS_6vectorES7_bxydS5_NS9_14adl_serializerENSB_IhNS5_IhEEEEvEENS_4lessIvEENS5_INS_4pairIKS7_SF_EEEEEEZNSF_6createISM_JEEEPT_DpOT0_EUlPSM_E_EEbRKNS_10unique_ptrISO_T0_EEDn, symObjAddr: 0x2F880, symBinAddr: 0x100030670, symSize: 0x30 }
  - { offsetInCU: 0x286ED, offset: 0x286ED, size: 0x8, addend: 0x0, symName: __ZNSt3__112construct_atB8ue170006INS_3mapINS_12basic_stringIcNS_11char_traitsIcEENS_9allocatorIcEEEEN8nlohmann16json_abi_v3_11_310basic_jsonIS1_NS_6vectorES7_bxydS5_NS9_14adl_serializerENSB_IhNS5_IhEEEEvEENS_4lessIvEENS5_INS_4pairIKS7_SF_EEEEEEJEPSM_EEPT_SP_DpOT0_, symObjAddr: 0x2FAB8, symBinAddr: 0x1000308A8, symSize: 0x34 }
  - { offsetInCU: 0x28B49, offset: 0x28B49, size: 0x8, addend: 0x0, symName: __ZNSt3__1eqB8ue170006INS_6vectorIN8nlohmann16json_abi_v3_11_310basic_jsonINS_3mapES1_NS_12basic_stringIcNS_11char_traitsIcEENS_9allocatorIcEEEEbxydS9_NS3_14adl_serializerENS1_IhNS9_IhEEEEvEENS9_ISF_EEEEZNSF_6createISH_JEEEPT_DpOT0_EUlPSH_E_EEbRKNS_10unique_ptrISJ_T0_EEDn, symObjAddr: 0x300BC, symBinAddr: 0x100030EAC, symSize: 0x30 }
  - { offsetInCU: 0x28BBD, offset: 0x28BBD, size: 0x8, addend: 0x0, symName: __ZNSt3__112construct_atB8ue170006INS_6vectorIN8nlohmann16json_abi_v3_11_310basic_jsonINS_3mapES1_NS_12basic_stringIcNS_11char_traitsIcEENS_9allocatorIcEEEEbxydS9_NS3_14adl_serializerENS1_IhNS9_IhEEEEvEENS9_ISF_EEEEJEPSH_EEPT_SK_DpOT0_, symObjAddr: 0x302F4, symBinAddr: 0x1000310E4, symSize: 0x34 }
  - { offsetInCU: 0x28F5A, offset: 0x28F5A, size: 0x8, addend: 0x0, symName: __ZNSt3__1eqB8ue170006INS_12basic_stringIcNS_11char_traitsIcEENS_9allocatorIcEEEEZN8nlohmann16json_abi_v3_11_310basic_jsonINS_3mapENS_6vectorES6_bxydS4_NS8_14adl_serializerENSB_IhNS4_IhEEEEvE6createIS6_JRA1_KcEEEPT_DpOT0_EUlPS6_E_EEbRKNS_10unique_ptrISK_T0_EEDn, symObjAddr: 0x30580, symBinAddr: 0x100031370, symSize: 0x30 }
  - { offsetInCU: 0x28FA7, offset: 0x28FA7, size: 0x8, addend: 0x0, symName: __ZNSt3__112construct_atB8ue170006INS_12basic_stringIcNS_11char_traitsIcEENS_9allocatorIcEEEEJRA1_KcEPS6_EEPT_SC_DpOT0_, symObjAddr: 0x30710, symBinAddr: 0x100031500, symSize: 0x3C }
  - { offsetInCU: 0x29417, offset: 0x29417, size: 0x8, addend: 0x0, symName: __ZNSt3__1eqB8ue170006IN8nlohmann16json_abi_v3_11_327byte_container_with_subtypeINS_6vectorIhNS_9allocatorIhEEEEEEZNS2_10basic_jsonINS_3mapES4_NS_12basic_stringIcNS_11char_traitsIcEENS5_IcEEEEbxydS5_NS2_14adl_serializerES7_vE6createIS8_JEEEPT_DpOT0_EUlPS8_E_EEbRKNS_10unique_ptrISJ_T0_EEDn, symObjAddr: 0x309A0, symBinAddr: 0x100031790, symSize: 0x30 }
  - { offsetInCU: 0x2948B, offset: 0x2948B, size: 0x8, addend: 0x0, symName: __ZNSt3__112construct_atB8ue170006IN8nlohmann16json_abi_v3_11_327byte_container_with_subtypeINS_6vectorIhNS_9allocatorIhEEEEEEJEPS8_EEPT_SB_DpOT0_, symObjAddr: 0x30BD8, symBinAddr: 0x1000319C8, symSize: 0x34 }
  - { offsetInCU: 0x2950D, offset: 0x2950D, size: 0x8, addend: 0x0, symName: __ZNSt3__1ltB8ue170006ENS_15strong_orderingENS_20_CmpUnspecifiedParamE, symObjAddr: 0x317D8, symBinAddr: 0x1000325C8, symSize: 0x24 }
  - { offsetInCU: 0x29546, offset: 0x29546, size: 0x8, addend: 0x0, symName: __ZNSt3__1ssB8ue170006IcNS_11char_traitsIcEENS_9allocatorIcEEEEDaRKNS_12basic_stringIT_T0_T1_EESC_, symObjAddr: 0x317FC, symBinAddr: 0x1000325EC, symSize: 0x5C }
  - { offsetInCU: 0x295BA, offset: 0x295BA, size: 0x8, addend: 0x0, symName: __ZNSt3__1ssB8ue170006IcNS_11char_traitsIcEEEEDaNS_17basic_string_viewIT_T0_EES7_, symObjAddr: 0x3188C, symBinAddr: 0x10003267C, symSize: 0x7C }
  - { offsetInCU: 0x29609, offset: 0x29609, size: 0x8, addend: 0x0, symName: __ZNSt3__17launderB8ue170006IKNS_4pairIKNS_12basic_stringIcNS_11char_traitsIcEENS_9allocatorIcEEEEN8nlohmann16json_abi_v3_11_310basic_jsonINS_3mapENS_6vectorES7_bxydS5_NSA_14adl_serializerENSD_IhNS5_IhEEEEvEEEEEEPT_SL_, symObjAddr: 0x31A5C, symBinAddr: 0x10003284C, symSize: 0x24 }
  - { offsetInCU: 0x29641, offset: 0x29641, size: 0x8, addend: 0x0, symName: __ZNSt3__19__launderB8ue170006IKNS_4pairIKNS_12basic_stringIcNS_11char_traitsIcEENS_9allocatorIcEEEEN8nlohmann16json_abi_v3_11_310basic_jsonINS_3mapENS_6vectorES7_bxydS5_NSA_14adl_serializerENSD_IhNS5_IhEEEEvEEEEEEPT_SL_, symObjAddr: 0x31A80, symBinAddr: 0x100032870, symSize: 0x14 }
  - { offsetInCU: 0x296BD, offset: 0x296BD, size: 0x8, addend: 0x0, symName: __ZNSt3__112construct_atB8ue170006INS_4pairIKNS_12basic_stringIcNS_11char_traitsIcEENS_9allocatorIcEEEEN8nlohmann16json_abi_v3_11_310basic_jsonINS_3mapENS_6vectorES7_bxydS5_NSA_14adl_serializerENSD_IhNS5_IhEEEEvEEEEJS7_SH_EPSI_EEPT_SL_DpOT0_, symObjAddr: 0x31D98, symBinAddr: 0x100032B88, symSize: 0x44 }
  - { offsetInCU: 0x29742, offset: 0x29742, size: 0x8, addend: 0x0, symName: __ZNSt3__127__tree_balance_after_insertB8ue170006IPNS_16__tree_node_baseIPvEEEEvT_S5_, symObjAddr: 0x31F50, symBinAddr: 0x100032D40, symSize: 0x27C }
  - { offsetInCU: 0x297C1, offset: 0x297C1, size: 0x8, addend: 0x0, symName: __ZNSt3__118__tree_left_rotateB8ue170006IPNS_16__tree_node_baseIPvEEEEvT_, symObjAddr: 0x321CC, symBinAddr: 0x100032FBC, symSize: 0xD8 }
  - { offsetInCU: 0x29804, offset: 0x29804, size: 0x8, addend: 0x0, symName: __ZNSt3__119__tree_right_rotateB8ue170006IPNS_16__tree_node_baseIPvEEEEvT_, symObjAddr: 0x322A4, symBinAddr: 0x100033094, symSize: 0xCC }
  - { offsetInCU: 0x29B86, offset: 0x29B86, size: 0x8, addend: 0x0, symName: __ZNSt3__1eqB8ue170006INS_6vectorIN8nlohmann16json_abi_v3_11_310basic_jsonINS_3mapES1_NS_12basic_stringIcNS_11char_traitsIcEENS_9allocatorIcEEEEbxydS9_NS3_14adl_serializerENS1_IhNS9_IhEEEEvEENS9_ISF_EEEEZNSF_6createISH_JPKNS3_6detail8json_refISF_EESN_EEEPT_DpOT0_EUlPSH_E_EEbRKNS_10unique_ptrISO_T0_EEDn, symObjAddr: 0x32644, symBinAddr: 0x100033434, symSize: 0x30 }
  - { offsetInCU: 0x29BD3, offset: 0x29BD3, size: 0x8, addend: 0x0, symName: __ZNSt3__112construct_atB8ue170006INS_6vectorIN8nlohmann16json_abi_v3_11_310basic_jsonINS_3mapES1_NS_12basic_stringIcNS_11char_traitsIcEENS_9allocatorIcEEEEbxydS9_NS3_14adl_serializerENS1_IhNS9_IhEEEEvEENS9_ISF_EEEEJPKNS3_6detail8json_refISF_EESM_EPSH_EEPT_SP_DpOT0_, symObjAddr: 0x327D4, symBinAddr: 0x1000335C4, symSize: 0x4C }
  - { offsetInCU: 0x29C58, offset: 0x29C58, size: 0x8, addend: 0x0, symName: __ZNSt3__18distanceB8ue170006IPKN8nlohmann16json_abi_v3_11_36detail8json_refINS2_10basic_jsonINS_3mapENS_6vectorENS_12basic_stringIcNS_11char_traitsIcEENS_9allocatorIcEEEEbxydSB_NS2_14adl_serializerENS7_IhNSB_IhEEEEvEEEEEENS_15iterator_traitsIT_E15difference_typeESM_SM_, symObjAddr: 0x328D0, symBinAddr: 0x1000336C0, symSize: 0x2C }
  - { offsetInCU: 0x29C9B, offset: 0x29C9B, size: 0x8, addend: 0x0, symName: __ZNSt3__110__distanceB8ue170006IPKN8nlohmann16json_abi_v3_11_36detail8json_refINS2_10basic_jsonINS_3mapENS_6vectorENS_12basic_stringIcNS_11char_traitsIcEENS_9allocatorIcEEEEbxydSB_NS2_14adl_serializerENS7_IhNSB_IhEEEEvEEEEEENS_15iterator_traitsIT_E15difference_typeESM_SM_NS_26random_access_iterator_tagE, symObjAddr: 0x329B4, symBinAddr: 0x1000337A4, symSize: 0x28 }
  - { offsetInCU: 0x29CEA, offset: 0x29CEA, size: 0x8, addend: 0x0, symName: __ZNSt3__122__make_exception_guardB8ue170006INS_6vectorIN8nlohmann16json_abi_v3_11_310basic_jsonINS_3mapES1_NS_12basic_stringIcNS_11char_traitsIcEENS_9allocatorIcEEEEbxydS9_NS3_14adl_serializerENS1_IhNS9_IhEEEEvEENS9_ISF_EEE16__destroy_vectorEEENS_28__exception_guard_exceptionsIT_EESK_, symObjAddr: 0x329DC, symBinAddr: 0x1000337CC, symSize: 0x40 }
  - { offsetInCU: 0x29D1E, offset: 0x29D1E, size: 0x8, addend: 0x0, symName: __ZNSt3__130__uninitialized_allocator_copyB8ue170006INS_9allocatorIN8nlohmann16json_abi_v3_11_310basic_jsonINS_3mapENS_6vectorENS_12basic_stringIcNS_11char_traitsIcEENS1_IcEEEEbxydS1_NS3_14adl_serializerENS6_IhNS1_IhEEEEvEEEEPKNS3_6detail8json_refISF_EESL_PSF_EET2_RT_T0_T1_SN_, symObjAddr: 0x32BF4, symBinAddr: 0x1000339E4, symSize: 0x80 }
  - { offsetInCU: 0x29DBC, offset: 0x29DBC, size: 0x8, addend: 0x0, symName: __ZNSt3__114__unwrap_rangeB8ue170006IPKN8nlohmann16json_abi_v3_11_36detail8json_refINS2_10basic_jsonINS_3mapENS_6vectorENS_12basic_stringIcNS_11char_traitsIcEENS_9allocatorIcEEEEbxydSB_NS2_14adl_serializerENS7_IhNSB_IhEEEEvEEEESK_EEDaT_T0_, symObjAddr: 0x32C74, symBinAddr: 0x100033A64, symSize: 0x3C }
  - { offsetInCU: 0x29E07, offset: 0x29E07, size: 0x8, addend: 0x0, symName: __ZNSt3__135__uninitialized_allocator_copy_implB8ue170006INS_9allocatorIN8nlohmann16json_abi_v3_11_310basic_jsonINS_3mapENS_6vectorENS_12basic_stringIcNS_11char_traitsIcEENS1_IcEEEEbxydS1_NS3_14adl_serializerENS6_IhNS1_IhEEEEvEEEEPKNS3_6detail8json_refISF_EESL_PSF_EET2_RT_T0_T1_SN_, symObjAddr: 0x32CB0, symBinAddr: 0x100033AA0, symSize: 0xF4 }
  - { offsetInCU: 0x29EA6, offset: 0x29EA6, size: 0x8, addend: 0x0, symName: __ZNSt3__113__unwrap_iterB8ue170006IPN8nlohmann16json_abi_v3_11_310basic_jsonINS_3mapENS_6vectorENS_12basic_stringIcNS_11char_traitsIcEENS_9allocatorIcEEEEbxydS9_NS2_14adl_serializerENS5_IhNS9_IhEEEEvEENS_18__unwrap_iter_implISG_Lb1EEELi0EEEDTclsrT0_8__unwrapclsr3stdE7declvalIT_EEEESK_, symObjAddr: 0x32DA4, symBinAddr: 0x100033B94, symSize: 0x24 }
  - { offsetInCU: 0x29EEA, offset: 0x29EEA, size: 0x8, addend: 0x0, symName: __ZNSt3__113__rewrap_iterB8ue170006IPN8nlohmann16json_abi_v3_11_310basic_jsonINS_3mapENS_6vectorENS_12basic_stringIcNS_11char_traitsIcEENS_9allocatorIcEEEEbxydS9_NS2_14adl_serializerENS5_IhNS9_IhEEEEvEESG_NS_18__unwrap_iter_implISG_Lb1EEEEET_SJ_T0_, symObjAddr: 0x32DC8, symBinAddr: 0x100033BB8, symSize: 0x3C }
  - { offsetInCU: 0x2A041, offset: 0x2A041, size: 0x8, addend: 0x0, symName: __ZNSt3__113__unwrap_iterB8ue170006IPKN8nlohmann16json_abi_v3_11_36detail8json_refINS2_10basic_jsonINS_3mapENS_6vectorENS_12basic_stringIcNS_11char_traitsIcEENS_9allocatorIcEEEEbxydSB_NS2_14adl_serializerENS7_IhNSB_IhEEEEvEEEENS_18__unwrap_iter_implISK_Lb1EEELi0EEEDTclsrT0_8__unwrapclsr3stdE7declvalIT_EEEESO_, symObjAddr: 0x32E5C, symBinAddr: 0x100033C4C, symSize: 0x24 }
  - { offsetInCU: 0x2A0D8, offset: 0x2A0D8, size: 0x8, addend: 0x0, symName: __ZNSt3__112__to_addressB8ue170006IKN8nlohmann16json_abi_v3_11_36detail8json_refINS2_10basic_jsonINS_3mapENS_6vectorENS_12basic_stringIcNS_11char_traitsIcEENS_9allocatorIcEEEEbxydSB_NS2_14adl_serializerENS7_IhNSB_IhEEEEvEEEEEEPT_SL_, symObjAddr: 0x32EE0, symBinAddr: 0x100033CD0, symSize: 0x14 }
  - { offsetInCU: 0x2A10E, offset: 0x2A10E, size: 0x8, addend: 0x0, symName: __ZNSt3__122__make_exception_guardB8ue170006INS_29_AllocatorDestroyRangeReverseINS_9allocatorIN8nlohmann16json_abi_v3_11_310basic_jsonINS_3mapENS_6vectorENS_12basic_stringIcNS_11char_traitsIcEENS2_IcEEEEbxydS2_NS4_14adl_serializerENS7_IhNS2_IhEEEEvEEEEPSG_EEEENS_28__exception_guard_exceptionsIT_EESL_, symObjAddr: 0x32F28, symBinAddr: 0x100033D18, symSize: 0x4C }
  - { offsetInCU: 0x2A144, offset: 0x2A144, size: 0x8, addend: 0x0, symName: __ZNSt3__112construct_atB8ue170006IN8nlohmann16json_abi_v3_11_310basic_jsonINS_3mapENS_6vectorENS_12basic_stringIcNS_11char_traitsIcEENS_9allocatorIcEEEEbxydS9_NS2_14adl_serializerENS5_IhNS9_IhEEEEvEEJRKNS2_6detail8json_refISF_EEEPSF_EEPT_SN_DpOT0_, symObjAddr: 0x330CC, symBinAddr: 0x100033EBC, symSize: 0x3C }
  - { offsetInCU: 0x2A1B6, offset: 0x2A1B6, size: 0x8, addend: 0x0, symName: __ZNSt3__119__allocator_destroyB8ue170006INS_9allocatorIN8nlohmann16json_abi_v3_11_310basic_jsonINS_3mapENS_6vectorENS_12basic_stringIcNS_11char_traitsIcEENS1_IcEEEEbxydS1_NS3_14adl_serializerENS6_IhNS1_IhEEEEvEEEENS_16reverse_iteratorIPSF_EESJ_EEvRT_T0_T1_, symObjAddr: 0x33210, symBinAddr: 0x100034000, symSize: 0x70 }
  - { offsetInCU: 0x2A2B2, offset: 0x2A2B2, size: 0x8, addend: 0x0, symName: __ZNSt3__112construct_atB8ue170006I11TransactionJRKS1_EPS1_EEPT_S6_DpOT0_, symObjAddr: 0x33D94, symBinAddr: 0x100034B84, symSize: 0x3C }
  - { offsetInCU: 0x2A369, offset: 0x2A369, size: 0x8, addend: 0x0, symName: __ZNSt3__112construct_atB8ue170006INS_4listI11TransactionNS_9allocatorIS2_EEEEJRKS5_EPS5_EEPT_SA_DpOT0_, symObjAddr: 0x343A4, symBinAddr: 0x100035194, symSize: 0x3C }
  - { offsetInCU: 0x2A3DB, offset: 0x2A3DB, size: 0x8, addend: 0x0, symName: __ZNSt3__1eqB8ue170006ERKNS_15__list_iteratorINS_12basic_stringIcNS_11char_traitsIcEENS_9allocatorIcEEEEPvEESA_, symObjAddr: 0x345D0, symBinAddr: 0x1000353C0, symSize: 0x30 }
  - { offsetInCU: 0x2AA20, offset: 0x2AA20, size: 0x8, addend: 0x0, symName: __ZNSt3__112construct_atB8ue170006IcJcEPcEEPT_S3_DpOT0_, symObjAddr: 0x38624, symBinAddr: 0x100039414, symSize: 0x2C }
  - { offsetInCU: 0x2AA93, offset: 0x2AA93, size: 0x8, addend: 0x0, symName: __ZNSt3__119__allocate_at_leastB8ue170006INS_9allocatorIcEEEENS_19__allocation_resultINS_16allocator_traitsIT_E7pointerEEERS5_m, symObjAddr: 0x38BA8, symBinAddr: 0x100039998, symSize: 0x40 }
  - { offsetInCU: 0x2AAD5, offset: 0x2AAD5, size: 0x8, addend: 0x0, symName: __ZNSt3__142__uninitialized_allocator_move_if_noexceptB8ue170006INS_9allocatorIcEENS_16reverse_iteratorIPcEES5_cvEET1_RT_T0_S9_S6_, symObjAddr: 0x38E14, symBinAddr: 0x100039C04, symSize: 0x78 }
  - { offsetInCU: 0x2AB54, offset: 0x2AB54, size: 0x8, addend: 0x0, symName: __ZNSt3__14swapB8ue170006IPcEENS_9enable_ifIXaasr21is_move_constructibleIT_EE5valuesr18is_move_assignableIS3_EE5valueEvE4typeERS3_S6_, symObjAddr: 0x38ED8, symBinAddr: 0x100039CC8, symSize: 0x3C }
  - { offsetInCU: 0x2ABA6, offset: 0x2ABA6, size: 0x8, addend: 0x0, symName: __ZNSt3__14moveB8ue170006INS_16reverse_iteratorIPcEES3_EET0_T_S5_S4_, symObjAddr: 0x39008, symBinAddr: 0x100039DF8, symSize: 0x78 }
  - { offsetInCU: 0x2AC00, offset: 0x2AC00, size: 0x8, addend: 0x0, symName: __ZNSt3__16__moveB8ue170006INS_17_ClassicAlgPolicyENS_16reverse_iteratorIPcEES4_S4_EENS_4pairIT0_T2_EES6_T1_S7_, symObjAddr: 0x39080, symBinAddr: 0x100039E70, symSize: 0x64 }
  - { offsetInCU: 0x2AC6C, offset: 0x2AC6C, size: 0x8, addend: 0x0, symName: __ZNSt3__123__dispatch_copy_or_moveB8ue170006INS_17_ClassicAlgPolicyENS_11__move_loopIS1_EENS_14__move_trivialENS_16reverse_iteratorIPcEES7_S7_EENS_4pairIT2_T4_EES9_T3_SA_, symObjAddr: 0x390E4, symBinAddr: 0x100039ED4, symSize: 0x64 }
  - { offsetInCU: 0x2ACEA, offset: 0x2ACEA, size: 0x8, addend: 0x0, symName: __ZNSt3__121__unwrap_and_dispatchB8ue170006INS_10__overloadINS_11__move_loopINS_17_ClassicAlgPolicyEEENS_14__move_trivialEEENS_16reverse_iteratorIPcEES9_S9_Li0EEENS_4pairIT0_T2_EESB_T1_SC_, symObjAddr: 0x39148, symBinAddr: 0x100039F38, symSize: 0x12C }
  - { offsetInCU: 0x2AD7A, offset: 0x2AD7A, size: 0x8, addend: 0x0, symName: __ZNSt3__114__unwrap_rangeB8ue170006INS_16reverse_iteratorIPcEES3_EEDaT_T0_, symObjAddr: 0x39274, symBinAddr: 0x10003A064, symSize: 0x4C }
  - { offsetInCU: 0x2AE9A, offset: 0x2AE9A, size: 0x8, addend: 0x0, symName: __ZNSt3__113__unwrap_iterB8ue170006INS_16reverse_iteratorIPcEENS_18__unwrap_iter_implIS3_Lb0EEELi0EEEDTclsrT0_8__unwrapclsr3stdE7declvalIT_EEEES7_, symObjAddr: 0x39360, symBinAddr: 0x10003A150, symSize: 0x44 }
  - { offsetInCU: 0x2AEDD, offset: 0x2AEDD, size: 0x8, addend: 0x0, symName: __ZNSt3__19make_pairB8ue170006INS_16reverse_iteratorIPcEES3_EENS_4pairINS_18__unwrap_ref_decayIT_E4typeENS5_IT0_E4typeEEEOS6_OS9_, symObjAddr: 0x393A4, symBinAddr: 0x10003A194, symSize: 0x38 }
  - { offsetInCU: 0x2AF2D, offset: 0x2AF2D, size: 0x8, addend: 0x0, symName: __ZNSt3__114__rewrap_rangeB8ue170006INS_16reverse_iteratorIPcEES3_S3_EET0_S4_T1_, symObjAddr: 0x393DC, symBinAddr: 0x10003A1CC, symSize: 0x5C }
  - { offsetInCU: 0x2AF82, offset: 0x2AF82, size: 0x8, addend: 0x0, symName: __ZNSt3__113__rewrap_iterB8ue170006INS_16reverse_iteratorIPcEES3_NS_18__unwrap_iter_implIS3_Lb0EEEEET_S6_T0_, symObjAddr: 0x39438, symBinAddr: 0x10003A228, symSize: 0x74 }
  - { offsetInCU: 0x2B027, offset: 0x2B027, size: 0x8, addend: 0x0, symName: __ZNSt3__1neB8ue170006IPcS1_EEbRKNS_16reverse_iteratorIT_EERKNS2_IT0_EE, symObjAddr: 0x395A0, symBinAddr: 0x10003A390, symSize: 0x48 }
  - { offsetInCU: 0x2B0DE, offset: 0x2B0DE, size: 0x8, addend: 0x0, symName: __ZNSt3__110destroy_atB8ue170006IcLi0EEEvPT_, symObjAddr: 0x39924, symBinAddr: 0x10003A714, symSize: 0x24 }
  - { offsetInCU: 0x2B116, offset: 0x2B116, size: 0x8, addend: 0x0, symName: __ZNSt3__112__destroy_atB8ue170006IcLi0EEEvPT_, symObjAddr: 0x39948, symBinAddr: 0x10003A738, symSize: 0x10 }
  - { offsetInCU: 0x2B14E, offset: 0x2B14E, size: 0x8, addend: 0x0, symName: __ZNSt3__119__allocate_at_leastB8ue170006INS_9allocatorImEEEENS_19__allocation_resultINS_16allocator_traitsIT_E7pointerEEERS5_m, symObjAddr: 0x3EB08, symBinAddr: 0x10003F8F8, symSize: 0x40 }
  - { offsetInCU: 0x2B191, offset: 0x2B191, size: 0x8, addend: 0x0, symName: __ZNSt3__16__copyB8ue170006INS_17_ClassicAlgPolicyENS_14__bit_iteratorINS_6vectorIbNS_9allocatorIbEEEELb0ELm0EEES7_S7_EENS_4pairIT0_T2_EES9_T1_SA_, symObjAddr: 0x3EC70, symBinAddr: 0x10003FA60, symSize: 0x88 }
  - { offsetInCU: 0x2B200, offset: 0x2B200, size: 0x8, addend: 0x0, symName: __ZNSt3__123__dispatch_copy_or_moveB8ue170006INS_17_ClassicAlgPolicyENS_11__copy_loopIS1_EENS_14__copy_trivialENS_14__bit_iteratorINS_6vectorIbNS_9allocatorIbEEEELb0ELm0EEESA_SA_EENS_4pairIT2_T4_EESC_T3_SD_, symObjAddr: 0x3ED90, symBinAddr: 0x10003FB80, symSize: 0x88 }
  - { offsetInCU: 0x2B281, offset: 0x2B281, size: 0x8, addend: 0x0, symName: __ZNSt3__121__unwrap_and_dispatchB8ue170006INS_10__overloadINS_11__copy_loopINS_17_ClassicAlgPolicyEEENS_14__copy_trivialEEENS_14__bit_iteratorINS_6vectorIbNS_9allocatorIbEEEELb0ELm0EEESC_SC_Li0EEENS_4pairIT0_T2_EESE_T1_SF_, symObjAddr: 0x3EE18, symBinAddr: 0x10003FC08, symSize: 0x15C }
  - { offsetInCU: 0x2B314, offset: 0x2B314, size: 0x8, addend: 0x0, symName: __ZNSt3__114__unwrap_rangeB8ue170006INS_14__bit_iteratorINS_6vectorIbNS_9allocatorIbEEEELb0ELm0EEES6_EEDaT_T0_, symObjAddr: 0x3EF74, symBinAddr: 0x10003FD64, symSize: 0x6C }
  - { offsetInCU: 0x2B488, offset: 0x2B488, size: 0x8, addend: 0x0, symName: __ZNSt3__113__unwrap_iterB8ue170006INS_14__bit_iteratorINS_6vectorIbNS_9allocatorIbEEEELb0ELm0EEENS_18__unwrap_iter_implIS6_Lb0EEELi0EEEDTclsrT0_8__unwrapclsr3stdE7declvalIT_EEEESA_, symObjAddr: 0x3F098, symBinAddr: 0x10003FE88, symSize: 0x44 }
  - { offsetInCU: 0x2B4CC, offset: 0x2B4CC, size: 0x8, addend: 0x0, symName: __ZNSt3__19make_pairB8ue170006INS_14__bit_iteratorINS_6vectorIbNS_9allocatorIbEEEELb0ELm0EEES6_EENS_4pairINS_18__unwrap_ref_decayIT_E4typeENS8_IT0_E4typeEEEOS9_OSC_, symObjAddr: 0x3F0DC, symBinAddr: 0x10003FECC, symSize: 0x40 }
  - { offsetInCU: 0x2B51C, offset: 0x2B51C, size: 0x8, addend: 0x0, symName: __ZNSt3__114__rewrap_rangeB8ue170006INS_14__bit_iteratorINS_6vectorIbNS_9allocatorIbEEEELb0ELm0EEES6_S6_EET0_S7_T1_, symObjAddr: 0x3F11C, symBinAddr: 0x10003FF0C, symSize: 0x6C }
  - { offsetInCU: 0x2B573, offset: 0x2B573, size: 0x8, addend: 0x0, symName: __ZNSt3__113__rewrap_iterB8ue170006INS_14__bit_iteratorINS_6vectorIbNS_9allocatorIbEEEELb0ELm0EEES6_NS_18__unwrap_iter_implIS6_Lb0EEEEET_S9_T0_, symObjAddr: 0x3F188, symBinAddr: 0x10003FF78, symSize: 0x74 }
  - { offsetInCU: 0x2B619, offset: 0x2B619, size: 0x8, addend: 0x0, symName: __ZNSt3__1neB8ue170006ERKNS_14__bit_iteratorINS_6vectorIbNS_9allocatorIbEEEELb0ELm0EEES7_, symObjAddr: 0x3F30C, symBinAddr: 0x1000400FC, symSize: 0x34 }
  - { offsetInCU: 0x2B657, offset: 0x2B657, size: 0x8, addend: 0x0, symName: __ZNSt3__1eqB8ue170006ERKNS_14__bit_iteratorINS_6vectorIbNS_9allocatorIbEEEELb0ELm0EEES7_, symObjAddr: 0x3F420, symBinAddr: 0x100040210, symSize: 0x64 }
  - { offsetInCU: 0x2B6DC, offset: 0x2B6DC, size: 0x8, addend: 0x0, symName: __ZNSt3__14swapB8ue170006IPmEENS_9enable_ifIXaasr21is_move_constructibleIT_EE5valuesr18is_move_assignableIS3_EE5valueEvE4typeERS3_S6_, symObjAddr: 0x3F690, symBinAddr: 0x100040480, symSize: 0x3C }
  - { offsetInCU: 0x2B72E, offset: 0x2B72E, size: 0x8, addend: 0x0, symName: __ZNSt3__14swapB8ue170006ImEENS_9enable_ifIXaasr21is_move_constructibleIT_EE5valuesr18is_move_assignableIS2_EE5valueEvE4typeERS2_S5_, symObjAddr: 0x3F6CC, symBinAddr: 0x1000404BC, symSize: 0x3C }
  - { offsetInCU: 0x2B780, offset: 0x2B780, size: 0x8, addend: 0x0, symName: __ZNSt3__116__swap_allocatorB8ue170006INS_9allocatorImEEEEvRT_S4_NS_17integral_constantIbLb0EEE, symObjAddr: 0x3F708, symBinAddr: 0x1000404F8, symSize: 0x14 }
  - { offsetInCU: 0x2B7C5, offset: 0x2B7C5, size: 0x8, addend: 0x0, symName: __ZNSt3__112__to_addressB8ue170006IPN8nlohmann16json_abi_v3_11_310basic_jsonINS_3mapENS_6vectorENS_12basic_stringIcNS_11char_traitsIcEENS_9allocatorIcEEEEbxydS9_NS2_14adl_serializerENS5_IhNS9_IhEEEEvEEEEPT_SI_, symObjAddr: 0x3FC78, symBinAddr: 0x100040A68, symSize: 0x14 }
  - { offsetInCU: 0x2B7FA, offset: 0x2B7FA, size: 0x8, addend: 0x0, symName: __ZNSt3__110destroy_atB8ue170006IPN8nlohmann16json_abi_v3_11_310basic_jsonINS_3mapENS_6vectorENS_12basic_stringIcNS_11char_traitsIcEENS_9allocatorIcEEEEbxydS9_NS2_14adl_serializerENS5_IhNS9_IhEEEEvEELi0EEEvPT_, symObjAddr: 0x3FC8C, symBinAddr: 0x100040A7C, symSize: 0x24 }
  - { offsetInCU: 0x2B832, offset: 0x2B832, size: 0x8, addend: 0x0, symName: __ZNSt3__112__destroy_atB8ue170006IPN8nlohmann16json_abi_v3_11_310basic_jsonINS_3mapENS_6vectorENS_12basic_stringIcNS_11char_traitsIcEENS_9allocatorIcEEEEbxydS9_NS2_14adl_serializerENS5_IhNS9_IhEEEEvEELi0EEEvPT_, symObjAddr: 0x3FCB0, symBinAddr: 0x100040AA0, symSize: 0x10 }
  - { offsetInCU: 0x2B99C, offset: 0x2B99C, size: 0x8, addend: 0x0, symName: __ZNSt3__125__throw_bad_function_callB8ue170006Ev, symObjAddr: 0x4163C, symBinAddr: 0x10004242C, symSize: 0x38 }
  - { offsetInCU: 0x2BA14, offset: 0x2BA14, size: 0x8, addend: 0x0, symName: __ZNSt3__112construct_atB8ue170006IPN8nlohmann16json_abi_v3_11_310basic_jsonINS_3mapENS_6vectorENS_12basic_stringIcNS_11char_traitsIcEENS_9allocatorIcEEEEbxydS9_NS2_14adl_serializerENS5_IhNS9_IhEEEEvEEJRKSG_EPSG_EEPT_SL_DpOT0_, symObjAddr: 0x41CD8, symBinAddr: 0x100042AC8, symSize: 0x2C }
  - { offsetInCU: 0x2BA87, offset: 0x2BA87, size: 0x8, addend: 0x0, symName: __ZNSt3__119__allocate_at_leastB8ue170006INS_9allocatorIPN8nlohmann16json_abi_v3_11_310basic_jsonINS_3mapENS_6vectorENS_12basic_stringIcNS_11char_traitsIcEENS1_IcEEEEbxydS1_NS3_14adl_serializerENS6_IhNS1_IhEEEEvEEEEEENS_19__allocation_resultINS_16allocator_traitsIT_E7pointerEEERSK_m, symObjAddr: 0x4216C, symBinAddr: 0x100042F5C, symSize: 0x40 }
  - { offsetInCU: 0x2BAC9, offset: 0x2BAC9, size: 0x8, addend: 0x0, symName: __ZNSt3__142__uninitialized_allocator_move_if_noexceptB8ue170006INS_9allocatorIPN8nlohmann16json_abi_v3_11_310basic_jsonINS_3mapENS_6vectorENS_12basic_stringIcNS_11char_traitsIcEENS1_IcEEEEbxydS1_NS3_14adl_serializerENS6_IhNS1_IhEEEEvEEEENS_16reverse_iteratorIPSG_EESK_SG_vEET1_RT_T0_SO_SL_, symObjAddr: 0x42320, symBinAddr: 0x100043110, symSize: 0x78 }
  - { offsetInCU: 0x2BB48, offset: 0x2BB48, size: 0x8, addend: 0x0, symName: __ZNSt3__14swapB8ue170006IPPN8nlohmann16json_abi_v3_11_310basic_jsonINS_3mapENS_6vectorENS_12basic_stringIcNS_11char_traitsIcEENS_9allocatorIcEEEEbxydS9_NS2_14adl_serializerENS5_IhNS9_IhEEEEvEEEENS_9enable_ifIXaasr21is_move_constructibleIT_EE5valuesr18is_move_assignableISJ_EE5valueEvE4typeERSJ_SM_, symObjAddr: 0x423E4, symBinAddr: 0x1000431D4, symSize: 0x3C }
  - { offsetInCU: 0x2BB9A, offset: 0x2BB9A, size: 0x8, addend: 0x0, symName: __ZNSt3__14moveB8ue170006INS_16reverse_iteratorIPPN8nlohmann16json_abi_v3_11_310basic_jsonINS_3mapENS_6vectorENS_12basic_stringIcNS_11char_traitsIcEENS_9allocatorIcEEEEbxydSA_NS3_14adl_serializerENS6_IhNSA_IhEEEEvEEEESJ_EET0_T_SL_SK_, symObjAddr: 0x424CC, symBinAddr: 0x1000432BC, symSize: 0x78 }
  - { offsetInCU: 0x2BBF4, offset: 0x2BBF4, size: 0x8, addend: 0x0, symName: __ZNSt3__16__moveB8ue170006INS_17_ClassicAlgPolicyENS_16reverse_iteratorIPPN8nlohmann16json_abi_v3_11_310basic_jsonINS_3mapENS_6vectorENS_12basic_stringIcNS_11char_traitsIcEENS_9allocatorIcEEEEbxydSB_NS4_14adl_serializerENS7_IhNSB_IhEEEEvEEEESK_SK_EENS_4pairIT0_T2_EESM_T1_SN_, symObjAddr: 0x42544, symBinAddr: 0x100043334, symSize: 0x64 }
  - { offsetInCU: 0x2BC60, offset: 0x2BC60, size: 0x8, addend: 0x0, symName: __ZNSt3__123__dispatch_copy_or_moveB8ue170006INS_17_ClassicAlgPolicyENS_11__move_loopIS1_EENS_14__move_trivialENS_16reverse_iteratorIPPN8nlohmann16json_abi_v3_11_310basic_jsonINS_3mapENS_6vectorENS_12basic_stringIcNS_11char_traitsIcEENS_9allocatorIcEEEEbxydSE_NS7_14adl_serializerENSA_IhNSE_IhEEEEvEEEESN_SN_EENS_4pairIT2_T4_EESP_T3_SQ_, symObjAddr: 0x425A8, symBinAddr: 0x100043398, symSize: 0x64 }
  - { offsetInCU: 0x2BCDE, offset: 0x2BCDE, size: 0x8, addend: 0x0, symName: __ZNSt3__121__unwrap_and_dispatchB8ue170006INS_10__overloadINS_11__move_loopINS_17_ClassicAlgPolicyEEENS_14__move_trivialEEENS_16reverse_iteratorIPPN8nlohmann16json_abi_v3_11_310basic_jsonINS_3mapENS_6vectorENS_12basic_stringIcNS_11char_traitsIcEENS_9allocatorIcEEEEbxydSG_NS9_14adl_serializerENSC_IhNSG_IhEEEEvEEEESP_SP_Li0EEENS_4pairIT0_T2_EESR_T1_SS_, symObjAddr: 0x4260C, symBinAddr: 0x1000433FC, symSize: 0x12C }
  - { offsetInCU: 0x2BD6E, offset: 0x2BD6E, size: 0x8, addend: 0x0, symName: __ZNSt3__114__unwrap_rangeB8ue170006INS_16reverse_iteratorIPPN8nlohmann16json_abi_v3_11_310basic_jsonINS_3mapENS_6vectorENS_12basic_stringIcNS_11char_traitsIcEENS_9allocatorIcEEEEbxydSA_NS3_14adl_serializerENS6_IhNSA_IhEEEEvEEEESJ_EEDaT_T0_, symObjAddr: 0x42738, symBinAddr: 0x100043528, symSize: 0x4C }
  - { offsetInCU: 0x2BE8E, offset: 0x2BE8E, size: 0x8, addend: 0x0, symName: __ZNSt3__113__unwrap_iterB8ue170006INS_16reverse_iteratorIPPN8nlohmann16json_abi_v3_11_310basic_jsonINS_3mapENS_6vectorENS_12basic_stringIcNS_11char_traitsIcEENS_9allocatorIcEEEEbxydSA_NS3_14adl_serializerENS6_IhNSA_IhEEEEvEEEENS_18__unwrap_iter_implISJ_Lb0EEELi0EEEDTclsrT0_8__unwrapclsr3stdE7declvalIT_EEEESN_, symObjAddr: 0x42824, symBinAddr: 0x100043614, symSize: 0x44 }
  - { offsetInCU: 0x2BED1, offset: 0x2BED1, size: 0x8, addend: 0x0, symName: __ZNSt3__19make_pairB8ue170006INS_16reverse_iteratorIPPN8nlohmann16json_abi_v3_11_310basic_jsonINS_3mapENS_6vectorENS_12basic_stringIcNS_11char_traitsIcEENS_9allocatorIcEEEEbxydSA_NS3_14adl_serializerENS6_IhNSA_IhEEEEvEEEESJ_EENS_4pairINS_18__unwrap_ref_decayIT_E4typeENSL_IT0_E4typeEEEOSM_OSP_, symObjAddr: 0x42868, symBinAddr: 0x100043658, symSize: 0x38 }
  - { offsetInCU: 0x2BF21, offset: 0x2BF21, size: 0x8, addend: 0x0, symName: __ZNSt3__114__rewrap_rangeB8ue170006INS_16reverse_iteratorIPPN8nlohmann16json_abi_v3_11_310basic_jsonINS_3mapENS_6vectorENS_12basic_stringIcNS_11char_traitsIcEENS_9allocatorIcEEEEbxydSA_NS3_14adl_serializerENS6_IhNSA_IhEEEEvEEEESJ_SJ_EET0_SK_T1_, symObjAddr: 0x428A0, symBinAddr: 0x100043690, symSize: 0x5C }
  - { offsetInCU: 0x2BF76, offset: 0x2BF76, size: 0x8, addend: 0x0, symName: __ZNSt3__113__rewrap_iterB8ue170006INS_16reverse_iteratorIPPN8nlohmann16json_abi_v3_11_310basic_jsonINS_3mapENS_6vectorENS_12basic_stringIcNS_11char_traitsIcEENS_9allocatorIcEEEEbxydSA_NS3_14adl_serializerENS6_IhNSA_IhEEEEvEEEESJ_NS_18__unwrap_iter_implISJ_Lb0EEEEET_SM_T0_, symObjAddr: 0x428FC, symBinAddr: 0x1000436EC, symSize: 0x74 }
  - { offsetInCU: 0x2C01B, offset: 0x2C01B, size: 0x8, addend: 0x0, symName: __ZNSt3__1neB8ue170006IPPN8nlohmann16json_abi_v3_11_310basic_jsonINS_3mapENS_6vectorENS_12basic_stringIcNS_11char_traitsIcEENS_9allocatorIcEEEEbxydS9_NS2_14adl_serializerENS5_IhNS9_IhEEEEvEESH_EEbRKNS_16reverse_iteratorIT_EERKNSI_IT0_EE, symObjAddr: 0x42A64, symBinAddr: 0x100043854, symSize: 0x48 }
  - { offsetInCU: 0x2C0D3, offset: 0x2C0D3, size: 0x8, addend: 0x0, symName: __ZNSt3__1neB8ue170006IPN8nlohmann16json_abi_v3_11_310basic_jsonINS_3mapENS_6vectorENS_12basic_stringIcNS_11char_traitsIcEENS_9allocatorIcEEEEbxydS9_NS2_14adl_serializerENS5_IhNS9_IhEEEEvEEEEbRKNS_11__wrap_iterIT_EESL_, symObjAddr: 0x43904, symBinAddr: 0x1000446F4, symSize: 0x34 }
  - { offsetInCU: 0x2C149, offset: 0x2C149, size: 0x8, addend: 0x0, symName: __ZNSt3__1eqB8ue170006IPN8nlohmann16json_abi_v3_11_310basic_jsonINS_3mapENS_6vectorENS_12basic_stringIcNS_11char_traitsIcEENS_9allocatorIcEEEEbxydS9_NS2_14adl_serializerENS5_IhNS9_IhEEEEvEEEEbRKNS_11__wrap_iterIT_EESL_, symObjAddr: 0x43AE4, symBinAddr: 0x1000448D4, symSize: 0x48 }
  - { offsetInCU: 0x2C1A9, offset: 0x2C1A9, size: 0x8, addend: 0x0, symName: __ZNSt3__113__tree_removeB8ue170006IPNS_16__tree_node_baseIPvEEEEvT_S5_, symObjAddr: 0x44114, symBinAddr: 0x100044F04, symSize: 0x6E0 }
  - { offsetInCU: 0x2C228, offset: 0x2C228, size: 0x8, addend: 0x0, symName: __ZNSt3__111__tree_nextB8ue170006IPNS_16__tree_node_baseIPvEEEET_S5_, symObjAddr: 0x447F4, symBinAddr: 0x1000455E4, symSize: 0x80 }
  - { offsetInCU: 0x2C25D, offset: 0x2C25D, size: 0x8, addend: 0x0, symName: __ZNSt3__1miB8ue170006IPKN8nlohmann16json_abi_v3_11_310basic_jsonINS_3mapENS_6vectorENS_12basic_stringIcNS_11char_traitsIcEENS_9allocatorIcEEEEbxydS9_NS2_14adl_serializerENS5_IhNS9_IhEEEEvEESH_EEDTmicldtfp_4baseEcldtfp0_4baseEERKNS_11__wrap_iterIT_EERKNSJ_IT0_EE, symObjAddr: 0x44894, symBinAddr: 0x100045684, symSize: 0x48 }
  - { offsetInCU: 0x2C2A9, offset: 0x2C2A9, size: 0x8, addend: 0x0, symName: __ZNSt3__14moveB8ue170006IPN8nlohmann16json_abi_v3_11_310basic_jsonINS_3mapENS_6vectorENS_12basic_stringIcNS_11char_traitsIcEENS_9allocatorIcEEEEbxydS9_NS2_14adl_serializerENS5_IhNS9_IhEEEEvEESG_EET0_T_SI_SH_, symObjAddr: 0x44908, symBinAddr: 0x1000456F8, symSize: 0x40 }
  - { offsetInCU: 0x2C303, offset: 0x2C303, size: 0x8, addend: 0x0, symName: __ZNSt3__16__moveB8ue170006INS_17_ClassicAlgPolicyEPN8nlohmann16json_abi_v3_11_310basic_jsonINS_3mapENS_6vectorENS_12basic_stringIcNS_11char_traitsIcEENS_9allocatorIcEEEEbxydSA_NS3_14adl_serializerENS6_IhNSA_IhEEEEvEESH_SH_EENS_4pairIT0_T2_EESJ_T1_SK_, symObjAddr: 0x44A14, symBinAddr: 0x100045804, symSize: 0x44 }
  - { offsetInCU: 0x2C36F, offset: 0x2C36F, size: 0x8, addend: 0x0, symName: __ZNSt3__123__dispatch_copy_or_moveB8ue170006INS_17_ClassicAlgPolicyENS_11__move_loopIS1_EENS_14__move_trivialEPN8nlohmann16json_abi_v3_11_310basic_jsonINS_3mapENS_6vectorENS_12basic_stringIcNS_11char_traitsIcEENS_9allocatorIcEEEEbxydSD_NS6_14adl_serializerENS9_IhNSD_IhEEEEvEESK_SK_EENS_4pairIT2_T4_EESM_T3_SN_, symObjAddr: 0x44A58, symBinAddr: 0x100045848, symSize: 0x44 }
  - { offsetInCU: 0x2C3ED, offset: 0x2C3ED, size: 0x8, addend: 0x0, symName: __ZNSt3__121__unwrap_and_dispatchB8ue170006INS_10__overloadINS_11__move_loopINS_17_ClassicAlgPolicyEEENS_14__move_trivialEEEPN8nlohmann16json_abi_v3_11_310basic_jsonINS_3mapENS_6vectorENS_12basic_stringIcNS_11char_traitsIcEENS_9allocatorIcEEEEbxydSF_NS8_14adl_serializerENSB_IhNSF_IhEEEEvEESM_SM_Li0EEENS_4pairIT0_T2_EESO_T1_SP_, symObjAddr: 0x44A9C, symBinAddr: 0x10004588C, symSize: 0xB4 }
  - { offsetInCU: 0x2C47B, offset: 0x2C47B, size: 0x8, addend: 0x0, symName: __ZNSt3__114__unwrap_rangeB8ue170006IPN8nlohmann16json_abi_v3_11_310basic_jsonINS_3mapENS_6vectorENS_12basic_stringIcNS_11char_traitsIcEENS_9allocatorIcEEEEbxydS9_NS2_14adl_serializerENS5_IhNS9_IhEEEEvEESG_EEDaT_T0_, symObjAddr: 0x44B50, symBinAddr: 0x100045940, symSize: 0x3C }
  - { offsetInCU: 0x2C4C6, offset: 0x2C4C6, size: 0x8, addend: 0x0, symName: __ZNSt3__19make_pairB8ue170006IPN8nlohmann16json_abi_v3_11_310basic_jsonINS_3mapENS_6vectorENS_12basic_stringIcNS_11char_traitsIcEENS_9allocatorIcEEEEbxydS9_NS2_14adl_serializerENS5_IhNS9_IhEEEEvEESG_EENS_4pairINS_18__unwrap_ref_decayIT_E4typeENSI_IT0_E4typeEEEOSJ_OSM_, symObjAddr: 0x44C34, symBinAddr: 0x100045A24, symSize: 0x38 }
  - { offsetInCU: 0x2C516, offset: 0x2C516, size: 0x8, addend: 0x0, symName: __ZNSt3__114__rewrap_rangeB8ue170006IPN8nlohmann16json_abi_v3_11_310basic_jsonINS_3mapENS_6vectorENS_12basic_stringIcNS_11char_traitsIcEENS_9allocatorIcEEEEbxydS9_NS2_14adl_serializerENS5_IhNS9_IhEEEEvEESG_SG_EET0_SH_T1_, symObjAddr: 0x44C6C, symBinAddr: 0x100045A5C, symSize: 0x2C }
  - { offsetInCU: 0x2C5F1, offset: 0x2C5F1, size: 0x8, addend: 0x0, symName: __ZNSt3__116forward_as_tupleB8ue170006IJRKNS_12basic_stringIcNS_11char_traitsIcEENS_9allocatorIcEEEEEEENS_5tupleIJDpOT_EEESC_, symObjAddr: 0x4506C, symBinAddr: 0x100045E5C, symSize: 0x2C }
  - { offsetInCU: 0x2C62B, offset: 0x2C62B, size: 0x8, addend: 0x0, symName: __ZNSt3__116forward_as_tupleB8ue170006IJEEENS_5tupleIJDpOT_EEES4_, symObjAddr: 0x45098, symBinAddr: 0x100045E88, symSize: 0x4 }
  - { offsetInCU: 0x2C64F, offset: 0x2C64F, size: 0x8, addend: 0x0, symName: __ZNSt3__112construct_atB8ue170006INS_4pairIKNS_12basic_stringIcNS_11char_traitsIcEENS_9allocatorIcEEEEN8nlohmann16json_abi_v3_11_310basic_jsonINS_3mapENS_6vectorES7_bxydS5_NSA_14adl_serializerENSD_IhNS5_IhEEEEvEEEEJRKNS_21piecewise_construct_tENS_5tupleIJRS8_EEENSM_IJEEEEPSI_EEPT_SS_DpOT0_, symObjAddr: 0x451F4, symBinAddr: 0x100045FE4, symSize: 0x50 }
  - { offsetInCU: 0x2C6F2, offset: 0x2C6F2, size: 0x8, addend: 0x0, symName: __ZNSt3__13getB8ue170006ILm0EJRKNS_12basic_stringIcNS_11char_traitsIcEENS_9allocatorIcEEEEEEERNS_13tuple_elementIXT_ENS_5tupleIJDpT0_EEEE4typeERSD_, symObjAddr: 0x45310, symBinAddr: 0x100046100, symSize: 0x24 }
  - { offsetInCU: 0x2C75A, offset: 0x2C75A, size: 0x8, addend: 0x0, symName: __ZNSt3__1neB8ue170006IPKcEEbRKNS_11__wrap_iterIT_EES7_, symObjAddr: 0x47C50, symBinAddr: 0x100048A40, symSize: 0x34 }
  - { offsetInCU: 0x2CA65, offset: 0x2CA65, size: 0x8, addend: 0x0, symName: __ZNSt3__1eqB8ue170006IPKcEEbRKNS_11__wrap_iterIT_EES7_, symObjAddr: 0x47D94, symBinAddr: 0x100048B84, symSize: 0x48 }
  - { offsetInCU: 0x2CAA8, offset: 0x2CAA8, size: 0x8, addend: 0x0, symName: __ZNSt3__14swapB8ue170006IN8nlohmann16json_abi_v3_11_36detail7value_tEEENS_9enable_ifIXaasr21is_move_constructibleIT_EE5valuesr18is_move_assignableIS6_EE5valueEvE4typeERS6_S9_, symObjAddr: 0x48B78, symBinAddr: 0x100049968, symSize: 0x3C }
  - { offsetInCU: 0x2CAFA, offset: 0x2CAFA, size: 0x8, addend: 0x0, symName: __ZNSt3__14swapB8ue170006IN8nlohmann16json_abi_v3_11_310basic_jsonINS_3mapENS_6vectorENS_12basic_stringIcNS_11char_traitsIcEENS_9allocatorIcEEEEbxydS9_NS2_14adl_serializerENS5_IhNS9_IhEEEEvE10json_valueEEENS_9enable_ifIXaasr21is_move_constructibleIT_EE5valuesr18is_move_assignableISI_EE5valueEvE4typeERSI_SL_, symObjAddr: 0x48BB4, symBinAddr: 0x1000499A4, symSize: 0x3C }
  - { offsetInCU: 0x2CB4C, offset: 0x2CB4C, size: 0x8, addend: 0x0, symName: __ZNSt3__112construct_atB8ue170006IPN8nlohmann16json_abi_v3_11_310basic_jsonINS_3mapENS_6vectorENS_12basic_stringIcNS_11char_traitsIcEENS_9allocatorIcEEEEbxydS9_NS2_14adl_serializerENS5_IhNS9_IhEEEEvEEJSG_EPSG_EEPT_SJ_DpOT0_, symObjAddr: 0x49810, symBinAddr: 0x10004A600, symSize: 0x2C }
  - { offsetInCU: 0x2CBBF, offset: 0x2CBBF, size: 0x8, addend: 0x0, symName: __ZNSt3__112construct_atB8ue170006IN8nlohmann16json_abi_v3_11_310basic_jsonINS_3mapENS_6vectorENS_12basic_stringIcNS_11char_traitsIcEENS_9allocatorIcEEEEbxydS9_NS2_14adl_serializerENS5_IhNS9_IhEEEEvEEJNS2_6detail7value_tEEPSF_EEPT_SK_DpOT0_, symObjAddr: 0x49A48, symBinAddr: 0x10004A838, symSize: 0x40 }
  - { offsetInCU: 0x2CC31, offset: 0x2CC31, size: 0x8, addend: 0x0, symName: __ZNSt3__112construct_atB8ue170006IN8nlohmann16json_abi_v3_11_310basic_jsonINS_3mapENS_6vectorENS_12basic_stringIcNS_11char_traitsIcEENS_9allocatorIcEEEEbxydS9_NS2_14adl_serializerENS5_IhNS9_IhEEEEvEEJRdEPSF_EEPT_SJ_DpOT0_, symObjAddr: 0x49E84, symBinAddr: 0x10004AC74, symSize: 0x3C }
  - { offsetInCU: 0x2CCA3, offset: 0x2CCA3, size: 0x8, addend: 0x0, symName: __ZNSt3__112construct_atB8ue170006IN8nlohmann16json_abi_v3_11_310basic_jsonINS_3mapENS_6vectorENS_12basic_stringIcNS_11char_traitsIcEENS_9allocatorIcEEEEbxydS9_NS2_14adl_serializerENS5_IhNS9_IhEEEEvEEJRbEPSF_EEPT_SJ_DpOT0_, symObjAddr: 0x4A2BC, symBinAddr: 0x10004B0AC, symSize: 0x3C }
  - { offsetInCU: 0x2CD15, offset: 0x2CD15, size: 0x8, addend: 0x0, symName: __ZNSt3__112construct_atB8ue170006IN8nlohmann16json_abi_v3_11_310basic_jsonINS_3mapENS_6vectorENS_12basic_stringIcNS_11char_traitsIcEENS_9allocatorIcEEEEbxydS9_NS2_14adl_serializerENS5_IhNS9_IhEEEEvEEJDnEPSF_EEPT_SI_DpOT0_, symObjAddr: 0x4A6F4, symBinAddr: 0x10004B4E4, symSize: 0x3C }
  - { offsetInCU: 0x2CD87, offset: 0x2CD87, size: 0x8, addend: 0x0, symName: __ZNSt3__112construct_atB8ue170006IN8nlohmann16json_abi_v3_11_310basic_jsonINS_3mapENS_6vectorENS_12basic_stringIcNS_11char_traitsIcEENS_9allocatorIcEEEEbxydS9_NS2_14adl_serializerENS5_IhNS9_IhEEEEvEEJRxEPSF_EEPT_SJ_DpOT0_, symObjAddr: 0x4AB2C, symBinAddr: 0x10004B91C, symSize: 0x3C }
  - { offsetInCU: 0x2CDF9, offset: 0x2CDF9, size: 0x8, addend: 0x0, symName: __ZNSt3__112construct_atB8ue170006IN8nlohmann16json_abi_v3_11_310basic_jsonINS_3mapENS_6vectorENS_12basic_stringIcNS_11char_traitsIcEENS_9allocatorIcEEEEbxydS9_NS2_14adl_serializerENS5_IhNS9_IhEEEEvEEJRSB_EPSF_EEPT_SJ_DpOT0_, symObjAddr: 0x4AF64, symBinAddr: 0x10004BD54, symSize: 0x3C }
  - { offsetInCU: 0x2CE6B, offset: 0x2CE6B, size: 0x8, addend: 0x0, symName: __ZNSt3__112construct_atB8ue170006IN8nlohmann16json_abi_v3_11_310basic_jsonINS_3mapENS_6vectorENS_12basic_stringIcNS_11char_traitsIcEENS_9allocatorIcEEEEbxydS9_NS2_14adl_serializerENS5_IhNS9_IhEEEEvEEJRyEPSF_EEPT_SJ_DpOT0_, symObjAddr: 0x4B39C, symBinAddr: 0x10004C18C, symSize: 0x3C }
  - { offsetInCU: 0x2CEDC, offset: 0x2CEDC, size: 0x8, addend: 0x0, symName: __ZNSt3__1eqB8ue170006ERKNS_14__map_iteratorINS_15__tree_iteratorINS_12__value_typeINS_12basic_stringIcNS_11char_traitsIcEENS_9allocatorIcEEEEN8nlohmann16json_abi_v3_11_310basic_jsonINS_3mapENS_6vectorES8_bxydS6_NSA_14adl_serializerENSD_IhNS6_IhEEEEvEEEEPNS_11__tree_nodeISI_PvEElEEEESQ_, symObjAddr: 0x4BD90, symBinAddr: 0x10004CB80, symSize: 0x30 }
  - { offsetInCU: 0x2CF1A, offset: 0x2CF1A, size: 0x8, addend: 0x0, symName: __ZNSt3__121__convert_to_integralB8ue170006Ei, symObjAddr: 0x4BE88, symBinAddr: 0x10004CC78, symSize: 0x14 }
  - { offsetInCU: 0x2CF46, offset: 0x2CF46, size: 0x8, addend: 0x0, symName: __ZNSt3__19__advanceB8ue170006INS_14__map_iteratorINS_15__tree_iteratorINS_12__value_typeINS_12basic_stringIcNS_11char_traitsIcEENS_9allocatorIcEEEEN8nlohmann16json_abi_v3_11_310basic_jsonINS_3mapENS_6vectorES9_bxydS7_NSB_14adl_serializerENSE_IhNS7_IhEEEEvEEEEPNS_11__tree_nodeISJ_PvEElEEEEEEvRT_NS_15iterator_traitsISQ_E15difference_typeENS_26bidirectional_iterator_tagE, symObjAddr: 0x4BE9C, symBinAddr: 0x10004CC8C, symSize: 0xA4 }
  - { offsetInCU: 0x2CF91, offset: 0x2CF91, size: 0x8, addend: 0x0, symName: __ZNSt3__116__tree_prev_iterB8ue170006IPNS_16__tree_node_baseIPvEEPNS_15__tree_end_nodeIS4_EEEET_T0_, symObjAddr: 0x4BFA4, symBinAddr: 0x10004CD94, symSize: 0x88 }
  - { offsetInCU: 0x2CFDD, offset: 0x2CFDD, size: 0x8, addend: 0x0, symName: __ZNSt3__110__tree_maxB8ue170006IPNS_16__tree_node_baseIPvEEEET_S5_, symObjAddr: 0x4C02C, symBinAddr: 0x10004CE1C, symSize: 0x40 }
  - { offsetInCU: 0x2D012, offset: 0x2D012, size: 0x8, addend: 0x0, symName: __ZNSt3__19__advanceB8ue170006INS_11__wrap_iterIPN8nlohmann16json_abi_v3_11_310basic_jsonINS_3mapENS_6vectorENS_12basic_stringIcNS_11char_traitsIcEENS_9allocatorIcEEEEbxydSA_NS3_14adl_serializerENS6_IhNSA_IhEEEEvEEEEEEvRT_NS_15iterator_traitsISJ_E15difference_typeENS_26random_access_iterator_tagE, symObjAddr: 0x4C06C, symBinAddr: 0x10004CE5C, symSize: 0x2C }
  - { offsetInCU: 0x2D05D, offset: 0x2D05D, size: 0x8, addend: 0x0, symName: __ZNSt3__112construct_atB8ue170006I11TransactionJS1_EPS1_EEPT_S4_DpOT0_, symObjAddr: 0x4D0F8, symBinAddr: 0x10004DEE8, symSize: 0x3C }
  - { offsetInCU: 0x2D0CE, offset: 0x2D0CE, size: 0x8, addend: 0x0, symName: __ZNSt3__1neB8ue170006ERKNS_21__list_const_iteratorI11TransactionPvEES5_, symObjAddr: 0x4DBD4, symBinAddr: 0x10004E9C4, symSize: 0x34 }
  - { offsetInCU: 0x2D10C, offset: 0x2D10C, size: 0x8, addend: 0x0, symName: __ZNSt3__1eqB8ue170006ERKNS_21__list_const_iteratorI11TransactionPvEES5_, symObjAddr: 0x4DDDC, symBinAddr: 0x10004EBCC, symSize: 0x30 }
  - { offsetInCU: 0x2D149, offset: 0x2D149, size: 0x8, addend: 0x0, symName: __ZNSt3__112construct_atB8ue170006IN8nlohmann16json_abi_v3_11_310basic_jsonINS_3mapENS_6vectorENS_12basic_stringIcNS_11char_traitsIcEENS_9allocatorIcEEEEbxydS9_NS2_14adl_serializerENS5_IhNS9_IhEEEEvEEJRKSF_EPSF_EEPT_SK_DpOT0_, symObjAddr: 0x4E178, symBinAddr: 0x10004EF68, symSize: 0x3C }
  - { offsetInCU: 0x2D1BA, offset: 0x2D1BA, size: 0x8, addend: 0x0, symName: __ZNSt3__1neB8ue170006ERKNS_21__list_const_iteratorINS_4listI11TransactionNS_9allocatorIS2_EEEEPvEES9_, symObjAddr: 0x4E3AC, symBinAddr: 0x10004F19C, symSize: 0x34 }
  - { offsetInCU: 0x2D1F8, offset: 0x2D1F8, size: 0x8, addend: 0x0, symName: __ZNSt3__1eqB8ue170006ERKNS_21__list_const_iteratorINS_4listI11TransactionNS_9allocatorIS2_EEEEPvEES9_, symObjAddr: 0x4E5B4, symBinAddr: 0x10004F3A4, symSize: 0x30 }
  - { offsetInCU: 0x2D574, offset: 0x2D574, size: 0x8, addend: 0x0, symName: __ZNSt3__1eqB8ue170006INS_3mapINS_12basic_stringIcNS_11char_traitsIcEENS_9allocatorIcEEEEN8nlohmann16json_abi_v3_11_310basic_jsonIS1_NS_6vectorES7_bxydS5_NS9_14adl_serializerENSB_IhNS5_IhEEEEvEENS_4lessIvEENS5_INS_4pairIKS7_SF_EEEEEEZNSF_6createISM_JRKSM_EEEPT_DpOT0_EUlPSM_E_EEbRKNS_10unique_ptrISQ_T0_EEDn, symObjAddr: 0x4EA64, symBinAddr: 0x10004F854, symSize: 0x30 }
  - { offsetInCU: 0x2D5C1, offset: 0x2D5C1, size: 0x8, addend: 0x0, symName: __ZNSt3__112construct_atB8ue170006INS_3mapINS_12basic_stringIcNS_11char_traitsIcEENS_9allocatorIcEEEEN8nlohmann16json_abi_v3_11_310basic_jsonIS1_NS_6vectorES7_bxydS5_NS9_14adl_serializerENSB_IhNS5_IhEEEEvEENS_4lessIvEENS5_INS_4pairIKS7_SF_EEEEEEJRKSM_EPSM_EEPT_SR_DpOT0_, symObjAddr: 0x4EBF4, symBinAddr: 0x10004F9E4, symSize: 0x3C }
  - { offsetInCU: 0x2D632, offset: 0x2D632, size: 0x8, addend: 0x0, symName: __ZNSt3__1neB8ue170006ERKNS_20__map_const_iteratorINS_21__tree_const_iteratorINS_12__value_typeINS_12basic_stringIcNS_11char_traitsIcEENS_9allocatorIcEEEEN8nlohmann16json_abi_v3_11_310basic_jsonINS_3mapENS_6vectorES8_bxydS6_NSA_14adl_serializerENSD_IhNS6_IhEEEEvEEEEPNS_11__tree_nodeISI_PvEElEEEESQ_, symObjAddr: 0x4F014, symBinAddr: 0x10004FE04, symSize: 0x30 }
  - { offsetInCU: 0x2D66F, offset: 0x2D66F, size: 0x8, addend: 0x0, symName: __ZNSt3__1neB8ue170006ERKNS_21__tree_const_iteratorINS_12__value_typeINS_12basic_stringIcNS_11char_traitsIcEENS_9allocatorIcEEEEN8nlohmann16json_abi_v3_11_310basic_jsonINS_3mapENS_6vectorES7_bxydS5_NS9_14adl_serializerENSC_IhNS5_IhEEEEvEEEEPNS_11__tree_nodeISH_PvEElEESO_, symObjAddr: 0x4F11C, symBinAddr: 0x10004FF0C, symSize: 0x34 }
  - { offsetInCU: 0x2D6AD, offset: 0x2D6AD, size: 0x8, addend: 0x0, symName: __ZNSt3__1eqB8ue170006ERKNS_21__tree_const_iteratorINS_12__value_typeINS_12basic_stringIcNS_11char_traitsIcEENS_9allocatorIcEEEEN8nlohmann16json_abi_v3_11_310basic_jsonINS_3mapENS_6vectorES7_bxydS5_NS9_14adl_serializerENSC_IhNS5_IhEEEEvEEEEPNS_11__tree_nodeISH_PvEElEESO_, symObjAddr: 0x4F150, symBinAddr: 0x10004FF40, symSize: 0x30 }
  - { offsetInCU: 0x2D70E, offset: 0x2D70E, size: 0x8, addend: 0x0, symName: __ZNSt3__14nextB8ue170006INS_21__tree_const_iteratorINS_12__value_typeINS_12basic_stringIcNS_11char_traitsIcEENS_9allocatorIcEEEEN8nlohmann16json_abi_v3_11_310basic_jsonINS_3mapENS_6vectorES8_bxydS6_NSA_14adl_serializerENSD_IhNS6_IhEEEEvEEEEPNS_11__tree_nodeISI_PvEElEEEENS_9enable_ifIXsr29__has_input_iterator_categoryIT_EE5valueESP_E4typeESP_NS_15iterator_traitsISP_E15difference_typeE, symObjAddr: 0x4F740, symBinAddr: 0x100050530, symSize: 0x3C }
  - { offsetInCU: 0x2D750, offset: 0x2D750, size: 0x8, addend: 0x0, symName: __ZNSt3__19__advanceB8ue170006INS_21__tree_const_iteratorINS_12__value_typeINS_12basic_stringIcNS_11char_traitsIcEENS_9allocatorIcEEEEN8nlohmann16json_abi_v3_11_310basic_jsonINS_3mapENS_6vectorES8_bxydS6_NSA_14adl_serializerENSD_IhNS6_IhEEEEvEEEEPNS_11__tree_nodeISI_PvEElEEEEvRT_NS_15iterator_traitsISO_E15difference_typeENS_26bidirectional_iterator_tagE, symObjAddr: 0x4F7B4, symBinAddr: 0x1000505A4, symSize: 0xA4 }
  - { offsetInCU: 0x2D79B, offset: 0x2D79B, size: 0x8, addend: 0x0, symName: __ZNSt3__112construct_atB8ue170006INS_4pairIKNS_12basic_stringIcNS_11char_traitsIcEENS_9allocatorIcEEEEN8nlohmann16json_abi_v3_11_310basic_jsonINS_3mapENS_6vectorES7_bxydS5_NSA_14adl_serializerENSD_IhNS5_IhEEEEvEEEEJRKSI_EPSI_EEPT_SN_DpOT0_, symObjAddr: 0x4F8C0, symBinAddr: 0x1000506B0, symSize: 0x3C }
  - { offsetInCU: 0x2DB7F, offset: 0x2DB7F, size: 0x8, addend: 0x0, symName: __ZNSt3__1eqB8ue170006INS_6vectorIN8nlohmann16json_abi_v3_11_310basic_jsonINS_3mapES1_NS_12basic_stringIcNS_11char_traitsIcEENS_9allocatorIcEEEEbxydS9_NS3_14adl_serializerENS1_IhNS9_IhEEEEvEENS9_ISF_EEEEZNSF_6createISH_JRKSH_EEEPT_DpOT0_EUlPSH_E_EEbRKNS_10unique_ptrISL_T0_EEDn, symObjAddr: 0x4FE30, symBinAddr: 0x100050C20, symSize: 0x30 }
  - { offsetInCU: 0x2DBCC, offset: 0x2DBCC, size: 0x8, addend: 0x0, symName: __ZNSt3__112construct_atB8ue170006INS_6vectorIN8nlohmann16json_abi_v3_11_310basic_jsonINS_3mapES1_NS_12basic_stringIcNS_11char_traitsIcEENS_9allocatorIcEEEEbxydS9_NS3_14adl_serializerENS1_IhNS9_IhEEEEvEENS9_ISF_EEEEJRKSH_EPSH_EEPT_SM_DpOT0_, symObjAddr: 0x4FFC0, symBinAddr: 0x100050DB0, symSize: 0x3C }
  - { offsetInCU: 0x2DC3D, offset: 0x2DC3D, size: 0x8, addend: 0x0, symName: __ZNSt3__130__uninitialized_allocator_copyB8ue170006INS_9allocatorIN8nlohmann16json_abi_v3_11_310basic_jsonINS_3mapENS_6vectorENS_12basic_stringIcNS_11char_traitsIcEENS1_IcEEEEbxydS1_NS3_14adl_serializerENS6_IhNS1_IhEEEEvEEEEPSF_SH_SH_EET2_RT_T0_T1_SI_, symObjAddr: 0x502B0, symBinAddr: 0x1000510A0, symSize: 0x80 }
  - { offsetInCU: 0x2DCDA, offset: 0x2DCDA, size: 0x8, addend: 0x0, symName: __ZNSt3__135__uninitialized_allocator_copy_implB8ue170006INS_9allocatorIN8nlohmann16json_abi_v3_11_310basic_jsonINS_3mapENS_6vectorENS_12basic_stringIcNS_11char_traitsIcEENS1_IcEEEEbxydS1_NS3_14adl_serializerENS6_IhNS1_IhEEEEvEEEEPSF_SH_SH_EET2_RT_T0_T1_SI_, symObjAddr: 0x50330, symBinAddr: 0x100051120, symSize: 0xF4 }
  - { offsetInCU: 0x2DD79, offset: 0x2DD79, size: 0x8, addend: 0x0, symName: __ZNSt3__112construct_atB8ue170006IN8nlohmann16json_abi_v3_11_310basic_jsonINS_3mapENS_6vectorENS_12basic_stringIcNS_11char_traitsIcEENS_9allocatorIcEEEEbxydS9_NS2_14adl_serializerENS5_IhNS9_IhEEEEvEEJRSF_EPSF_EEPT_SJ_DpOT0_, symObjAddr: 0x50454, symBinAddr: 0x100051244, symSize: 0x3C }
  - { offsetInCU: 0x2E12A, offset: 0x2E12A, size: 0x8, addend: 0x0, symName: __ZNSt3__1eqB8ue170006IN8nlohmann16json_abi_v3_11_327byte_container_with_subtypeINS_6vectorIhNS_9allocatorIhEEEEEEZNS2_10basic_jsonINS_3mapES4_NS_12basic_stringIcNS_11char_traitsIcEENS5_IcEEEEbxydS5_NS2_14adl_serializerES7_vE6createIS8_JRKS8_EEEPT_DpOT0_EUlPS8_E_EEbRKNS_10unique_ptrISL_T0_EEDn, symObjAddr: 0x507F0, symBinAddr: 0x1000515E0, symSize: 0x30 }
  - { offsetInCU: 0x2E177, offset: 0x2E177, size: 0x8, addend: 0x0, symName: __ZNSt3__112construct_atB8ue170006IN8nlohmann16json_abi_v3_11_327byte_container_with_subtypeINS_6vectorIhNS_9allocatorIhEEEEEEJRKS8_EPS8_EEPT_SD_DpOT0_, symObjAddr: 0x50980, symBinAddr: 0x100051770, symSize: 0x3C }
  - { offsetInCU: 0x2E1E9, offset: 0x2E1E9, size: 0x8, addend: 0x0, symName: __ZNSt3__122__make_exception_guardB8ue170006INS_6vectorIhNS_9allocatorIhEEE16__destroy_vectorEEENS_28__exception_guard_exceptionsIT_EES7_, symObjAddr: 0x50C8C, symBinAddr: 0x100051A7C, symSize: 0x40 }
  - { offsetInCU: 0x2E21E, offset: 0x2E21E, size: 0x8, addend: 0x0, symName: __ZNSt3__119__allocate_at_leastB8ue170006INS_9allocatorIhEEEENS_19__allocation_resultINS_16allocator_traitsIT_E7pointerEEERS5_m, symObjAddr: 0x50F20, symBinAddr: 0x100051D10, symSize: 0x40 }
  - { offsetInCU: 0x2E260, offset: 0x2E260, size: 0x8, addend: 0x0, symName: __ZNSt3__130__uninitialized_allocator_copyB8ue170006INS_9allocatorIhEEPhS3_S3_EET2_RT_T0_T1_S4_, symObjAddr: 0x51128, symBinAddr: 0x100051F18, symSize: 0x80 }
  - { offsetInCU: 0x2E2FE, offset: 0x2E2FE, size: 0x8, addend: 0x0, symName: __ZNSt3__114__unwrap_rangeB8ue170006IPhS1_EEDaT_T0_, symObjAddr: 0x51218, symBinAddr: 0x100052008, symSize: 0x3C }
  - { offsetInCU: 0x2E349, offset: 0x2E349, size: 0x8, addend: 0x0, symName: __ZNSt3__135__uninitialized_allocator_copy_implB8ue170006INS_9allocatorIhEEhhhLPv0EEEPT2_RT_PT0_S9_S5_, symObjAddr: 0x51254, symBinAddr: 0x100052044, symSize: 0x38 }
  - { offsetInCU: 0x2E3CC, offset: 0x2E3CC, size: 0x8, addend: 0x0, symName: __ZNSt3__113__unwrap_iterB8ue170006IPhNS_18__unwrap_iter_implIS1_Lb1EEELi0EEEDTclsrT0_8__unwrapclsr3stdE7declvalIT_EEEES5_, symObjAddr: 0x5128C, symBinAddr: 0x10005207C, symSize: 0x24 }
  - { offsetInCU: 0x2E410, offset: 0x2E410, size: 0x8, addend: 0x0, symName: __ZNSt3__113__rewrap_iterB8ue170006IPhS1_NS_18__unwrap_iter_implIS1_Lb1EEEEET_S4_T0_, symObjAddr: 0x512B0, symBinAddr: 0x1000520A0, symSize: 0x3C }
  - { offsetInCU: 0x2E5B0, offset: 0x2E5B0, size: 0x8, addend: 0x0, symName: __ZNSt3__14copyB8ue170006IPhS1_EET0_T_S3_S2_, symObjAddr: 0x513B4, symBinAddr: 0x1000521A4, symSize: 0x40 }
  - { offsetInCU: 0x2E60A, offset: 0x2E60A, size: 0x8, addend: 0x0, symName: __ZNSt3__16__copyB8ue170006INS_17_ClassicAlgPolicyEPhS2_S2_EENS_4pairIT0_T2_EES4_T1_S5_, symObjAddr: 0x513F4, symBinAddr: 0x1000521E4, symSize: 0x44 }
  - { offsetInCU: 0x2E676, offset: 0x2E676, size: 0x8, addend: 0x0, symName: __ZNSt3__123__dispatch_copy_or_moveB8ue170006INS_17_ClassicAlgPolicyENS_11__copy_loopIS1_EENS_14__copy_trivialEPhS5_S5_EENS_4pairIT2_T4_EES7_T3_S8_, symObjAddr: 0x51438, symBinAddr: 0x100052228, symSize: 0x44 }
  - { offsetInCU: 0x2E6F4, offset: 0x2E6F4, size: 0x8, addend: 0x0, symName: __ZNSt3__121__unwrap_and_dispatchB8ue170006INS_10__overloadINS_11__copy_loopINS_17_ClassicAlgPolicyEEENS_14__copy_trivialEEEPhS7_S7_Li0EEENS_4pairIT0_T2_EES9_T1_SA_, symObjAddr: 0x5147C, symBinAddr: 0x10005226C, symSize: 0xB4 }
  - { offsetInCU: 0x2E7C7, offset: 0x2E7C7, size: 0x8, addend: 0x0, symName: __ZNSt3__19make_pairB8ue170006IPhS1_EENS_4pairINS_18__unwrap_ref_decayIT_E4typeENS3_IT0_E4typeEEEOS4_OS7_, symObjAddr: 0x51578, symBinAddr: 0x100052368, symSize: 0x38 }
  - { offsetInCU: 0x2E817, offset: 0x2E817, size: 0x8, addend: 0x0, symName: __ZNSt3__114__rewrap_rangeB8ue170006IPhS1_S1_EET0_S2_T1_, symObjAddr: 0x515B0, symBinAddr: 0x1000523A0, symSize: 0x2C }
  - { offsetInCU: 0x2E86C, offset: 0x2E86C, size: 0x8, addend: 0x0, symName: __ZNSt3__119__copy_trivial_implB8ue170006IhhEENS_4pairIPT_PT0_EES3_S3_S5_, symObjAddr: 0x515DC, symBinAddr: 0x1000523CC, symSize: 0x78 }
  - { offsetInCU: 0x2E8D4, offset: 0x2E8D4, size: 0x8, addend: 0x0, symName: __ZNSt3__119__constexpr_memmoveB8ue170006IhhLi0EEEPT_S2_PT0_NS_15__element_countE, symObjAddr: 0x51654, symBinAddr: 0x100052444, symSize: 0x64 }
  - { offsetInCU: 0x2E941, offset: 0x2E941, size: 0x8, addend: 0x0, symName: __ZNSt3__19make_pairB8ue170006IRPhS1_EENS_4pairINS_18__unwrap_ref_decayIT_E4typeENS4_IT0_E4typeEEEOS5_OS8_, symObjAddr: 0x516B8, symBinAddr: 0x1000524A8, symSize: 0x38 }
  - { offsetInCU: 0x2E9E4, offset: 0x2E9E4, size: 0x8, addend: 0x0, symName: __ZNSt3__112construct_atB8ue170006INS_4pairIKNS_12basic_stringIcNS_11char_traitsIcEENS_9allocatorIcEEEEN8nlohmann16json_abi_v3_11_310basic_jsonINS_3mapENS_6vectorES7_bxydS5_NSA_14adl_serializerENSD_IhNS5_IhEEEEvEEEEJS7_DnEPSI_EEPT_SL_DpOT0_, symObjAddr: 0x51CD8, symBinAddr: 0x100052AC8, symSize: 0x44 }
  - { offsetInCU: 0x2EA68, offset: 0x2EA68, size: 0x8, addend: 0x0, symName: __ZNSt3__111make_sharedB8ue170006IN8nlohmann16json_abi_v3_11_36detail21output_string_adapterIcNS_12basic_stringIcNS_11char_traitsIcEENS_9allocatorIcEEEEEEJRSA_EvEENS_10shared_ptrIT_EEDpOT0_, symObjAddr: 0x53014, symBinAddr: 0x100053E04, symSize: 0x40 }
  - { offsetInCU: 0x2ECC7, offset: 0x2ECC7, size: 0x8, addend: 0x0, symName: __ZNSt3__115allocate_sharedB8ue170006IN8nlohmann16json_abi_v3_11_36detail21output_string_adapterIcNS_12basic_stringIcNS_11char_traitsIcEENS_9allocatorIcEEEEEENS8_ISB_EEJRSA_EvEENS_10shared_ptrIT_EERKT0_DpOT1_, symObjAddr: 0x530B4, symBinAddr: 0x100053EA4, symSize: 0x98 }
  - { offsetInCU: 0x2F074, offset: 0x2F074, size: 0x8, addend: 0x0, symName: __ZNSt3__112construct_atB8ue170006IN8nlohmann16json_abi_v3_11_36detail21output_string_adapterIcNS_12basic_stringIcNS_11char_traitsIcEENS_9allocatorIcEEEEEEJRSA_EPSB_EEPT_SF_DpOT0_, symObjAddr: 0x5380C, symBinAddr: 0x1000545FC, symSize: 0x3C }
  - { offsetInCU: 0x2F0E5, offset: 0x2F0E5, size: 0x8, addend: 0x0, symName: __ZNSt3__110destroy_atB8ue170006IN8nlohmann16json_abi_v3_11_36detail21output_string_adapterIcNS_12basic_stringIcNS_11char_traitsIcEENS_9allocatorIcEEEEEELi0EEEvPT_, symObjAddr: 0x53AB0, symBinAddr: 0x1000548A0, symSize: 0x24 }
  - { offsetInCU: 0x2F11C, offset: 0x2F11C, size: 0x8, addend: 0x0, symName: __ZNSt3__112__destroy_atB8ue170006IN8nlohmann16json_abi_v3_11_36detail21output_string_adapterIcNS_12basic_stringIcNS_11char_traitsIcEENS_9allocatorIcEEEEEELi0EEEvPT_, symObjAddr: 0x53AD4, symBinAddr: 0x1000548C4, symSize: 0x2C }
  - { offsetInCU: 0x2F187, offset: 0x2F187, size: 0x8, addend: 0x0, symName: __ZNSt3__134__libcpp_atomic_refcount_decrementB8ue170006IlEET_RS1_, symObjAddr: 0x53E38, symBinAddr: 0x100054C28, symSize: 0x30 }
  - { offsetInCU: 0x2F1BD, offset: 0x2F1BD, size: 0x8, addend: 0x0, symName: __ZNSt3__134__libcpp_atomic_refcount_incrementB8ue170006IlEET_RS1_, symObjAddr: 0x53F58, symBinAddr: 0x100054D48, symSize: 0x30 }
  - { offsetInCU: 0x2F1F2, offset: 0x2F1F2, size: 0x8, addend: 0x0, symName: __ZNSt3__1eqB8ue170006ERKNS_20__map_const_iteratorINS_21__tree_const_iteratorINS_12__value_typeINS_12basic_stringIcNS_11char_traitsIcEENS_9allocatorIcEEEEN8nlohmann16json_abi_v3_11_310basic_jsonINS_3mapENS_6vectorES8_bxydS6_NSA_14adl_serializerENSD_IhNS6_IhEEEEvEEEEPNS_11__tree_nodeISI_PvEElEEEESQ_, symObjAddr: 0x54EF0, symBinAddr: 0x100055CE0, symSize: 0x30 }
  - { offsetInCU: 0x2F230, offset: 0x2F230, size: 0x8, addend: 0x0, symName: __ZNSt3__14nextB8ue170006INS_20__map_const_iteratorINS_21__tree_const_iteratorINS_12__value_typeINS_12basic_stringIcNS_11char_traitsIcEENS_9allocatorIcEEEEN8nlohmann16json_abi_v3_11_310basic_jsonINS_3mapENS_6vectorES9_bxydS7_NSB_14adl_serializerENSE_IhNS7_IhEEEEvEEEEPNS_11__tree_nodeISJ_PvEElEEEEEENS_9enable_ifIXsr29__has_input_iterator_categoryIT_EE5valueESR_E4typeESR_NS_15iterator_traitsISR_E15difference_typeE, symObjAddr: 0x54F20, symBinAddr: 0x100055D10, symSize: 0x3C }
  - { offsetInCU: 0x2F273, offset: 0x2F273, size: 0x8, addend: 0x0, symName: __ZNSt3__1neB8ue170006IPKN8nlohmann16json_abi_v3_11_310basic_jsonINS_3mapENS_6vectorENS_12basic_stringIcNS_11char_traitsIcEENS_9allocatorIcEEEEbxydS9_NS2_14adl_serializerENS5_IhNS9_IhEEEEvEEEEbRKNS_11__wrap_iterIT_EESM_, symObjAddr: 0x54F5C, symBinAddr: 0x100055D4C, symSize: 0x34 }
  - { offsetInCU: 0x2F2B6, offset: 0x2F2B6, size: 0x8, addend: 0x0, symName: __ZNSt3__1neB8ue170006IPKhEEbRKNS_11__wrap_iterIT_EES7_, symObjAddr: 0x55084, symBinAddr: 0x100055E74, symSize: 0x34 }
  - { offsetInCU: 0x2F32B, offset: 0x2F32B, size: 0x8, addend: 0x0, symName: __ZNSt3__19__advanceB8ue170006INS_20__map_const_iteratorINS_21__tree_const_iteratorINS_12__value_typeINS_12basic_stringIcNS_11char_traitsIcEENS_9allocatorIcEEEEN8nlohmann16json_abi_v3_11_310basic_jsonINS_3mapENS_6vectorES9_bxydS7_NSB_14adl_serializerENSE_IhNS7_IhEEEEvEEEEPNS_11__tree_nodeISJ_PvEElEEEEEEvRT_NS_15iterator_traitsISQ_E15difference_typeENS_26bidirectional_iterator_tagE, symObjAddr: 0x561B0, symBinAddr: 0x100056FA0, symSize: 0xA4 }
  - { offsetInCU: 0x2F376, offset: 0x2F376, size: 0x8, addend: 0x0, symName: __ZNSt3__1eqB8ue170006IPKN8nlohmann16json_abi_v3_11_310basic_jsonINS_3mapENS_6vectorENS_12basic_stringIcNS_11char_traitsIcEENS_9allocatorIcEEEEbxydS9_NS2_14adl_serializerENS5_IhNS9_IhEEEEvEEEEbRKNS_11__wrap_iterIT_EESM_, symObjAddr: 0x56280, symBinAddr: 0x100057070, symSize: 0x48 }
  - { offsetInCU: 0x2F3B9, offset: 0x2F3B9, size: 0x8, addend: 0x0, symName: __ZNSt3__1eqB8ue170006IPKhEEbRKNS_11__wrap_iterIT_EES7_, symObjAddr: 0x56410, symBinAddr: 0x100057200, symSize: 0x48 }
  - { offsetInCU: 0x305BC, offset: 0x305BC, size: 0x8, addend: 0x0, symName: __ZSt28__throw_bad_array_new_lengthB8ue170006v, symObjAddr: 0x26064, symBinAddr: 0x100026E54, symSize: 0x34 }
  - { offsetInCU: 0x30936, offset: 0x30936, size: 0x8, addend: 0x0, symName: __ZL13PROBABLE_TEXT, symObjAddr: 0x25C3A8, symBinAddr: 0x100068018, symSize: 0x0 }
  - { offsetInCU: 0x30950, offset: 0x30950, size: 0x8, addend: 0x0, symName: __ZL14UNMATCHED_TEXT, symObjAddr: 0x25C3C0, symBinAddr: 0x100068030, symSize: 0x0 }
  - { offsetInCU: 0x3096A, offset: 0x3096A, size: 0x8, addend: 0x0, symName: __ZL21PERCENT_MATCHING_TEXT, symObjAddr: 0x25C3D8, symBinAddr: 0x100068048, symSize: 0x0 }
  - { offsetInCU: 0x309AD, offset: 0x309AD, size: 0x8, addend: 0x0, symName: __ZN8nlohmann16json_abi_v3_11_36detail12static_constINS1_10to_json_fnEE5valueE, symObjAddr: 0x5EA68, symBinAddr: 0x10005F790, symSize: 0x0 }
  - { offsetInCU: 0x3205A, offset: 0x3205A, size: 0x8, addend: 0x0, symName: __ZN8nlohmann16json_abi_v3_11_36detail9dtoa_impl36get_cached_power_for_binary_exponentEi, symObjAddr: 0x57538, symBinAddr: 0x100058328, symSize: 0x22C }
  - { offsetInCU: 0x32086, offset: 0x32086, size: 0x8, addend: 0x0, symName: __ZZN8nlohmann16json_abi_v3_11_36detail9dtoa_impl36get_cached_power_for_binary_exponentEiE13kCachedPowers, symObjAddr: 0x5F150, symBinAddr: 0x10005FE78, symSize: 0x0 }
  - { offsetInCU: 0x3215A, offset: 0x3215A, size: 0x8, addend: 0x0, symName: __ZN8nlohmann16json_abi_v3_11_36detail9dtoa_impl6grisu2IdEEvPcRiS5_T_, symObjAddr: 0x56AAC, symBinAddr: 0x10005789C, symSize: 0xEC }
  - { offsetInCU: 0x321CA, offset: 0x321CA, size: 0x8, addend: 0x0, symName: __ZN8nlohmann16json_abi_v3_11_36detail9dtoa_impl13format_bufferEPciiii, symObjAddr: 0x56B98, symBinAddr: 0x100057988, symSize: 0x36C }
  - { offsetInCU: 0x32252, offset: 0x32252, size: 0x8, addend: 0x0, symName: __ZN8nlohmann16json_abi_v3_11_36detail9dtoa_impl18compute_boundariesIdEENS2_10boundariesET_, symObjAddr: 0x56F04, symBinAddr: 0x100057CF4, symSize: 0x24C }
  - { offsetInCU: 0x32361, offset: 0x32361, size: 0x8, addend: 0x0, symName: __ZN8nlohmann16json_abi_v3_11_36detail9dtoa_impl6grisu2EPcRiS4_NS2_5diyfpES5_S5_, symObjAddr: 0x57150, symBinAddr: 0x100057F40, symSize: 0x1C0 }
  - { offsetInCU: 0x3244A, offset: 0x3244A, size: 0x8, addend: 0x0, symName: __ZN8nlohmann16json_abi_v3_11_36detail9dtoa_impl16reinterpret_bitsIydEET_T0_, symObjAddr: 0x57310, symBinAddr: 0x100058100, symSize: 0x1C }
  - { offsetInCU: 0x3254C, offset: 0x3254C, size: 0x8, addend: 0x0, symName: __ZN8nlohmann16json_abi_v3_11_36detail9dtoa_impl16grisu2_digit_genEPcRiS4_NS2_5diyfpES5_S5_, symObjAddr: 0x578A4, symBinAddr: 0x100058694, symSize: 0x4A4 }
  - { offsetInCU: 0x326EE, offset: 0x326EE, size: 0x8, addend: 0x0, symName: __ZN8nlohmann16json_abi_v3_11_36detail9dtoa_impl18find_largest_pow10EjRj, symObjAddr: 0x57E64, symBinAddr: 0x100058C54, symSize: 0x1F8 }
  - { offsetInCU: 0x3272B, offset: 0x3272B, size: 0x8, addend: 0x0, symName: __ZN8nlohmann16json_abi_v3_11_36detail9dtoa_impl12grisu2_roundEPciyyyy, symObjAddr: 0x5805C, symBinAddr: 0x100058E4C, symSize: 0x24C }
  - { offsetInCU: 0x327A0, offset: 0x327A0, size: 0x8, addend: 0x0, symName: __ZN8nlohmann16json_abi_v3_11_36detail9dtoa_impl15append_exponentEPci, symObjAddr: 0x582C4, symBinAddr: 0x1000590B4, symSize: 0x220 }
  - { offsetInCU: 0x32E83, offset: 0x32E83, size: 0x8, addend: 0x0, symName: __ZN8nlohmann16json_abi_v3_11_36detail7to_jsonINS0_10basic_jsonINSt3__13mapENS4_6vectorENS4_12basic_stringIcNS4_11char_traitsIcEENS4_9allocatorIcEEEEbxydSA_NS0_14adl_serializerENS6_IhNSA_IhEEEEvEEA3_cLi0EEEvRT_RKT0_, symObjAddr: 0x24A04, symBinAddr: 0x1000257F4, symSize: 0x2C }
  - { offsetInCU: 0x3304F, offset: 0x3304F, size: 0x8, addend: 0x0, symName: __ZN8nlohmann16json_abi_v3_11_36detail7to_jsonINS0_10basic_jsonINSt3__13mapENS4_6vectorENS4_12basic_stringIcNS4_11char_traitsIcEENS4_9allocatorIcEEEEbxydSA_NS0_14adl_serializerENS6_IhNSA_IhEEEEvEEiLi0EEEvRT_T0_, symObjAddr: 0x297AC, symBinAddr: 0x10002A59C, symSize: 0x2C }
  - { offsetInCU: 0x330D2, offset: 0x330D2, size: 0x8, addend: 0x0, symName: __ZN8nlohmann16json_abi_v3_11_36detail7to_jsonINS0_10basic_jsonINSt3__13mapENS4_6vectorENS4_12basic_stringIcNS4_11char_traitsIcEENS4_9allocatorIcEEEEbxydSA_NS0_14adl_serializerENS6_IhNSA_IhEEEEvEEA8_cLi0EEEvRT_RKT0_, symObjAddr: 0x299F0, symBinAddr: 0x10002A7E0, symSize: 0x2C }
  - { offsetInCU: 0x33124, offset: 0x33124, size: 0x8, addend: 0x0, symName: __ZN8nlohmann16json_abi_v3_11_36detail7to_jsonINS0_10basic_jsonINSt3__13mapENS4_6vectorENS4_12basic_stringIcNS4_11char_traitsIcEENS4_9allocatorIcEEEEbxydSA_NS0_14adl_serializerENS6_IhNSA_IhEEEEvEEdLi0EEEvRT_T0_, symObjAddr: 0x2A09C, symBinAddr: 0x10002AE8C, symSize: 0x2C }
  - { offsetInCU: 0x331A7, offset: 0x331A7, size: 0x8, addend: 0x0, symName: __ZN8nlohmann16json_abi_v3_11_36detail7to_jsonINS0_10basic_jsonINSt3__13mapENS4_6vectorENS4_12basic_stringIcNS4_11char_traitsIcEENS4_9allocatorIcEEEEbxydSA_NS0_14adl_serializerENS6_IhNSA_IhEEEEvEEA5_cLi0EEEvRT_RKT0_, symObjAddr: 0x2A2E0, symBinAddr: 0x10002B0D0, symSize: 0x2C }
  - { offsetInCU: 0x331F9, offset: 0x331F9, size: 0x8, addend: 0x0, symName: __ZN8nlohmann16json_abi_v3_11_36detail7to_jsonINS0_10basic_jsonINSt3__13mapENS4_6vectorENS4_12basic_stringIcNS4_11char_traitsIcEENS4_9allocatorIcEEEEbxydSA_NS0_14adl_serializerENS6_IhNSA_IhEEEEvEESC_Li0EEEvRT_RKT0_, symObjAddr: 0x2A9B0, symBinAddr: 0x10002B7A0, symSize: 0x2C }
  - { offsetInCU: 0x3324B, offset: 0x3324B, size: 0x8, addend: 0x0, symName: __ZN8nlohmann16json_abi_v3_11_36detail7to_jsonINS0_10basic_jsonINSt3__13mapENS4_6vectorENS4_12basic_stringIcNS4_11char_traitsIcEENS4_9allocatorIcEEEEbxydSA_NS0_14adl_serializerENS6_IhNSA_IhEEEEvEEA10_cLi0EEEvRT_RKT0_, symObjAddr: 0x2B0F8, symBinAddr: 0x10002BEE8, symSize: 0x2C }
  - { offsetInCU: 0x3329D, offset: 0x3329D, size: 0x8, addend: 0x0, symName: __ZN8nlohmann16json_abi_v3_11_36detail7to_jsonINS0_10basic_jsonINSt3__13mapENS4_6vectorENS4_12basic_stringIcNS4_11char_traitsIcEENS4_9allocatorIcEEEEbxydSA_NS0_14adl_serializerENS6_IhNSA_IhEEEEvEEA9_cLi0EEEvRT_RKT0_, symObjAddr: 0x2B7C8, symBinAddr: 0x10002C5B8, symSize: 0x2C }
  - { offsetInCU: 0x332EF, offset: 0x332EF, size: 0x8, addend: 0x0, symName: __ZN8nlohmann16json_abi_v3_11_36detail7to_jsonINS0_10basic_jsonINSt3__13mapENS4_6vectorENS4_12basic_stringIcNS4_11char_traitsIcEENS4_9allocatorIcEEEEbxydSA_NS0_14adl_serializerENS6_IhNSA_IhEEEEvEEA6_cLi0EEEvRT_RKT0_, symObjAddr: 0x2BE98, symBinAddr: 0x10002CC88, symSize: 0x2C }
  - { offsetInCU: 0x33341, offset: 0x33341, size: 0x8, addend: 0x0, symName: __ZN8nlohmann16json_abi_v3_11_36detail7to_jsonINS0_10basic_jsonINSt3__13mapENS4_6vectorENS4_12basic_stringIcNS4_11char_traitsIcEENS4_9allocatorIcEEEEbxydSA_NS0_14adl_serializerENS6_IhNSA_IhEEEEvEEA7_cLi0EEEvRT_RKT0_, symObjAddr: 0x2C568, symBinAddr: 0x10002D358, symSize: 0x2C }
  - { offsetInCU: 0x33547, offset: 0x33547, size: 0x8, addend: 0x0, symName: __ZN8nlohmann16json_abi_v3_11_36detail6concatINSt3__112basic_stringIcNS3_11char_traitsIcEENS3_9allocatorIcEEEEJRA52_KcPSA_EEET_DpOT0_, symObjAddr: 0x2E438, symBinAddr: 0x10002F228, symSize: 0xCC }
  - { offsetInCU: 0x335AD, offset: 0x335AD, size: 0x8, addend: 0x0, symName: __ZN8nlohmann16json_abi_v3_11_36detail6concatINSt3__112basic_stringIcNS3_11char_traitsIcEENS3_9allocatorIcEEEEJS9_S9_RKS9_EEET_DpOT0_, symObjAddr: 0x2E604, symBinAddr: 0x10002F3F4, symSize: 0xD8 }
  - { offsetInCU: 0x33627, offset: 0x33627, size: 0x8, addend: 0x0, symName: __ZN8nlohmann16json_abi_v3_11_36detail13concat_lengthINSt3__112basic_stringIcNS3_11char_traitsIcEENS3_9allocatorIcEEEEJS9_S9_EEEmRKT_DpRKT0_, symObjAddr: 0x2E818, symBinAddr: 0x10002F608, symSize: 0x48 }
  - { offsetInCU: 0x3368D, offset: 0x3368D, size: 0x8, addend: 0x0, symName: __ZN8nlohmann16json_abi_v3_11_36detail11concat_intoINSt3__112basic_stringIcNS3_11char_traitsIcEENS3_9allocatorIcEEEES9_JS9_RKS9_ELi0EEEvRT_OT0_DpOT1_, symObjAddr: 0x2E860, symBinAddr: 0x10002F650, symSize: 0x44 }
  - { offsetInCU: 0x3370C, offset: 0x3370C, size: 0x8, addend: 0x0, symName: __ZN8nlohmann16json_abi_v3_11_36detail13concat_lengthINSt3__112basic_stringIcNS3_11char_traitsIcEENS3_9allocatorIcEEEEJS9_EEEmRKT_DpRKT0_, symObjAddr: 0x2E8A4, symBinAddr: 0x10002F694, symSize: 0x40 }
  - { offsetInCU: 0x3375D, offset: 0x3375D, size: 0x8, addend: 0x0, symName: __ZN8nlohmann16json_abi_v3_11_36detail13concat_lengthINSt3__112basic_stringIcNS3_11char_traitsIcEENS3_9allocatorIcEEEEJEEEmRKT_DpRKT0_, symObjAddr: 0x2E8E4, symBinAddr: 0x10002F6D4, symSize: 0x38 }
  - { offsetInCU: 0x3379A, offset: 0x3379A, size: 0x8, addend: 0x0, symName: __ZN8nlohmann16json_abi_v3_11_36detail13concat_lengthEv, symObjAddr: 0x2E91C, symBinAddr: 0x10002F70C, symSize: 0x8 }
  - { offsetInCU: 0x337B9, offset: 0x337B9, size: 0x8, addend: 0x0, symName: __ZN8nlohmann16json_abi_v3_11_36detail11concat_intoINSt3__112basic_stringIcNS3_11char_traitsIcEENS3_9allocatorIcEEEES9_JRKS9_ELi0EEEvRT_OT0_DpOT1_, symObjAddr: 0x2E970, symBinAddr: 0x10002F760, symSize: 0x3C }
  - { offsetInCU: 0x33825, offset: 0x33825, size: 0x8, addend: 0x0, symName: __ZN8nlohmann16json_abi_v3_11_36detail11concat_intoINSt3__112basic_stringIcNS3_11char_traitsIcEENS3_9allocatorIcEEEERKS9_JELi0EEEvRT_OT0_DpOT1_, symObjAddr: 0x2E9AC, symBinAddr: 0x10002F79C, symSize: 0x34 }
  - { offsetInCU: 0x3387C, offset: 0x3387C, size: 0x8, addend: 0x0, symName: __ZN8nlohmann16json_abi_v3_11_36detail11concat_intoINSt3__112basic_stringIcNS3_11char_traitsIcEENS3_9allocatorIcEEEEEEvRT_, symObjAddr: 0x2E9E0, symBinAddr: 0x10002F7D0, symSize: 0x10 }
  - { offsetInCU: 0x338AC, offset: 0x338AC, size: 0x8, addend: 0x0, symName: __ZN8nlohmann16json_abi_v3_11_36detail6concatINSt3__112basic_stringIcNS3_11char_traitsIcEENS3_9allocatorIcEEEEJRA17_KcRKS9_cS9_RA3_SA_EEET_DpOT0_, symObjAddr: 0x2E9F0, symBinAddr: 0x10002F7E0, symSize: 0xF0 }
  - { offsetInCU: 0x3394E, offset: 0x3394E, size: 0x8, addend: 0x0, symName: __ZN8nlohmann16json_abi_v3_11_36detail13concat_lengthIJNSt3__112basic_stringIcNS3_11char_traitsIcEENS3_9allocatorIcEEEEcS9_A3_cEEEmPKcDpRKT_, symObjAddr: 0x2EAE0, symBinAddr: 0x10002F8D0, symSize: 0x58 }
  - { offsetInCU: 0x339D3, offset: 0x339D3, size: 0x8, addend: 0x0, symName: __ZN8nlohmann16json_abi_v3_11_36detail11concat_intoINSt3__112basic_stringIcNS3_11char_traitsIcEENS3_9allocatorIcEEEERA17_KcJRKS9_cS9_RA3_SA_ELi0EEEvRT_OT0_DpOT1_, symObjAddr: 0x2EB38, symBinAddr: 0x10002F928, symSize: 0x54 }
  - { offsetInCU: 0x33A7A, offset: 0x33A7A, size: 0x8, addend: 0x0, symName: __ZN8nlohmann16json_abi_v3_11_36detail13concat_lengthINSt3__112basic_stringIcNS3_11char_traitsIcEENS3_9allocatorIcEEEEJcS9_A3_cEEEmRKT_DpRKT0_, symObjAddr: 0x2EB8C, symBinAddr: 0x10002F97C, symSize: 0x54 }
  - { offsetInCU: 0x33AF3, offset: 0x33AF3, size: 0x8, addend: 0x0, symName: __ZN8nlohmann16json_abi_v3_11_36detail13concat_lengthIJNSt3__112basic_stringIcNS3_11char_traitsIcEENS3_9allocatorIcEEEEA3_cEEEmcDpRKT_, symObjAddr: 0x2EBE0, symBinAddr: 0x10002F9D0, symSize: 0x34 }
  - { offsetInCU: 0x33B4C, offset: 0x33B4C, size: 0x8, addend: 0x0, symName: __ZN8nlohmann16json_abi_v3_11_36detail13concat_lengthINSt3__112basic_stringIcNS3_11char_traitsIcEENS3_9allocatorIcEEEEJA3_cEEEmRKT_DpRKT0_, symObjAddr: 0x2EC14, symBinAddr: 0x10002FA04, symSize: 0x40 }
  - { offsetInCU: 0x33B9D, offset: 0x33B9D, size: 0x8, addend: 0x0, symName: __ZN8nlohmann16json_abi_v3_11_36detail13concat_lengthIJEEEmPKcDpRKT_, symObjAddr: 0x2EC54, symBinAddr: 0x10002FA44, symSize: 0x38 }
  - { offsetInCU: 0x33BD1, offset: 0x33BD1, size: 0x8, addend: 0x0, symName: __ZN8nlohmann16json_abi_v3_11_36detail11concat_intoINSt3__112basic_stringIcNS3_11char_traitsIcEENS3_9allocatorIcEEEERKS9_JcS9_RA3_KcELi0EEEvRT_OT0_DpOT1_, symObjAddr: 0x2EC8C, symBinAddr: 0x10002FA7C, symSize: 0x4C }
  - { offsetInCU: 0x33C65, offset: 0x33C65, size: 0x8, addend: 0x0, symName: __ZN8nlohmann16json_abi_v3_11_36detail11concat_intoINSt3__112basic_stringIcNS3_11char_traitsIcEENS3_9allocatorIcEEEEcJS9_RA3_KcELi0EEEvRT_OT0_DpOT1_, symObjAddr: 0x2ECD8, symBinAddr: 0x10002FAC8, symSize: 0x48 }
  - { offsetInCU: 0x33CE5, offset: 0x33CE5, size: 0x8, addend: 0x0, symName: __ZN8nlohmann16json_abi_v3_11_36detail11concat_intoINSt3__112basic_stringIcNS3_11char_traitsIcEENS3_9allocatorIcEEEES9_JRA3_KcELi0EEEvRT_OT0_DpOT1_, symObjAddr: 0x2ED20, symBinAddr: 0x10002FB10, symSize: 0x3C }
  - { offsetInCU: 0x33D51, offset: 0x33D51, size: 0x8, addend: 0x0, symName: __ZN8nlohmann16json_abi_v3_11_36detail11concat_intoINSt3__112basic_stringIcNS3_11char_traitsIcEENS3_9allocatorIcEEEERA3_KcJELi0EEEvRT_OT0_DpOT1_, symObjAddr: 0x2ED5C, symBinAddr: 0x10002FB4C, symSize: 0x34 }
  - { offsetInCU: 0x33DA7, offset: 0x33DA7, size: 0x8, addend: 0x0, symName: __ZN8nlohmann16json_abi_v3_11_36detail13concat_lengthIJPKcEEEmS4_DpRKT_, symObjAddr: 0x2EF90, symBinAddr: 0x10002FD80, symSize: 0x44 }
  - { offsetInCU: 0x33DF0, offset: 0x33DF0, size: 0x8, addend: 0x0, symName: __ZN8nlohmann16json_abi_v3_11_36detail11concat_intoINSt3__112basic_stringIcNS3_11char_traitsIcEENS3_9allocatorIcEEEERA52_KcJPSA_ELi0EEEvRT_OT0_DpOT1_, symObjAddr: 0x2EFD4, symBinAddr: 0x10002FDC4, symSize: 0x3C }
  - { offsetInCU: 0x33E5C, offset: 0x33E5C, size: 0x8, addend: 0x0, symName: __ZN8nlohmann16json_abi_v3_11_36detail11concat_intoINSt3__112basic_stringIcNS3_11char_traitsIcEENS3_9allocatorIcEEEEPKcJELi0EEEvRT_OT0_DpOT1_, symObjAddr: 0x2F010, symBinAddr: 0x10002FE00, symSize: 0x38 }
  - { offsetInCU: 0x34080, offset: 0x34080, size: 0x8, addend: 0x0, symName: __ZN8nlohmann16json_abi_v3_11_36detail13input_adapterERNSt3__113basic_istreamIcNS2_11char_traitsIcEEEE, symObjAddr: 0x35118, symBinAddr: 0x100035F08, symSize: 0x38 }
  - { offsetInCU: 0x34A27, offset: 0x34A27, size: 0x8, addend: 0x0, symName: __ZN8nlohmann16json_abi_v3_11_36detail6concatINSt3__112basic_stringIcNS3_11char_traitsIcEENS3_9allocatorIcEEEEJRA26_KcS9_cEEET_DpOT0_, symObjAddr: 0x40A08, symBinAddr: 0x1000417F8, symSize: 0xD8 }
  - { offsetInCU: 0x34AA1, offset: 0x34AA1, size: 0x8, addend: 0x0, symName: __ZN8nlohmann16json_abi_v3_11_36detail6concatINSt3__112basic_stringIcNS3_11char_traitsIcEENS3_9allocatorIcEEEEJRA24_KcS9_EEET_DpOT0_, symObjAddr: 0x41504, symBinAddr: 0x1000422F4, symSize: 0xCC }
  - { offsetInCU: 0x34B07, offset: 0x34B07, size: 0x8, addend: 0x0, symName: __ZN8nlohmann16json_abi_v3_11_36detail13concat_lengthIJNSt3__112basic_stringIcNS3_11char_traitsIcEENS3_9allocatorIcEEEEEEEmPKcDpRKT_, symObjAddr: 0x42F84, symBinAddr: 0x100043D74, symSize: 0x40 }
  - { offsetInCU: 0x34B50, offset: 0x34B50, size: 0x8, addend: 0x0, symName: __ZN8nlohmann16json_abi_v3_11_36detail11concat_intoINSt3__112basic_stringIcNS3_11char_traitsIcEENS3_9allocatorIcEEEERA24_KcJS9_ELi0EEEvRT_OT0_DpOT1_, symObjAddr: 0x42FC4, symBinAddr: 0x100043DB4, symSize: 0x3C }
  - { offsetInCU: 0x34BBC, offset: 0x34BBC, size: 0x8, addend: 0x0, symName: __ZN8nlohmann16json_abi_v3_11_36detail11concat_intoINSt3__112basic_stringIcNS3_11char_traitsIcEENS3_9allocatorIcEEEES9_JELi0EEEvRT_OT0_DpOT1_, symObjAddr: 0x43000, symBinAddr: 0x100043DF0, symSize: 0x34 }
  - { offsetInCU: 0x34CB5, offset: 0x34CB5, size: 0x8, addend: 0x0, symName: __ZN8nlohmann16json_abi_v3_11_36detail6concatINSt3__112basic_stringIcNS3_11char_traitsIcEENS3_9allocatorIcEEEEJRA25_KcPSA_EEET_DpOT0_, symObjAddr: 0x43E98, symBinAddr: 0x100044C88, symSize: 0xC4 }
  - { offsetInCU: 0x34D1C, offset: 0x34D1C, size: 0x8, addend: 0x0, symName: __ZN8nlohmann16json_abi_v3_11_36detail11concat_intoINSt3__112basic_stringIcNS3_11char_traitsIcEENS3_9allocatorIcEEEERA25_KcJPSA_ELi0EEEvRT_OT0_DpOT1_, symObjAddr: 0x44D5C, symBinAddr: 0x100045B4C, symSize: 0x3C }
  - { offsetInCU: 0x34D87, offset: 0x34D87, size: 0x8, addend: 0x0, symName: __ZN8nlohmann16json_abi_v3_11_36detail6concatINSt3__112basic_stringIcNS3_11char_traitsIcEENS3_9allocatorIcEEEEJRA23_KcS9_EEET_DpOT0_, symObjAddr: 0x4543C, symBinAddr: 0x10004622C, symSize: 0xCC }
  - { offsetInCU: 0x34DEE, offset: 0x34DEE, size: 0x8, addend: 0x0, symName: __ZN8nlohmann16json_abi_v3_11_36detail11concat_intoINSt3__112basic_stringIcNS3_11char_traitsIcEENS3_9allocatorIcEEEERA23_KcJS9_ELi0EEEvRT_OT0_DpOT1_, symObjAddr: 0x45508, symBinAddr: 0x1000462F8, symSize: 0x3C }
  - { offsetInCU: 0x34E59, offset: 0x34E59, size: 0x8, addend: 0x0, symName: __ZN8nlohmann16json_abi_v3_11_36detail13concat_lengthIJNSt3__112basic_stringIcNS3_11char_traitsIcEENS3_9allocatorIcEEEEcEEEmPKcDpRKT_, symObjAddr: 0x45658, symBinAddr: 0x100046448, symSize: 0x48 }
  - { offsetInCU: 0x34EB6, offset: 0x34EB6, size: 0x8, addend: 0x0, symName: __ZN8nlohmann16json_abi_v3_11_36detail11concat_intoINSt3__112basic_stringIcNS3_11char_traitsIcEENS3_9allocatorIcEEEERA26_KcJS9_cELi0EEEvRT_OT0_DpOT1_, symObjAddr: 0x456A0, symBinAddr: 0x100046490, symSize: 0x44 }
  - { offsetInCU: 0x34F35, offset: 0x34F35, size: 0x8, addend: 0x0, symName: __ZN8nlohmann16json_abi_v3_11_36detail13concat_lengthINSt3__112basic_stringIcNS3_11char_traitsIcEENS3_9allocatorIcEEEEJcEEEmRKT_DpRKT0_, symObjAddr: 0x456E4, symBinAddr: 0x1000464D4, symSize: 0x44 }
  - { offsetInCU: 0x34F86, offset: 0x34F86, size: 0x8, addend: 0x0, symName: __ZN8nlohmann16json_abi_v3_11_36detail13concat_lengthIJEEEmcDpRKT_, symObjAddr: 0x45728, symBinAddr: 0x100046518, symSize: 0x24 }
  - { offsetInCU: 0x34FB7, offset: 0x34FB7, size: 0x8, addend: 0x0, symName: __ZN8nlohmann16json_abi_v3_11_36detail11concat_intoINSt3__112basic_stringIcNS3_11char_traitsIcEENS3_9allocatorIcEEEES9_JcELi0EEEvRT_OT0_DpOT1_, symObjAddr: 0x4574C, symBinAddr: 0x10004653C, symSize: 0x3C }
  - { offsetInCU: 0x35023, offset: 0x35023, size: 0x8, addend: 0x0, symName: __ZN8nlohmann16json_abi_v3_11_36detail11concat_intoINSt3__112basic_stringIcNS3_11char_traitsIcEENS3_9allocatorIcEEEEcJELi0EEEvRT_OT0_DpOT1_, symObjAddr: 0x45788, symBinAddr: 0x100046578, symSize: 0x38 }
  - { offsetInCU: 0x3507A, offset: 0x3507A, size: 0x8, addend: 0x0, symName: __ZN8nlohmann16json_abi_v3_11_36detail7to_jsonINS0_10basic_jsonINSt3__13mapENS4_6vectorENS4_12basic_stringIcNS4_11char_traitsIcEENS4_9allocatorIcEEEEbxydSA_NS0_14adl_serializerENS6_IhNSA_IhEEEEvEEbLi0EEEvRT_T0_, symObjAddr: 0x46398, symBinAddr: 0x100047188, symSize: 0x38 }
  - { offsetInCU: 0x350FD, offset: 0x350FD, size: 0x8, addend: 0x0, symName: __ZN8nlohmann16json_abi_v3_11_36detail7to_jsonINS0_10basic_jsonINSt3__13mapENS4_6vectorENS4_12basic_stringIcNS4_11char_traitsIcEENS4_9allocatorIcEEEEbxydSA_NS0_14adl_serializerENS6_IhNSA_IhEEEEvEExLi0EEEvRT_T0_, symObjAddr: 0x46F68, symBinAddr: 0x100047D58, symSize: 0x2C }
  - { offsetInCU: 0x3514F, offset: 0x3514F, size: 0x8, addend: 0x0, symName: __ZN8nlohmann16json_abi_v3_11_36detail7to_jsonINS0_10basic_jsonINSt3__13mapENS4_6vectorENS4_12basic_stringIcNS4_11char_traitsIcEENS4_9allocatorIcEEEEbxydSA_NS0_14adl_serializerENS6_IhNSA_IhEEEEvEEyLi0EEEvRT_T0_, symObjAddr: 0x47A44, symBinAddr: 0x100048834, symSize: 0x2C }
  - { offsetInCU: 0x351D1, offset: 0x351D1, size: 0x8, addend: 0x0, symName: __ZN8nlohmann16json_abi_v3_11_36detail6concatINSt3__112basic_stringIcNS3_11char_traitsIcEENS3_9allocatorIcEEEEJS9_RA12_KcS9_RA3_SA_S9_RKS9_EEET_DpOT0_, symObjAddr: 0x47DF4, symBinAddr: 0x100048BE4, symSize: 0xFC }
  - { offsetInCU: 0x35287, offset: 0x35287, size: 0x8, addend: 0x0, symName: __ZN8nlohmann16json_abi_v3_11_36detail13concat_lengthINSt3__112basic_stringIcNS3_11char_traitsIcEENS3_9allocatorIcEEEEJA12_cS9_A3_cS9_S9_EEEmRKT_DpRKT0_, symObjAddr: 0x47FF0, symBinAddr: 0x100048DE0, symSize: 0x60 }
  - { offsetInCU: 0x35329, offset: 0x35329, size: 0x8, addend: 0x0, symName: __ZN8nlohmann16json_abi_v3_11_36detail11concat_intoINSt3__112basic_stringIcNS3_11char_traitsIcEENS3_9allocatorIcEEEES9_JRA12_KcS9_RA3_SA_S9_RKS9_ELi0EEEvRT_OT0_DpOT1_, symObjAddr: 0x48050, symBinAddr: 0x100048E40, symSize: 0x5C }
  - { offsetInCU: 0x353E4, offset: 0x353E4, size: 0x8, addend: 0x0, symName: __ZN8nlohmann16json_abi_v3_11_36detail13concat_lengthIJNSt3__112basic_stringIcNS3_11char_traitsIcEENS3_9allocatorIcEEEEA3_cS9_S9_EEEmPKcDpRKT_, symObjAddr: 0x480AC, symBinAddr: 0x100048E9C, symSize: 0x58 }
  - { offsetInCU: 0x35468, offset: 0x35468, size: 0x8, addend: 0x0, symName: __ZN8nlohmann16json_abi_v3_11_36detail13concat_lengthINSt3__112basic_stringIcNS3_11char_traitsIcEENS3_9allocatorIcEEEEJA3_cS9_S9_EEEmRKT_DpRKT0_, symObjAddr: 0x48104, symBinAddr: 0x100048EF4, symSize: 0x50 }
  - { offsetInCU: 0x354E1, offset: 0x354E1, size: 0x8, addend: 0x0, symName: __ZN8nlohmann16json_abi_v3_11_36detail13concat_lengthIJNSt3__112basic_stringIcNS3_11char_traitsIcEENS3_9allocatorIcEEEES9_EEEmPKcDpRKT_, symObjAddr: 0x48154, symBinAddr: 0x100048F44, symSize: 0x48 }
  - { offsetInCU: 0x3553E, offset: 0x3553E, size: 0x8, addend: 0x0, symName: __ZN8nlohmann16json_abi_v3_11_36detail11concat_intoINSt3__112basic_stringIcNS3_11char_traitsIcEENS3_9allocatorIcEEEERA12_KcJS9_RA3_SA_S9_RKS9_ELi0EEEvRT_OT0_DpOT1_, symObjAddr: 0x4819C, symBinAddr: 0x100048F8C, symSize: 0x54 }
  - { offsetInCU: 0x355E6, offset: 0x355E6, size: 0x8, addend: 0x0, symName: __ZN8nlohmann16json_abi_v3_11_36detail11concat_intoINSt3__112basic_stringIcNS3_11char_traitsIcEENS3_9allocatorIcEEEES9_JRA3_KcS9_RKS9_ELi0EEEvRT_OT0_DpOT1_, symObjAddr: 0x481F0, symBinAddr: 0x100048FE0, symSize: 0x4C }
  - { offsetInCU: 0x3567A, offset: 0x3567A, size: 0x8, addend: 0x0, symName: __ZN8nlohmann16json_abi_v3_11_36detail11concat_intoINSt3__112basic_stringIcNS3_11char_traitsIcEENS3_9allocatorIcEEEERA3_KcJS9_RKS9_ELi0EEEvRT_OT0_DpOT1_, symObjAddr: 0x4823C, symBinAddr: 0x10004902C, symSize: 0x44 }
  - { offsetInCU: 0x356F9, offset: 0x356F9, size: 0x8, addend: 0x0, symName: __ZN8nlohmann16json_abi_v3_11_36detail6concatINSt3__112basic_stringIcNS3_11char_traitsIcEENS3_9allocatorIcEEEEJRA10_KcS9_SC_S9_EEET_DpOT0_, symObjAddr: 0x48280, symBinAddr: 0x100049070, symSize: 0xE4 }
  - { offsetInCU: 0x35787, offset: 0x35787, size: 0x8, addend: 0x0, symName: __ZN8nlohmann16json_abi_v3_11_36detail13concat_lengthIJNSt3__112basic_stringIcNS3_11char_traitsIcEENS3_9allocatorIcEEEEA10_cS9_EEEmPKcDpRKT_, symObjAddr: 0x48364, symBinAddr: 0x100049154, symSize: 0x50 }
  - { offsetInCU: 0x357F8, offset: 0x357F8, size: 0x8, addend: 0x0, symName: __ZN8nlohmann16json_abi_v3_11_36detail11concat_intoINSt3__112basic_stringIcNS3_11char_traitsIcEENS3_9allocatorIcEEEERA10_KcJS9_SC_S9_ELi0EEEvRT_OT0_DpOT1_, symObjAddr: 0x483B4, symBinAddr: 0x1000491A4, symSize: 0x4C }
  - { offsetInCU: 0x3588B, offset: 0x3588B, size: 0x8, addend: 0x0, symName: __ZN8nlohmann16json_abi_v3_11_36detail13concat_lengthINSt3__112basic_stringIcNS3_11char_traitsIcEENS3_9allocatorIcEEEEJA10_cS9_EEEmRKT_DpRKT0_, symObjAddr: 0x48400, symBinAddr: 0x1000491F0, symSize: 0x48 }
  - { offsetInCU: 0x358F1, offset: 0x358F1, size: 0x8, addend: 0x0, symName: __ZN8nlohmann16json_abi_v3_11_36detail11concat_intoINSt3__112basic_stringIcNS3_11char_traitsIcEENS3_9allocatorIcEEEES9_JRA10_KcS9_ELi0EEEvRT_OT0_DpOT1_, symObjAddr: 0x48448, symBinAddr: 0x100049238, symSize: 0x44 }
  - { offsetInCU: 0x35971, offset: 0x35971, size: 0x8, addend: 0x0, symName: __ZN8nlohmann16json_abi_v3_11_36detail11concat_intoINSt3__112basic_stringIcNS3_11char_traitsIcEENS3_9allocatorIcEEEERA10_KcJS9_ELi0EEEvRT_OT0_DpOT1_, symObjAddr: 0x4848C, symBinAddr: 0x10004927C, symSize: 0x3C }
  - { offsetInCU: 0x359DC, offset: 0x359DC, size: 0x8, addend: 0x0, symName: __ZN8nlohmann16json_abi_v3_11_36detail6concatINSt3__112basic_stringIcNS3_11char_traitsIcEENS3_9allocatorIcEEEEJRA15_KcRKS9_cEEET_DpOT0_, symObjAddr: 0x48558, symBinAddr: 0x100049348, symSize: 0xD8 }
  - { offsetInCU: 0x35A56, offset: 0x35A56, size: 0x8, addend: 0x0, symName: __ZN8nlohmann16json_abi_v3_11_36detail6concatINSt3__112basic_stringIcNS3_11char_traitsIcEENS3_9allocatorIcEEEEJPKcRA15_SA_S9_cEEET_DpOT0_, symObjAddr: 0x4865C, symBinAddr: 0x10004944C, symSize: 0xE8 }
  - { offsetInCU: 0x35AE4, offset: 0x35AE4, size: 0x8, addend: 0x0, symName: __ZN8nlohmann16json_abi_v3_11_36detail6concatINSt3__112basic_stringIcNS3_11char_traitsIcEENS3_9allocatorIcEEEEJRA12_KcPSA_EEET_DpOT0_, symObjAddr: 0x4875C, symBinAddr: 0x10004954C, symSize: 0xC4 }
  - { offsetInCU: 0x35B4B, offset: 0x35B4B, size: 0x8, addend: 0x0, symName: __ZN8nlohmann16json_abi_v3_11_36detail11concat_intoINSt3__112basic_stringIcNS3_11char_traitsIcEENS3_9allocatorIcEEEERA15_KcJRKS9_cELi0EEEvRT_OT0_DpOT1_, symObjAddr: 0x489AC, symBinAddr: 0x10004979C, symSize: 0x44 }
  - { offsetInCU: 0x35BCB, offset: 0x35BCB, size: 0x8, addend: 0x0, symName: __ZN8nlohmann16json_abi_v3_11_36detail11concat_intoINSt3__112basic_stringIcNS3_11char_traitsIcEENS3_9allocatorIcEEEERKS9_JcELi0EEEvRT_OT0_DpOT1_, symObjAddr: 0x489F0, symBinAddr: 0x1000497E0, symSize: 0x3C }
  - { offsetInCU: 0x35C36, offset: 0x35C36, size: 0x8, addend: 0x0, symName: __ZN8nlohmann16json_abi_v3_11_36detail13concat_lengthIJA15_cNSt3__112basic_stringIcNS4_11char_traitsIcEENS4_9allocatorIcEEEEcEEEmPKcDpRKT_, symObjAddr: 0x48A2C, symBinAddr: 0x10004981C, symSize: 0x50 }
  - { offsetInCU: 0x35CA7, offset: 0x35CA7, size: 0x8, addend: 0x0, symName: __ZN8nlohmann16json_abi_v3_11_36detail11concat_intoINSt3__112basic_stringIcNS3_11char_traitsIcEENS3_9allocatorIcEEEEPKcJRA15_SA_S9_cELi0EEEvRT_OT0_DpOT1_, symObjAddr: 0x48A7C, symBinAddr: 0x10004986C, symSize: 0x50 }
  - { offsetInCU: 0x35D3B, offset: 0x35D3B, size: 0x8, addend: 0x0, symName: __ZN8nlohmann16json_abi_v3_11_36detail11concat_intoINSt3__112basic_stringIcNS3_11char_traitsIcEENS3_9allocatorIcEEEERA15_KcJS9_cELi0EEEvRT_OT0_DpOT1_, symObjAddr: 0x48ACC, symBinAddr: 0x1000498BC, symSize: 0x44 }
  - { offsetInCU: 0x35DBB, offset: 0x35DBB, size: 0x8, addend: 0x0, symName: __ZN8nlohmann16json_abi_v3_11_36detail11concat_intoINSt3__112basic_stringIcNS3_11char_traitsIcEENS3_9allocatorIcEEEERA12_KcJPSA_ELi0EEEvRT_OT0_DpOT1_, symObjAddr: 0x48B10, symBinAddr: 0x100049900, symSize: 0x3C }
  - { offsetInCU: 0x35E27, offset: 0x35E27, size: 0x8, addend: 0x0, symName: __ZN8nlohmann16json_abi_v3_11_36detaileqENS1_20primitive_iterator_tES2_, symObjAddr: 0x4BDC0, symBinAddr: 0x10004CBB0, symSize: 0x28 }
  - { offsetInCU: 0x35E63, offset: 0x35E63, size: 0x8, addend: 0x0, symName: __ZN8nlohmann16json_abi_v3_11_36detail6concatINSt3__112basic_stringIcNS3_11char_traitsIcEENS3_9allocatorIcEEEEJRA51_KcPSA_EEET_DpOT0_, symObjAddr: 0x4C258, symBinAddr: 0x10004D048, symSize: 0xC4 }
  - { offsetInCU: 0x35ECA, offset: 0x35ECA, size: 0x8, addend: 0x0, symName: __ZN8nlohmann16json_abi_v3_11_36detail11concat_intoINSt3__112basic_stringIcNS3_11char_traitsIcEENS3_9allocatorIcEEEERA51_KcJPSA_ELi0EEEvRT_OT0_DpOT1_, symObjAddr: 0x4C4E0, symBinAddr: 0x10004D2D0, symSize: 0x3C }
  - { offsetInCU: 0x35F4B, offset: 0x35F4B, size: 0x8, addend: 0x0, symName: __ZN8nlohmann16json_abi_v3_11_36detail9from_jsonINS0_10basic_jsonINSt3__13mapENS4_6vectorENS4_12basic_stringIcNS4_11char_traitsIcEENS4_9allocatorIcEEEEbxydSA_NS0_14adl_serializerENS6_IhNSA_IhEEEEvEEiLi0EEEvRKT_RT0_, symObjAddr: 0x4C5D4, symBinAddr: 0x10004D3C4, symSize: 0x1A0 }
  - { offsetInCU: 0x35F9C, offset: 0x35F9C, size: 0x8, addend: 0x0, symName: __ZN8nlohmann16json_abi_v3_11_36detail6concatINSt3__112basic_stringIcNS3_11char_traitsIcEENS3_9allocatorIcEEEEJRA29_KcPSA_EEET_DpOT0_, symObjAddr: 0x4C854, symBinAddr: 0x10004D644, symSize: 0xC4 }
  - { offsetInCU: 0x36003, offset: 0x36003, size: 0x8, addend: 0x0, symName: __ZN8nlohmann16json_abi_v3_11_36detail11concat_intoINSt3__112basic_stringIcNS3_11char_traitsIcEENS3_9allocatorIcEEEERA29_KcJPSA_ELi0EEEvRT_OT0_DpOT1_, symObjAddr: 0x4CB28, symBinAddr: 0x10004D918, symSize: 0x3C }
  - { offsetInCU: 0x3606F, offset: 0x3606F, size: 0x8, addend: 0x0, symName: __ZN8nlohmann16json_abi_v3_11_36detail9from_jsonINS0_10basic_jsonINSt3__13mapENS4_6vectorENS4_12basic_stringIcNS4_11char_traitsIcEENS4_9allocatorIcEEEEbxydSA_NS0_14adl_serializerENS6_IhNSA_IhEEEEvEEEEvRKT_RNSH_14number_float_tE, symObjAddr: 0x4CC20, symBinAddr: 0x10004DA10, symSize: 0x2C }
  - { offsetInCU: 0x360B2, offset: 0x360B2, size: 0x8, addend: 0x0, symName: __ZN8nlohmann16json_abi_v3_11_36detail20get_arithmetic_valueINS0_10basic_jsonINSt3__13mapENS4_6vectorENS4_12basic_stringIcNS4_11char_traitsIcEENS4_9allocatorIcEEEEbxydSA_NS0_14adl_serializerENS6_IhNSA_IhEEEEvEEdLi0EEEvRKT_RT0_, symObjAddr: 0x4CC4C, symBinAddr: 0x10004DA3C, symSize: 0x188 }
  - { offsetInCU: 0x36104, offset: 0x36104, size: 0x8, addend: 0x0, symName: __ZN8nlohmann16json_abi_v3_11_36detail9from_jsonINS0_10basic_jsonINSt3__13mapENS4_6vectorENS4_12basic_stringIcNS4_11char_traitsIcEENS4_9allocatorIcEEEEbxydSA_NS0_14adl_serializerENS6_IhNSA_IhEEEEvEEEEvRKT_RNSH_8string_tE, symObjAddr: 0x4CF34, symBinAddr: 0x10004DD24, symSize: 0x118 }
  - { offsetInCU: 0x36146, offset: 0x36146, size: 0x8, addend: 0x0, symName: __ZN8nlohmann16json_abi_v3_11_36detail6concatINSt3__112basic_stringIcNS3_11char_traitsIcEENS3_9allocatorIcEEEEJRA29_KcS9_RA5_SA_S9_EEET_DpOT0_, symObjAddr: 0x55C88, symBinAddr: 0x100056A78, symSize: 0xE4 }
  - { offsetInCU: 0x365CB, offset: 0x365CB, size: 0x8, addend: 0x0, symName: __ZN8nlohmann16json_abi_v3_11_36detail6concatINSt3__112basic_stringIcNS3_11char_traitsIcEENS3_9allocatorIcEEEEJRA39_KcS9_EEET_DpOT0_, symObjAddr: 0x55E7C, symBinAddr: 0x100056C6C, symSize: 0xCC }
  - { offsetInCU: 0x36631, offset: 0x36631, size: 0x8, addend: 0x0, symName: __ZN8nlohmann16json_abi_v3_11_36detail13concat_lengthIJNSt3__112basic_stringIcNS3_11char_traitsIcEENS3_9allocatorIcEEEEA5_cS9_EEEmPKcDpRKT_, symObjAddr: 0x55FC4, symBinAddr: 0x100056DB4, symSize: 0x50 }
  - { offsetInCU: 0x366A2, offset: 0x366A2, size: 0x8, addend: 0x0, symName: __ZN8nlohmann16json_abi_v3_11_36detail11concat_intoINSt3__112basic_stringIcNS3_11char_traitsIcEENS3_9allocatorIcEEEERA29_KcJS9_RA5_SA_S9_ELi0EEEvRT_OT0_DpOT1_, symObjAddr: 0x56014, symBinAddr: 0x100056E04, symSize: 0x4C }
  - { offsetInCU: 0x36735, offset: 0x36735, size: 0x8, addend: 0x0, symName: __ZN8nlohmann16json_abi_v3_11_36detail13concat_lengthINSt3__112basic_stringIcNS3_11char_traitsIcEENS3_9allocatorIcEEEEJA5_cS9_EEEmRKT_DpRKT0_, symObjAddr: 0x56060, symBinAddr: 0x100056E50, symSize: 0x48 }
  - { offsetInCU: 0x3679B, offset: 0x3679B, size: 0x8, addend: 0x0, symName: __ZN8nlohmann16json_abi_v3_11_36detail11concat_intoINSt3__112basic_stringIcNS3_11char_traitsIcEENS3_9allocatorIcEEEES9_JRA5_KcS9_ELi0EEEvRT_OT0_DpOT1_, symObjAddr: 0x560A8, symBinAddr: 0x100056E98, symSize: 0x44 }
  - { offsetInCU: 0x3681B, offset: 0x3681B, size: 0x8, addend: 0x0, symName: __ZN8nlohmann16json_abi_v3_11_36detail11concat_intoINSt3__112basic_stringIcNS3_11char_traitsIcEENS3_9allocatorIcEEEERA5_KcJS9_ELi0EEEvRT_OT0_DpOT1_, symObjAddr: 0x560EC, symBinAddr: 0x100056EDC, symSize: 0x3C }
  - { offsetInCU: 0x36887, offset: 0x36887, size: 0x8, addend: 0x0, symName: __ZN8nlohmann16json_abi_v3_11_36detail11concat_intoINSt3__112basic_stringIcNS3_11char_traitsIcEENS3_9allocatorIcEEEERA39_KcJS9_ELi0EEEvRT_OT0_DpOT1_, symObjAddr: 0x56128, symBinAddr: 0x100056F18, symSize: 0x3C }
  - { offsetInCU: 0x368F2, offset: 0x368F2, size: 0x8, addend: 0x0, symName: __ZN8nlohmann16json_abi_v3_11_36detail8to_charsIdEEPcS3_PKcT_, symObjAddr: 0x5681C, symBinAddr: 0x10005760C, symSize: 0x26C }
  - { offsetInCU: 0x388E2, offset: 0x388E2, size: 0x8, addend: 0x0, symName: __ZN8nlohmann16json_abi_v3_11_3rsERNSt3__113basic_istreamIcNS1_11char_traitsIcEEEERNS0_10basic_jsonINS1_3mapENS1_6vectorENS1_12basic_stringIcS4_NS1_9allocatorIcEEEEbxydSB_NS0_14adl_serializerENS9_IhNSB_IhEEEEvEE, symObjAddr: 0x62D8, symBinAddr: 0x1000070C8, symSize: 0x120 }
  - { offsetInCU: 0x38D62, offset: 0x38D62, size: 0x8, addend: 0x0, symName: __ZN8nlohmann16json_abi_v3_11_36detail12static_constINS1_12from_json_fnEE5valueE, symObjAddr: 0x5EC01, symBinAddr: 0x10005F929, symSize: 0x0 }
  - { offsetInCU: 0x3A04A, offset: 0x3A04A, size: 0x8, addend: 0x0, symName: __ZN8nlohmann16json_abi_v3_11_36detail10serializerINS0_10basic_jsonINSt3__13mapENS4_6vectorENS4_12basic_stringIcNS4_11char_traitsIcEENS4_9allocatorIcEEEEbxydSA_NS0_14adl_serializerENS6_IhNSA_IhEEEEvEEE6decodeERhRjh, symObjAddr: 0x55AC0, symBinAddr: 0x1000568B0, symSize: 0x180 }
  - { offsetInCU: 0x3A06B, offset: 0x3A06B, size: 0x8, addend: 0x0, symName: __ZZN8nlohmann16json_abi_v3_11_36detail10serializerINS0_10basic_jsonINSt3__13mapENS4_6vectorENS4_12basic_stringIcNS4_11char_traitsIcEENS4_9allocatorIcEEEEbxydSA_NS0_14adl_serializerENS6_IhNSA_IhEEEEvEEE6decodeERhRjhE5utf8d, symObjAddr: 0x5ED65, symBinAddr: 0x10005FA8D, symSize: 0x0 }
  - { offsetInCU: 0x3A104, offset: 0x3A104, size: 0x8, addend: 0x0, symName: __ZN8nlohmann16json_abi_v3_11_36detail10serializerINS0_10basic_jsonINSt3__13mapENS4_6vectorENS4_12basic_stringIcNS4_11char_traitsIcEENS4_9allocatorIcEEEEbxydSA_NS0_14adl_serializerENS6_IhNSA_IhEEEEvEEE12dump_integerIhLi0EEEvT_, symObjAddr: 0x55120, symBinAddr: 0x100055F10, symSize: 0x2C8 }
  - { offsetInCU: 0x3A129, offset: 0x3A129, size: 0x8, addend: 0x0, symName: __ZZN8nlohmann16json_abi_v3_11_36detail10serializerINS0_10basic_jsonINSt3__13mapENS4_6vectorENS4_12basic_stringIcNS4_11char_traitsIcEENS4_9allocatorIcEEEEbxydSA_NS0_14adl_serializerENS6_IhNSA_IhEEEEvEEE12dump_integerIhLi0EEEvT_E12digits_to_99, symObjAddr: 0x5EEF5, symBinAddr: 0x10005FC1D, symSize: 0x0 }
  - { offsetInCU: 0x3A24C, offset: 0x3A24C, size: 0x8, addend: 0x0, symName: __ZN8nlohmann16json_abi_v3_11_36detail10serializerINS0_10basic_jsonINSt3__13mapENS4_6vectorENS4_12basic_stringIcNS4_11char_traitsIcEENS4_9allocatorIcEEEEbxydSA_NS0_14adl_serializerENS6_IhNSA_IhEEEEvEEE12dump_integerIyLi0EEEvT_, symObjAddr: 0x55458, symBinAddr: 0x100056248, symSize: 0x2C4 }
  - { offsetInCU: 0x3A271, offset: 0x3A271, size: 0x8, addend: 0x0, symName: __ZZN8nlohmann16json_abi_v3_11_36detail10serializerINS0_10basic_jsonINSt3__13mapENS4_6vectorENS4_12basic_stringIcNS4_11char_traitsIcEENS4_9allocatorIcEEEEbxydSA_NS0_14adl_serializerENS6_IhNSA_IhEEEEvEEE12dump_integerIyLi0EEEvT_E12digits_to_99, symObjAddr: 0x5EFBD, symBinAddr: 0x10005FCE5, symSize: 0x0 }
  - { offsetInCU: 0x3A310, offset: 0x3A310, size: 0x8, addend: 0x0, symName: __ZN8nlohmann16json_abi_v3_11_36detail10serializerINS0_10basic_jsonINSt3__13mapENS4_6vectorENS4_12basic_stringIcNS4_11char_traitsIcEENS4_9allocatorIcEEEEbxydSA_NS0_14adl_serializerENS6_IhNSA_IhEEEEvEEE12dump_integerIxLi0EEEvT_, symObjAddr: 0x55760, symBinAddr: 0x100056550, symSize: 0x2C4 }
  - { offsetInCU: 0x3A335, offset: 0x3A335, size: 0x8, addend: 0x0, symName: __ZZN8nlohmann16json_abi_v3_11_36detail10serializerINS0_10basic_jsonINSt3__13mapENS4_6vectorENS4_12basic_stringIcNS4_11char_traitsIcEENS4_9allocatorIcEEEEbxydSA_NS0_14adl_serializerENS6_IhNSA_IhEEEEvEEE12dump_integerIxLi0EEEvT_E12digits_to_99, symObjAddr: 0x5F085, symBinAddr: 0x10005FDAD, symSize: 0x0 }
  - { offsetInCU: 0x3A3D4, offset: 0x3A3D4, size: 0x8, addend: 0x0, symName: __ZN8nlohmann16json_abi_v3_11_36detail10serializerINS0_10basic_jsonINSt3__13mapENS4_6vectorENS4_12basic_stringIcNS4_11char_traitsIcEENS4_9allocatorIcEEEEbxydSA_NS0_14adl_serializerENS6_IhNSA_IhEEEEvEEE10dump_floatEd, symObjAddr: 0x55A24, symBinAddr: 0x100056814, symSize: 0x6C }
  - { offsetInCU: 0x3A3F9, offset: 0x3A3F9, size: 0x8, addend: 0x0, symName: __ZZN8nlohmann16json_abi_v3_11_36detail10serializerINS0_10basic_jsonINSt3__13mapENS4_6vectorENS4_12basic_stringIcNS4_11char_traitsIcEENS4_9allocatorIcEEEEbxydSA_NS0_14adl_serializerENS6_IhNSA_IhEEEEvEEE10dump_floatEdE24is_ieee_single_or_double, symObjAddr: 0x5F14D, symBinAddr: 0x10005FE75, symSize: 0x0 }
  - { offsetInCU: 0x3B14B, offset: 0x3B14B, size: 0x8, addend: 0x0, symName: __ZNSt3__16vectorIN8nlohmann16json_abi_v3_11_310basic_jsonINS_3mapES0_NS_12basic_stringIcNS_11char_traitsIcEENS_9allocatorIcEEEEbxydS8_NS2_14adl_serializerENS0_IhNS8_IhEEEEvEENS8_ISE_EEE26__swap_out_circular_bufferERNS_14__split_bufferISE_RSF_EE, symObjAddr: 0x25A8C, symBinAddr: 0x10002687C, symSize: 0x110 }
  - { offsetInCU: 0x3B62E, offset: 0x3B62E, size: 0x8, addend: 0x0, symName: __ZNSt3__16vectorIcNS_9allocatorIcEEE26__swap_out_circular_bufferERNS_14__split_bufferIcRS2_EE, symObjAddr: 0x387C0, symBinAddr: 0x1000395B0, symSize: 0x110 }
  - { offsetInCU: 0x3B98F, offset: 0x3B98F, size: 0x8, addend: 0x0, symName: __ZNSt3__16vectorIPN8nlohmann16json_abi_v3_11_310basic_jsonINS_3mapES0_NS_12basic_stringIcNS_11char_traitsIcEENS_9allocatorIcEEEEbxydS8_NS2_14adl_serializerENS0_IhNS8_IhEEEEvEENS8_ISF_EEE26__swap_out_circular_bufferERNS_14__split_bufferISF_RSG_EE, symObjAddr: 0x41E1C, symBinAddr: 0x100042C0C, symSize: 0x110 }
  - { offsetInCU: 0x3C342, offset: 0x3C342, size: 0x8, addend: 0x0, symName: __Z7ispuncti, symObjAddr: 0x4E7C, symBinAddr: 0x100005C6C, symSize: 0x28 }
  - { offsetInCU: 0x3C3B2, offset: 0x3C3B2, size: 0x8, addend: 0x0, symName: __Z7toloweri, symObjAddr: 0x41FC, symBinAddr: 0x100004FEC, symSize: 0x24 }
  - { offsetInCU: 0x3C3E0, offset: 0x3C3E0, size: 0x8, addend: 0x0, symName: __Z7toupperi, symObjAddr: 0xFAEC, symBinAddr: 0x1000108DC, symSize: 0x24 }
  - { offsetInCU: 0x3DD6A, offset: 0x3DD6A, size: 0x8, addend: 0x0, symName: __ZNSt3__112basic_stringIcNS_11char_traitsIcEENS_9allocatorIcEEEC1B8ue170006ILi0EEEPKc, symObjAddr: 0x0, symBinAddr: 0x100000DF0, symSize: 0x34 }
  - { offsetInCU: 0x3DDA8, offset: 0x3DDA8, size: 0x8, addend: 0x0, symName: __Z17matchTransactionsNSt3__14listI11TransactionNS_9allocatorIS1_EEEES4_, symObjAddr: 0x34, symBinAddr: 0x100000E24, symSize: 0xA68 }
  - { offsetInCU: 0x3DF21, offset: 0x3DF21, size: 0x8, addend: 0x0, symName: __ZNSt3__14listINS0_I11TransactionNS_9allocatorIS1_EEEENS2_IS4_EEEC1B8ue170006Ev, symObjAddr: 0xA9C, symBinAddr: 0x10000188C, symSize: 0x2C }
  - { offsetInCU: 0x3DF4B, offset: 0x3DF4B, size: 0x8, addend: 0x0, symName: __ZNSt3__14listI11TransactionNS_9allocatorIS1_EEEC1B8ue170006Ev, symObjAddr: 0xAC8, symBinAddr: 0x1000018B8, symSize: 0x2C }
  - { offsetInCU: 0x3DF74, offset: 0x3DF74, size: 0x8, addend: 0x0, symName: __Z9isMatched11TransactionS_i, symObjAddr: 0xB80, symBinAddr: 0x100001970, symSize: 0xE4 }
  - { offsetInCU: 0x3DFC3, offset: 0x3DFC3, size: 0x8, addend: 0x0, symName: __ZNKSt3__115__list_iteratorI11TransactionPvEdeB8ue170006Ev, symObjAddr: 0xC64, symBinAddr: 0x100001A54, symSize: 0x2C }
  - { offsetInCU: 0x3DFEF, offset: 0x3DFEF, size: 0x8, addend: 0x0, symName: __ZN11TransactionC1ERKS_, symObjAddr: 0xC90, symBinAddr: 0x100001A80, symSize: 0x34 }
  - { offsetInCU: 0x3E025, offset: 0x3E025, size: 0x8, addend: 0x0, symName: __ZN11TransactionD1Ev, symObjAddr: 0xCC4, symBinAddr: 0x100001AB4, symSize: 0x2C }
  - { offsetInCU: 0x3E052, offset: 0x3E052, size: 0x8, addend: 0x0, symName: __ZNSt3__14listI11TransactionNS_9allocatorIS1_EEE9push_backERKS1_, symObjAddr: 0xCF0, symBinAddr: 0x100001AE0, symSize: 0xF4 }
  - { offsetInCU: 0x3E0A7, offset: 0x3E0A7, size: 0x8, addend: 0x0, symName: __ZNSt3__115__list_iteratorI11TransactionPvEppB8ue170006Ei, symObjAddr: 0xDE4, symBinAddr: 0x100001BD4, symSize: 0x34 }
  - { offsetInCU: 0x3E0E7, offset: 0x3E0E7, size: 0x8, addend: 0x0, symName: __Z20isMatchedForMatching11TransactionS_i, symObjAddr: 0xE18, symBinAddr: 0x100001C08, symSize: 0xE4 }
  - { offsetInCU: 0x3E136, offset: 0x3E136, size: 0x8, addend: 0x0, symName: __ZNSt3__14listINS0_I11TransactionNS_9allocatorIS1_EEEENS2_IS4_EEE9push_backERKS4_, symObjAddr: 0xEFC, symBinAddr: 0x100001CEC, symSize: 0xF4 }
  - { offsetInCU: 0x3E18B, offset: 0x3E18B, size: 0x8, addend: 0x0, symName: __ZNSt3__14listI11TransactionNS_9allocatorIS1_EEED1Ev, symObjAddr: 0xFF0, symBinAddr: 0x100001DE0, symSize: 0x2C }
  - { offsetInCU: 0x3E1B8, offset: 0x3E1B8, size: 0x8, addend: 0x0, symName: __ZNKSt3__115__list_iteratorINS_4listI11TransactionNS_9allocatorIS2_EEEEPvEdeB8ue170006Ev, symObjAddr: 0x10A8, symBinAddr: 0x100001E98, symSize: 0x2C }
  - { offsetInCU: 0x3E1DD, offset: 0x3E1DD, size: 0x8, addend: 0x0, symName: __Z15percentMatching11TransactionS_, symObjAddr: 0x10D4, symBinAddr: 0x100001EC4, symSize: 0x1B4 }
  - { offsetInCU: 0x3E259, offset: 0x3E259, size: 0x8, addend: 0x0, symName: __ZNKSt3__115__list_iteratorINS_4listI11TransactionNS_9allocatorIS2_EEEEPvEptB8ue170006Ev, symObjAddr: 0x1288, symBinAddr: 0x100002078, symSize: 0x30 }
  - { offsetInCU: 0x3E27F, offset: 0x3E27F, size: 0x8, addend: 0x0, symName: __ZNSt3__14listI11TransactionNS_9allocatorIS1_EEE5frontB8ue170006Ev, symObjAddr: 0x12B8, symBinAddr: 0x1000020A8, symSize: 0x2C }
  - { offsetInCU: 0x3E2A5, offset: 0x3E2A5, size: 0x8, addend: 0x0, symName: __ZNSt3__14listI11TransactionNS_9allocatorIS1_EEE5eraseENS_21__list_const_iteratorIS1_PvEE, symObjAddr: 0x12E4, symBinAddr: 0x1000020D4, symSize: 0xA0 }
  - { offsetInCU: 0x3E318, offset: 0x3E318, size: 0x8, addend: 0x0, symName: __ZNSt3__121__list_const_iteratorI11TransactionPvEC1B8ue170006ERKNS_15__list_iteratorIS1_S2_EE, symObjAddr: 0x1384, symBinAddr: 0x100002174, symSize: 0x34 }
  - { offsetInCU: 0x3E351, offset: 0x3E351, size: 0x8, addend: 0x0, symName: __ZNSt3__115__list_iteratorI11TransactionPvEmmB8ue170006Ev, symObjAddr: 0x13B8, symBinAddr: 0x1000021A8, symSize: 0x20 }
  - { offsetInCU: 0x3E377, offset: 0x3E377, size: 0x8, addend: 0x0, symName: __ZNSt3__115__list_iteratorINS_4listI11TransactionNS_9allocatorIS2_EEEEPvEppB8ue170006Ei, symObjAddr: 0x13D8, symBinAddr: 0x1000021C8, symSize: 0x34 }
  - { offsetInCU: 0x3E3B8, offset: 0x3E3B8, size: 0x8, addend: 0x0, symName: __ZNSt3__14listINS0_I11TransactionNS_9allocatorIS1_EEEENS2_IS4_EEED1Ev, symObjAddr: 0x140C, symBinAddr: 0x1000021FC, symSize: 0x2C }
  - { offsetInCU: 0x3E3E4, offset: 0x3E3E4, size: 0x8, addend: 0x0, symName: __Z25probableMatchTransactionsNSt3__14listI11TransactionNS_9allocatorIS1_EEEES4_, symObjAddr: 0x1438, symBinAddr: 0x100002228, symSize: 0x1B38 }
  - { offsetInCU: 0x3E730, offset: 0x3E730, size: 0x8, addend: 0x0, symName: __Z19unmatchTransactionsNSt3__14listI11TransactionNS_9allocatorIS1_EEEES4_, symObjAddr: 0x2F70, symBinAddr: 0x100003D60, symSize: 0x6E4 }
  - { offsetInCU: 0x3E826, offset: 0x3E826, size: 0x8, addend: 0x0, symName: __Z9diffDatesNSt3__112basic_stringIcNS_11char_traitsIcEENS_9allocatorIcEEEES5_, symObjAddr: 0x3654, symBinAddr: 0x100004444, symSize: 0x398 }
  - { offsetInCU: 0x3E918, offset: 0x3E918, size: 0x8, addend: 0x0, symName: __ZNKSt3__112basic_stringIcNS_11char_traitsIcEENS_9allocatorIcEEE6substrB8ue170006Emm, symObjAddr: 0x39EC, symBinAddr: 0x1000047DC, symSize: 0x68 }
  - { offsetInCU: 0x3E95C, offset: 0x3E95C, size: 0x8, addend: 0x0, symName: __Z17countLeapYearDaysPi, symObjAddr: 0x3A54, symBinAddr: 0x100004844, symSize: 0x70 }
  - { offsetInCU: 0x3E999, offset: 0x3E999, size: 0x8, addend: 0x0, symName: __Z3absB8ue170006l, symObjAddr: 0x3AC4, symBinAddr: 0x1000048B4, symSize: 0x28 }
  - { offsetInCU: 0x3E9C5, offset: 0x3E9C5, size: 0x8, addend: 0x0, symName: __Z15withinDateRangeNSt3__112basic_stringIcNS_11char_traitsIcEENS_9allocatorIcEEEES5_, symObjAddr: 0x3AEC, symBinAddr: 0x1000048DC, symSize: 0x104 }
  - { offsetInCU: 0x3EA13, offset: 0x3EA13, size: 0x8, addend: 0x0, symName: __Z16relatedNarrationNSt3__112basic_stringIcNS_11char_traitsIcEENS_9allocatorIcEEEES5_, symObjAddr: 0x3BF0, symBinAddr: 0x1000049E0, symSize: 0x4D4 }
  - { offsetInCU: 0x3EB42, offset: 0x3EB42, size: 0x8, addend: 0x0, symName: __ZNSt3__112basic_stringIcNS_11char_traitsIcEENS_9allocatorIcEEE5beginB8ue170006Ev, symObjAddr: 0x415C, symBinAddr: 0x100004F4C, symSize: 0x4C }
  - { offsetInCU: 0x3EB68, offset: 0x3EB68, size: 0x8, addend: 0x0, symName: __ZNSt3__112basic_stringIcNS_11char_traitsIcEENS_9allocatorIcEEE3endB8ue170006Ev, symObjAddr: 0x41A8, symBinAddr: 0x100004F98, symSize: 0x54 }
  - { offsetInCU: 0x3EB8D, offset: 0x3EB8D, size: 0x8, addend: 0x0, symName: __Z11splitStringNSt3__112basic_stringIcNS_11char_traitsIcEENS_9allocatorIcEEEEc, symObjAddr: 0x4220, symBinAddr: 0x100005010, symSize: 0x310 }
  - { offsetInCU: 0x3ED91, offset: 0x3ED91, size: 0x8, addend: 0x0, symName: __ZNKSt3__14listINS_12basic_stringIcNS_11char_traitsIcEENS_9allocatorIcEEEENS4_IS6_EEE4sizeB8ue170006Ev, symObjAddr: 0x4530, symBinAddr: 0x100005320, symSize: 0x28 }
  - { offsetInCU: 0x3EDB7, offset: 0x3EDB7, size: 0x8, addend: 0x0, symName: __ZNKSt3__115__list_iteratorINS_12basic_stringIcNS_11char_traitsIcEENS_9allocatorIcEEEEPvEdeB8ue170006Ev, symObjAddr: 0x45E4, symBinAddr: 0x1000053D4, symSize: 0x2C }
  - { offsetInCU: 0x3EDDD, offset: 0x3EDDD, size: 0x8, addend: 0x0, symName: __ZNKSt3__112basic_stringIcNS_11char_traitsIcEENS_9allocatorIcEEE7compareB8ue170006ERKS5_, symObjAddr: 0x4610, symBinAddr: 0x100005400, symSize: 0x4C }
  - { offsetInCU: 0x3EE14, offset: 0x3EE14, size: 0x8, addend: 0x0, symName: __ZNSt3__115__list_iteratorINS_12basic_stringIcNS_11char_traitsIcEENS_9allocatorIcEEEEPvEppB8ue170006Ei, symObjAddr: 0x465C, symBinAddr: 0x10000544C, symSize: 0x34 }
  - { offsetInCU: 0x3EE55, offset: 0x3EE55, size: 0x8, addend: 0x0, symName: __ZNSt3__14listINS_12basic_stringIcNS_11char_traitsIcEENS_9allocatorIcEEEENS4_IS6_EEED1Ev, symObjAddr: 0x4690, symBinAddr: 0x100005480, symSize: 0x2C }
  - { offsetInCU: 0x3EE82, offset: 0x3EE82, size: 0x8, addend: 0x0, symName: __Z7displayNSt3__14listINS0_I11TransactionNS_9allocatorIS1_EEEENS2_IS4_EEEE, symObjAddr: 0x46BC, symBinAddr: 0x1000054AC, symSize: 0x2EC }
  - { offsetInCU: 0x3EF13, offset: 0x3EF13, size: 0x8, addend: 0x0, symName: __ZNSt3__113basic_ostreamIcNS_11char_traitsIcEEElsB8ue170006EPFRS3_S4_E, symObjAddr: 0x49F0, symBinAddr: 0x1000057E0, symSize: 0x2C }
  - { offsetInCU: 0x3EF47, offset: 0x3EF47, size: 0x8, addend: 0x0, symName: __ZNSt3__115__list_iteratorI11TransactionPvEppB8ue170006Ev, symObjAddr: 0x4A78, symBinAddr: 0x100005868, symSize: 0x20 }
  - { offsetInCU: 0x3EF6D, offset: 0x3EF6D, size: 0x8, addend: 0x0, symName: __ZNKSt3__115__list_iteratorI11TransactionPvEptB8ue170006Ev, symObjAddr: 0x4A98, symBinAddr: 0x100005888, symSize: 0x30 }
  - { offsetInCU: 0x3EF93, offset: 0x3EF93, size: 0x8, addend: 0x0, symName: __ZN11Transaction8toStringEv, symObjAddr: 0x4AC8, symBinAddr: 0x1000058B8, symSize: 0x19C }
  - { offsetInCU: 0x3EFB9, offset: 0x3EFB9, size: 0x8, addend: 0x0, symName: __ZNSt3__115__list_iteratorINS_4listI11TransactionNS_9allocatorIS2_EEEEPvEppB8ue170006Ev, symObjAddr: 0x4CEC, symBinAddr: 0x100005ADC, symSize: 0x20 }
  - { offsetInCU: 0x3EFDF, offset: 0x3EFDF, size: 0x8, addend: 0x0, symName: __Z7displayNSt3__14listI11TransactionNS_9allocatorIS1_EEEE, symObjAddr: 0x4D0C, symBinAddr: 0x100005AFC, symSize: 0x124 }
  - { offsetInCU: 0x3F047, offset: 0x3F047, size: 0x8, addend: 0x0, symName: __ZNKSt3__111__wrap_iterIPcEdeB8ue170006Ev, symObjAddr: 0x4E64, symBinAddr: 0x100005C54, symSize: 0x18 }
  - { offsetInCU: 0x3F06D, offset: 0x3F06D, size: 0x8, addend: 0x0, symName: __ZNSt3__112basic_stringIcNS_11char_traitsIcEENS_9allocatorIcEEEpLB8ue170006Ec, symObjAddr: 0x4EA4, symBinAddr: 0x100005C94, symSize: 0x34 }
  - { offsetInCU: 0x3F0A2, offset: 0x3F0A2, size: 0x8, addend: 0x0, symName: __ZNSt3__111__wrap_iterIPcEppB8ue170006Ev, symObjAddr: 0x4ED8, symBinAddr: 0x100005CC8, symSize: 0x20 }
  - { offsetInCU: 0x3F0C8, offset: 0x3F0C8, size: 0x8, addend: 0x0, symName: __ZNSt3__14listINS_12basic_stringIcNS_11char_traitsIcEENS_9allocatorIcEEEENS4_IS6_EEEC1B8ue170006Ev, symObjAddr: 0x4EF8, symBinAddr: 0x100005CE8, symSize: 0x2C }
  - { offsetInCU: 0x3F0F2, offset: 0x3F0F2, size: 0x8, addend: 0x0, symName: __ZNKSt3__112basic_stringIcNS_11char_traitsIcEENS_9allocatorIcEEE6lengthB8ue170006Ev, symObjAddr: 0x4F24, symBinAddr: 0x100005D14, symSize: 0x24 }
  - { offsetInCU: 0x3F118, offset: 0x3F118, size: 0x8, addend: 0x0, symName: __ZNSt3__112basic_stringIcNS_11char_traitsIcEENS_9allocatorIcEEEixB8ue170006Em, symObjAddr: 0x4F48, symBinAddr: 0x100005D38, symSize: 0x30 }
  - { offsetInCU: 0x3F14D, offset: 0x3F14D, size: 0x8, addend: 0x0, symName: __ZNSt3__14listINS_12basic_stringIcNS_11char_traitsIcEENS_9allocatorIcEEEENS4_IS6_EEE9push_backERKS6_, symObjAddr: 0x4F78, symBinAddr: 0x100005D68, symSize: 0xF4 }
  - { offsetInCU: 0x3F1A2, offset: 0x3F1A2, size: 0x8, addend: 0x0, symName: __ZN11Transaction8getDebitEv, symObjAddr: 0x506C, symBinAddr: 0x100005E5C, symSize: 0x18 }
  - { offsetInCU: 0x3F1C8, offset: 0x3F1C8, size: 0x8, addend: 0x0, symName: __ZN11Transaction9getCreditEv, symObjAddr: 0x5084, symBinAddr: 0x100005E74, symSize: 0x18 }
  - { offsetInCU: 0x3F1EE, offset: 0x3F1EE, size: 0x8, addend: 0x0, symName: __ZN11Transaction7getDateEv, symObjAddr: 0x509C, symBinAddr: 0x100005E8C, symSize: 0x3C }
  - { offsetInCU: 0x3F214, offset: 0x3F214, size: 0x8, addend: 0x0, symName: __ZN11Transaction12getNarrationEv, symObjAddr: 0x50D8, symBinAddr: 0x100005EC8, symSize: 0x3C }
  - { offsetInCU: 0x3F239, offset: 0x3F239, size: 0x8, addend: 0x0, symName: __Z26percentMatchingForMatching11TransactionS_, symObjAddr: 0x5114, symBinAddr: 0x100005F04, symSize: 0x1B4 }
  - { offsetInCU: 0x3F2B4, offset: 0x3F2B4, size: 0x8, addend: 0x0, symName: __Z22averagePercentMatchingNSt3__14listI11TransactionNS_9allocatorIS1_EEEE, symObjAddr: 0x52C8, symBinAddr: 0x1000060B8, symSize: 0x19C }
  - { offsetInCU: 0x3F317, offset: 0x3F317, size: 0x8, addend: 0x0, symName: __ZNKSt3__14listI11TransactionNS_9allocatorIS1_EEE4sizeB8ue170006Ev, symObjAddr: 0x5464, symBinAddr: 0x100006254, symSize: 0x28 }
  - { offsetInCU: 0x3F33D, offset: 0x3F33D, size: 0x8, addend: 0x0, symName: __Z17filterToUnmatchedRNSt3__14listINS0_I11TransactionNS_9allocatorIS1_EEEENS2_IS4_EEEERS4_S7_, symObjAddr: 0x548C, symBinAddr: 0x10000627C, symSize: 0x300 }
  - { offsetInCU: 0x3F3DC, offset: 0x3F3DC, size: 0x8, addend: 0x0, symName: __ZNSt3__14listINS0_I11TransactionNS_9allocatorIS1_EEEENS2_IS4_EEE5eraseENS_21__list_const_iteratorIS4_PvEE, symObjAddr: 0x578C, symBinAddr: 0x10000657C, symSize: 0xA0 }
  - { offsetInCU: 0x3F44F, offset: 0x3F44F, size: 0x8, addend: 0x0, symName: __ZNSt3__121__list_const_iteratorINS_4listI11TransactionNS_9allocatorIS2_EEEEPvEC1B8ue170006ERKNS_15__list_iteratorIS5_S6_EE, symObjAddr: 0x582C, symBinAddr: 0x10000661C, symSize: 0x34 }
  - { offsetInCU: 0x3F488, offset: 0x3F488, size: 0x8, addend: 0x0, symName: __ZNSt3__115__list_iteratorINS_4listI11TransactionNS_9allocatorIS2_EEEEPvEmmB8ue170006Ev, symObjAddr: 0x5860, symBinAddr: 0x100006650, symSize: 0x20 }
  - { offsetInCU: 0x3F4AE, offset: 0x3F4AE, size: 0x8, addend: 0x0, symName: __ZNSt3__115__list_iteratorINS_4listI11TransactionNS_9allocatorIS2_EEEEPvEmmB8ue170006Ei, symObjAddr: 0x5880, symBinAddr: 0x100006670, symSize: 0x34 }
  - { offsetInCU: 0x3F4EF, offset: 0x3F4EF, size: 0x8, addend: 0x0, symName: __Z25filterMultipleToUnmatchedRNSt3__14listINS0_I11TransactionNS_9allocatorIS1_EEEENS2_IS4_EEEERS4_S6_, symObjAddr: 0x58B4, symBinAddr: 0x1000066A4, symSize: 0x200 }
  - { offsetInCU: 0x3F56D, offset: 0x3F56D, size: 0x8, addend: 0x0, symName: __ZN11Transaction10getTableIdEv, symObjAddr: 0x5AB4, symBinAddr: 0x1000068A4, symSize: 0x3C }
  - { offsetInCU: 0x3F593, offset: 0x3F593, size: 0x8, addend: 0x0, symName: __ZNSt3__14listINS0_I11TransactionNS_9allocatorIS1_EEEENS2_IS4_EEE5frontB8ue170006Ev, symObjAddr: 0x5AF0, symBinAddr: 0x1000068E0, symSize: 0x2C }
  - { offsetInCU: 0x3F5B9, offset: 0x3F5B9, size: 0x8, addend: 0x0, symName: __Z35filterMultipleToUnmatchedWithSecondRNSt3__14listINS0_I11TransactionNS_9allocatorIS1_EEEENS2_IS4_EEEERS4_S6_, symObjAddr: 0x5B1C, symBinAddr: 0x10000690C, symSize: 0x200 }
  - { offsetInCU: 0x3F637, offset: 0x3F637, size: 0x8, addend: 0x0, symName: __Z12readJsonFileRNSt3__14listI11TransactionNS_9allocatorIS1_EEEENS_12basic_stringIcNS_11char_traitsIcEENS2_IcEEEE, symObjAddr: 0x5D1C, symBinAddr: 0x100006B0C, symSize: 0x404 }
  - { offsetInCU: 0x3F801, offset: 0x3F801, size: 0x8, addend: 0x0, symName: __ZNSt3__114basic_ifstreamIcNS_11char_traitsIcEEEC1ERKNS_12basic_stringIcS2_NS_9allocatorIcEEEEj, symObjAddr: 0x6120, symBinAddr: 0x100006F10, symSize: 0x16C }
  - { offsetInCU: 0x3F84B, offset: 0x3F84B, size: 0x8, addend: 0x0, symName: __ZN8nlohmann16json_abi_v3_11_310basic_jsonINSt3__13mapENS2_6vectorENS2_12basic_stringIcNS2_11char_traitsIcEENS2_9allocatorIcEEEEbxydS8_NS0_14adl_serializerENS4_IhNS8_IhEEEEvEC1EDn, symObjAddr: 0x628C, symBinAddr: 0x10000707C, symSize: 0x4C }
  - { offsetInCU: 0x3F881, offset: 0x3F881, size: 0x8, addend: 0x0, symName: __ZN8nlohmann16json_abi_v3_11_310basic_jsonINSt3__13mapENS2_6vectorENS2_12basic_stringIcNS2_11char_traitsIcEENS2_9allocatorIcEEEEbxydS8_NS0_14adl_serializerENS4_IhNS8_IhEEEEvEixIKcEERSE_PT_, symObjAddr: 0x63F8, symBinAddr: 0x1000071E8, symSize: 0x78 }
  - { offsetInCU: 0x3F8BF, offset: 0x3F8BF, size: 0x8, addend: 0x0, symName: __ZN8nlohmann16json_abi_v3_11_310basic_jsonINSt3__13mapENS2_6vectorENS2_12basic_stringIcNS2_11char_traitsIcEENS2_9allocatorIcEEEEbxydS8_NS0_14adl_serializerENS4_IhNS8_IhEEEEvE5beginEv, symObjAddr: 0x6470, symBinAddr: 0x100007260, symSize: 0x40 }
  - { offsetInCU: 0x3F8F5, offset: 0x3F8F5, size: 0x8, addend: 0x0, symName: __ZN8nlohmann16json_abi_v3_11_310basic_jsonINSt3__13mapENS2_6vectorENS2_12basic_stringIcNS2_11char_traitsIcEENS2_9allocatorIcEEEEbxydS8_NS0_14adl_serializerENS4_IhNS8_IhEEEEvE3endEv, symObjAddr: 0x64B0, symBinAddr: 0x1000072A0, symSize: 0x40 }
  - { offsetInCU: 0x3F92B, offset: 0x3F92B, size: 0x8, addend: 0x0, symName: __ZNK8nlohmann16json_abi_v3_11_36detail9iter_implINS0_10basic_jsonINSt3__13mapENS4_6vectorENS4_12basic_stringIcNS4_11char_traitsIcEENS4_9allocatorIcEEEEbxydSA_NS0_14adl_serializerENS6_IhNSA_IhEEEEvEEEneISH_LDn0EEEbRKT_, symObjAddr: 0x64F0, symBinAddr: 0x1000072E0, symSize: 0x34 }
  - { offsetInCU: 0x3F96F, offset: 0x3F96F, size: 0x8, addend: 0x0, symName: __ZNK8nlohmann16json_abi_v3_11_36detail9iter_implINS0_10basic_jsonINSt3__13mapENS4_6vectorENS4_12basic_stringIcNS4_11char_traitsIcEENS4_9allocatorIcEEEEbxydSA_NS0_14adl_serializerENS6_IhNSA_IhEEEEvEEEdeEv, symObjAddr: 0x6524, symBinAddr: 0x100007314, symSize: 0x32C }
  - { offsetInCU: 0x3F995, offset: 0x3F995, size: 0x8, addend: 0x0, symName: __ZNK8nlohmann16json_abi_v3_11_310basic_jsonINSt3__13mapENS2_6vectorENS2_12basic_stringIcNS2_11char_traitsIcEENS2_9allocatorIcEEEEbxydS8_NS0_14adl_serializerENS4_IhNS8_IhEEEEvEixIKcEERKSE_PT_, symObjAddr: 0x6878, symBinAddr: 0x100007668, symSize: 0x78 }
  - { offsetInCU: 0x3F9D3, offset: 0x3F9D3, size: 0x8, addend: 0x0, symName: __ZNK8nlohmann16json_abi_v3_11_310basic_jsonINSt3__13mapENS2_6vectorENS2_12basic_stringIcNS2_11char_traitsIcEENS2_9allocatorIcEEEEbxydS8_NS0_14adl_serializerENS4_IhNS8_IhEEEEvEcvT_IiLi0EEEv, symObjAddr: 0x68F0, symBinAddr: 0x1000076E0, symSize: 0x24 }
  - { offsetInCU: 0x3FA08, offset: 0x3FA08, size: 0x8, addend: 0x0, symName: __ZNK8nlohmann16json_abi_v3_11_310basic_jsonINSt3__13mapENS2_6vectorENS2_12basic_stringIcNS2_11char_traitsIcEENS2_9allocatorIcEEEEbxydS8_NS0_14adl_serializerENS4_IhNS8_IhEEEEvEcvT_IdLi0EEEv, symObjAddr: 0x6914, symBinAddr: 0x100007704, symSize: 0x24 }
  - { offsetInCU: 0x3FA3D, offset: 0x3FA3D, size: 0x8, addend: 0x0, symName: __ZNK8nlohmann16json_abi_v3_11_310basic_jsonINSt3__13mapENS2_6vectorENS2_12basic_stringIcNS2_11char_traitsIcEENS2_9allocatorIcEEEEbxydS8_NS0_14adl_serializerENS4_IhNS8_IhEEEEvEcvT_ISA_Li0EEEv, symObjAddr: 0x6938, symBinAddr: 0x100007728, symSize: 0x2C }
  - { offsetInCU: 0x3FA72, offset: 0x3FA72, size: 0x8, addend: 0x0, symName: __ZNSt3__14listI11TransactionNS_9allocatorIS1_EEE9push_backEOS1_, symObjAddr: 0x6964, symBinAddr: 0x100007754, symSize: 0xEC }
  - { offsetInCU: 0x3FAC7, offset: 0x3FAC7, size: 0x8, addend: 0x0, symName: __ZN11TransactionC1EidNSt3__112basic_stringIcNS0_11char_traitsIcEENS0_9allocatorIcEEEES6_S6_dd, symObjAddr: 0x6A50, symBinAddr: 0x100007840, symSize: 0x64 }
  - { offsetInCU: 0x3FB5D, offset: 0x3FB5D, size: 0x8, addend: 0x0, symName: __ZN8nlohmann16json_abi_v3_11_36detail9iter_implINS0_10basic_jsonINSt3__13mapENS4_6vectorENS4_12basic_stringIcNS4_11char_traitsIcEENS4_9allocatorIcEEEEbxydSA_NS0_14adl_serializerENS6_IhNSA_IhEEEEvEEEppEv, symObjAddr: 0x6AB4, symBinAddr: 0x1000078A4, symSize: 0xE0 }
  - { offsetInCU: 0x3FB83, offset: 0x3FB83, size: 0x8, addend: 0x0, symName: __ZN8nlohmann16json_abi_v3_11_310basic_jsonINSt3__13mapENS2_6vectorENS2_12basic_stringIcNS2_11char_traitsIcEENS2_9allocatorIcEEEEbxydS8_NS0_14adl_serializerENS4_IhNS8_IhEEEEvED1Ev, symObjAddr: 0x6BBC, symBinAddr: 0x1000079AC, symSize: 0x2C }
  - { offsetInCU: 0x3FBB3, offset: 0x3FBB3, size: 0x8, addend: 0x0, symName: __ZNSt3__114basic_ifstreamIcNS_11char_traitsIcEEED1Ev, symObjAddr: 0x6BE8, symBinAddr: 0x1000079D8, symSize: 0x40 }
  - { offsetInCU: 0x3FBE0, offset: 0x3FBE0, size: 0x8, addend: 0x0, symName: __Z13readJsonArrayRNSt3__14listI11TransactionNS_9allocatorIS1_EEEERKN8nlohmann16json_abi_v3_11_310basic_jsonINS_3mapENS_6vectorENS_12basic_stringIcNS_11char_traitsIcEENS2_IcEEEEbxydS2_NS7_14adl_serializerENSA_IhNS2_IhEEEEvEE, symObjAddr: 0x6C28, symBinAddr: 0x100007A18, symSize: 0x2D0 }
  - { offsetInCU: 0x3FCD5, offset: 0x3FCD5, size: 0x8, addend: 0x0, symName: __ZNK8nlohmann16json_abi_v3_11_310basic_jsonINSt3__13mapENS2_6vectorENS2_12basic_stringIcNS2_11char_traitsIcEENS2_9allocatorIcEEEEbxydS8_NS0_14adl_serializerENS4_IhNS8_IhEEEEvE5beginEv, symObjAddr: 0x6EF8, symBinAddr: 0x100007CE8, symSize: 0x2C }
  - { offsetInCU: 0x3FCFB, offset: 0x3FCFB, size: 0x8, addend: 0x0, symName: __ZNK8nlohmann16json_abi_v3_11_310basic_jsonINSt3__13mapENS2_6vectorENS2_12basic_stringIcNS2_11char_traitsIcEENS2_9allocatorIcEEEEbxydS8_NS0_14adl_serializerENS4_IhNS8_IhEEEEvE3endEv, symObjAddr: 0x6F24, symBinAddr: 0x100007D14, symSize: 0x2C }
  - { offsetInCU: 0x3FD21, offset: 0x3FD21, size: 0x8, addend: 0x0, symName: __ZNK8nlohmann16json_abi_v3_11_36detail9iter_implIKNS0_10basic_jsonINSt3__13mapENS4_6vectorENS4_12basic_stringIcNS4_11char_traitsIcEENS4_9allocatorIcEEEEbxydSA_NS0_14adl_serializerENS6_IhNSA_IhEEEEvEEEneISI_LDn0EEEbRKT_, symObjAddr: 0x6F50, symBinAddr: 0x100007D40, symSize: 0x34 }
  - { offsetInCU: 0x3FD65, offset: 0x3FD65, size: 0x8, addend: 0x0, symName: __ZNK8nlohmann16json_abi_v3_11_36detail9iter_implIKNS0_10basic_jsonINSt3__13mapENS4_6vectorENS4_12basic_stringIcNS4_11char_traitsIcEENS4_9allocatorIcEEEEbxydSA_NS0_14adl_serializerENS6_IhNSA_IhEEEEvEEEdeEv, symObjAddr: 0x6F84, symBinAddr: 0x100007D74, symSize: 0x32C }
  - { offsetInCU: 0x3FD8B, offset: 0x3FD8B, size: 0x8, addend: 0x0, symName: __ZN8nlohmann16json_abi_v3_11_36detail9iter_implIKNS0_10basic_jsonINSt3__13mapENS4_6vectorENS4_12basic_stringIcNS4_11char_traitsIcEENS4_9allocatorIcEEEEbxydSA_NS0_14adl_serializerENS6_IhNSA_IhEEEEvEEEppEv, symObjAddr: 0x72D8, symBinAddr: 0x1000080C8, symSize: 0xE0 }
  - { offsetInCU: 0x3FDB0, offset: 0x3FDB0, size: 0x8, addend: 0x0, symName: __Z24convertToJsonListOfListsNSt3__14listINS0_I11TransactionNS_9allocatorIS1_EEEENS2_IS4_EEEENS_12basic_stringIcNS_11char_traitsIcEENS2_IcEEEESB_, symObjAddr: 0x73E0, symBinAddr: 0x1000081D0, symSize: 0x7DC }
  - { offsetInCU: 0x3FE95, offset: 0x3FE95, size: 0x8, addend: 0x0, symName: __ZN8nlohmann16json_abi_v3_11_310basic_jsonINSt3__13mapENS2_6vectorENS2_12basic_stringIcNS2_11char_traitsIcEENS2_9allocatorIcEEEEbxydS8_NS0_14adl_serializerENS4_IhNS8_IhEEEEvE5arrayESt16initializer_listINS0_6detail8json_refISE_EEE, symObjAddr: 0x7BBC, symBinAddr: 0x1000089AC, symSize: 0x54 }
  - { offsetInCU: 0x3FEB9, offset: 0x3FEB9, size: 0x8, addend: 0x0, symName: __ZNSt16initializer_listIN8nlohmann16json_abi_v3_11_36detail8json_refINS1_10basic_jsonINSt3__13mapENS5_6vectorENS5_12basic_stringIcNS5_11char_traitsIcEENS5_9allocatorIcEEEEbxydSB_NS1_14adl_serializerENS7_IhNSB_IhEEEEvEEEEEC1B8ue170006Ev, symObjAddr: 0x7C10, symBinAddr: 0x100008A00, symSize: 0x2C }
  - { offsetInCU: 0x3FEE3, offset: 0x3FEE3, size: 0x8, addend: 0x0, symName: __ZN8nlohmann16json_abi_v3_11_310basic_jsonINSt3__13mapENS2_6vectorENS2_12basic_stringIcNS2_11char_traitsIcEENS2_9allocatorIcEEEEbxydS8_NS0_14adl_serializerENS4_IhNS8_IhEEEEvE9push_backEOSE_, symObjAddr: 0x7C3C, symBinAddr: 0x100008A2C, symSize: 0x1B0 }
  - { offsetInCU: 0x3FF27, offset: 0x3FF27, size: 0x8, addend: 0x0, symName: __ZNK11Transaction6toJsonEv, symObjAddr: 0x7DEC, symBinAddr: 0x100008BDC, symSize: 0xB58 }
  - { offsetInCU: 0x3FF4E, offset: 0x3FF4E, size: 0x8, addend: 0x0, symName: __ZN8nlohmann16json_abi_v3_11_36detail8json_refINS0_10basic_jsonINSt3__13mapENS4_6vectorENS4_12basic_stringIcNS4_11char_traitsIcEENS4_9allocatorIcEEEEbxydSA_NS0_14adl_serializerENS6_IhNSA_IhEEEEvEEEC1IJRSC_ELi0EEEDpOT_, symObjAddr: 0x8944, symBinAddr: 0x100009734, symSize: 0x34 }
  - { offsetInCU: 0x3FF98, offset: 0x3FF98, size: 0x8, addend: 0x0, symName: __ZNSt3__14listI11TransactionNS_9allocatorIS1_EEEC1ERKS4_, symObjAddr: 0x8978, symBinAddr: 0x100009768, symSize: 0x34 }
  - { offsetInCU: 0x3FFD9, offset: 0x3FFD9, size: 0x8, addend: 0x0, symName: __ZN8nlohmann16json_abi_v3_11_36detail8json_refINS0_10basic_jsonINSt3__13mapENS4_6vectorENS4_12basic_stringIcNS4_11char_traitsIcEENS4_9allocatorIcEEEEbxydSA_NS0_14adl_serializerENS6_IhNSA_IhEEEEvEEEC1IJdELi0EEEDpOT_, symObjAddr: 0x89AC, symBinAddr: 0x10000979C, symSize: 0x34 }
  - { offsetInCU: 0x40023, offset: 0x40023, size: 0x8, addend: 0x0, symName: __ZN8nlohmann16json_abi_v3_11_36detail8json_refINS0_10basic_jsonINSt3__13mapENS4_6vectorENS4_12basic_stringIcNS4_11char_traitsIcEENS4_9allocatorIcEEEEbxydSA_NS0_14adl_serializerENS6_IhNSA_IhEEEEvEEEC1ESt16initializer_listISH_E, symObjAddr: 0x89E0, symBinAddr: 0x1000097D0, symSize: 0x3C }
  - { offsetInCU: 0x4005C, offset: 0x4005C, size: 0x8, addend: 0x0, symName: __ZN8nlohmann16json_abi_v3_11_310basic_jsonINSt3__13mapENS2_6vectorENS2_12basic_stringIcNS2_11char_traitsIcEENS2_9allocatorIcEEEEbxydS8_NS0_14adl_serializerENS4_IhNS8_IhEEEEvEC1ESt16initializer_listINS0_6detail8json_refISE_EEEbNSG_7value_tE, symObjAddr: 0x8A1C, symBinAddr: 0x10000980C, symSize: 0x58 }
  - { offsetInCU: 0x400B3, offset: 0x400B3, size: 0x8, addend: 0x0, symName: __ZN8nlohmann16json_abi_v3_11_36detail8json_refINS0_10basic_jsonINSt3__13mapENS4_6vectorENS4_12basic_stringIcNS4_11char_traitsIcEENS4_9allocatorIcEEEEbxydSA_NS0_14adl_serializerENS6_IhNSA_IhEEEEvEEED1Ev, symObjAddr: 0x8A74, symBinAddr: 0x100009864, symSize: 0x2C }
  - { offsetInCU: 0x400DD, offset: 0x400DD, size: 0x8, addend: 0x0, symName: __ZN8nlohmann16json_abi_v3_11_310basic_jsonINSt3__13mapENS2_6vectorENS2_12basic_stringIcNS2_11char_traitsIcEENS2_9allocatorIcEEEEbxydS8_NS0_14adl_serializerENS4_IhNS8_IhEEEEvE9push_backERKSE_, symObjAddr: 0x8AA0, symBinAddr: 0x100009890, symSize: 0x1B0 }
  - { offsetInCU: 0x40121, offset: 0x40121, size: 0x8, addend: 0x0, symName: __ZN8nlohmann16json_abi_v3_11_36detail8json_refINS0_10basic_jsonINSt3__13mapENS4_6vectorENS4_12basic_stringIcNS4_11char_traitsIcEENS4_9allocatorIcEEEEbxydSA_NS0_14adl_serializerENS6_IhNSA_IhEEEEvEEEC1IJRSG_ELi0EEEDpOT_, symObjAddr: 0x8C50, symBinAddr: 0x100009A40, symSize: 0x34 }
  - { offsetInCU: 0x4016A, offset: 0x4016A, size: 0x8, addend: 0x0, symName: __Z17convertToJsonListNSt3__14listI11TransactionNS_9allocatorIS1_EEEENS_12basic_stringIcNS_11char_traitsIcEENS2_IcEEEE, symObjAddr: 0x8C84, symBinAddr: 0x100009A74, symSize: 0x2DC }
  - { offsetInCU: 0x4021C, offset: 0x4021C, size: 0x8, addend: 0x0, symName: __ZNSt3__14listI11TransactionNS_9allocatorIS1_EEE5beginB8ue170006Ev, symObjAddr: 0x8F60, symBinAddr: 0x100009D50, symSize: 0x2C }
  - { offsetInCU: 0x40242, offset: 0x40242, size: 0x8, addend: 0x0, symName: __ZNSt3__14listI11TransactionNS_9allocatorIS1_EEE3endB8ue170006Ev, symObjAddr: 0x8F8C, symBinAddr: 0x100009D7C, symSize: 0x2C }
  - { offsetInCU: 0x40267, offset: 0x40267, size: 0x8, addend: 0x0, symName: __Z14makeJsonObjectN8nlohmann16json_abi_v3_11_310basic_jsonINSt3__13mapENS2_6vectorENS2_12basic_stringIcNS2_11char_traitsIcEENS2_9allocatorIcEEEEbxydS8_NS0_14adl_serializerENS4_IhNS8_IhEEEEvEESE_SE_, symObjAddr: 0x8FB8, symBinAddr: 0x100009DA8, symSize: 0x1E8 }
  - { offsetInCU: 0x402B9, offset: 0x402B9, size: 0x8, addend: 0x0, symName: __Z35getMatchedProbableMatchAndUnmatchedNSt3__112basic_stringIcNS_11char_traitsIcEENS_9allocatorIcEEEES5_S5_S5_S5_S5_, symObjAddr: 0x91A0, symBinAddr: 0x100009F90, symSize: 0x714 }
  - { offsetInCU: 0x403DA, offset: 0x403DA, size: 0x8, addend: 0x0, symName: __ZNSt3__14listINS0_I11TransactionNS_9allocatorIS1_EEEENS2_IS4_EEEC1ERKS6_, symObjAddr: 0x98B4, symBinAddr: 0x10000A6A4, symSize: 0x34 }
  - { offsetInCU: 0x40415, offset: 0x40415, size: 0x8, addend: 0x0, symName: __ZN8nlohmann16json_abi_v3_11_310basic_jsonINSt3__13mapENS2_6vectorENS2_12basic_stringIcNS2_11char_traitsIcEENS2_9allocatorIcEEEEbxydS8_NS0_14adl_serializerENS4_IhNS8_IhEEEEvEC1ERKSE_, symObjAddr: 0x98E8, symBinAddr: 0x10000A6D8, symSize: 0x34 }
  - { offsetInCU: 0x4044E, offset: 0x4044E, size: 0x8, addend: 0x0, symName: __Z17displayJsonInFileN8nlohmann16json_abi_v3_11_310basic_jsonINSt3__13mapENS2_6vectorENS2_12basic_stringIcNS2_11char_traitsIcEENS2_9allocatorIcEEEEbxydS8_NS0_14adl_serializerENS4_IhNS8_IhEEEEvEESA_, symObjAddr: 0x991C, symBinAddr: 0x10000A70C, symSize: 0xF8 }
  - { offsetInCU: 0x40499, offset: 0x40499, size: 0x8, addend: 0x0, symName: __Z48getMatchedProbableMatchAndUnmatchedFromJsonListsN8nlohmann16json_abi_v3_11_310basic_jsonINSt3__13mapENS2_6vectorENS2_12basic_stringIcNS2_11char_traitsIcEENS2_9allocatorIcEEEEbxydS8_NS0_14adl_serializerENS4_IhNS8_IhEEEEvEESE_SA_SA_SA_, symObjAddr: 0x9A14, symBinAddr: 0x10000A804, symSize: 0x61C }
  - { offsetInCU: 0x405A9, offset: 0x405A9, size: 0x8, addend: 0x0, symName: __Z18readForAdjustmentsRNSt3__14listINS0_I11TransactionNS_9allocatorIS1_EEEENS2_IS4_EEEENS_12basic_stringIcNS_11char_traitsIcEENS2_IcEEEESC_, symObjAddr: 0xA030, symBinAddr: 0x10000AE20, symSize: 0x514 }
  - { offsetInCU: 0x4073F, offset: 0x4073F, size: 0x8, addend: 0x0, symName: __ZN8nlohmann16json_abi_v3_11_310basic_jsonINSt3__13mapENS2_6vectorENS2_12basic_stringIcNS2_11char_traitsIcEENS2_9allocatorIcEEEEbxydS8_NS0_14adl_serializerENS4_IhNS8_IhEEEEvEixESA_, symObjAddr: 0xA544, symBinAddr: 0x10000B334, symSize: 0x18C }
  - { offsetInCU: 0x40793, offset: 0x40793, size: 0x8, addend: 0x0, symName: __ZNK8nlohmann16json_abi_v3_11_310basic_jsonINSt3__13mapENS2_6vectorENS2_12basic_stringIcNS2_11char_traitsIcEENS2_9allocatorIcEEEEbxydS8_NS0_14adl_serializerENS4_IhNS8_IhEEEEvE4sizeEv, symObjAddr: 0xA6D0, symBinAddr: 0x10000B4C0, symSize: 0xA4 }
  - { offsetInCU: 0x407B9, offset: 0x407B9, size: 0x8, addend: 0x0, symName: __Z18readForAdjustmentsRNSt3__14listI11TransactionNS_9allocatorIS1_EEEENS_12basic_stringIcNS_11char_traitsIcEENS2_IcEEEESA_, symObjAddr: 0xA79C, symBinAddr: 0x10000B58C, symSize: 0x440 }
  - { offsetInCU: 0x408E3, offset: 0x408E3, size: 0x8, addend: 0x0, symName: __Z22readForAdjustmentsJsonRNSt3__14listINS0_I11TransactionNS_9allocatorIS1_EEEENS2_IS4_EEEEN8nlohmann16json_abi_v3_11_310basic_jsonINS_3mapENS_6vectorENS_12basic_stringIcNS_11char_traitsIcEENS2_IcEEEEbxydS2_NS9_14adl_serializerENSC_IhNS2_IhEEEEvEESH_, symObjAddr: 0xABDC, symBinAddr: 0x10000B9CC, symSize: 0x464 }
  - { offsetInCU: 0x40A55, offset: 0x40A55, size: 0x8, addend: 0x0, symName: __Z22readForAdjustmentsJsonRNSt3__14listI11TransactionNS_9allocatorIS1_EEEENS_12basic_stringIcNS_11char_traitsIcEENS2_IcEEEEN8nlohmann16json_abi_v3_11_310basic_jsonINS_3mapENS_6vectorESA_bxydS2_NSC_14adl_serializerENSF_IhNS2_IhEEEEvEE, symObjAddr: 0xB040, symBinAddr: 0x10000BE30, symSize: 0x370 }
  - { offsetInCU: 0x40B5A, offset: 0x40B5A, size: 0x8, addend: 0x0, symName: __Z26determineNameOfTheLastListNSt3__112basic_stringIcNS_11char_traitsIcEENS_9allocatorIcEEEES5_S5_, symObjAddr: 0xB3B0, symBinAddr: 0x10000C1A0, symSize: 0x21C }
  - { offsetInCU: 0x40BF4, offset: 0x40BF4, size: 0x8, addend: 0x0, symName: __ZNSt3__112basic_stringIcNS_11char_traitsIcEENS_9allocatorIcEEEC1B8ue170006Ev, symObjAddr: 0xB5CC, symBinAddr: 0x10000C3BC, symSize: 0x2C }
  - { offsetInCU: 0x40C1E, offset: 0x40C1E, size: 0x8, addend: 0x0, symName: __ZNK8nlohmann16json_abi_v3_11_36detail9iter_implINS0_10basic_jsonINSt3__13mapENS4_6vectorENS4_12basic_stringIcNS4_11char_traitsIcEENS4_9allocatorIcEEEEbxydSA_NS0_14adl_serializerENS6_IhNSA_IhEEEEvEEE3keyEv, symObjAddr: 0xB5F8, symBinAddr: 0x10000C3E8, symSize: 0x144 }
  - { offsetInCU: 0x40C44, offset: 0x40C44, size: 0x8, addend: 0x0, symName: __ZNR8nlohmann16json_abi_v3_11_36detail9iter_implINS0_10basic_jsonINSt3__13mapENS4_6vectorENS4_12basic_stringIcNS4_11char_traitsIcEENS4_9allocatorIcEEEEbxydSA_NS0_14adl_serializerENS6_IhNSA_IhEEEEvEEEppEi, symObjAddr: 0xB73C, symBinAddr: 0x10000C52C, symSize: 0x48 }
  - { offsetInCU: 0x40C85, offset: 0x40C85, size: 0x8, addend: 0x0, symName: __Z30determineNameOfTheLastListJsonNSt3__112basic_stringIcNS_11char_traitsIcEENS_9allocatorIcEEEES5_N8nlohmann16json_abi_v3_11_310basic_jsonINS_3mapENS_6vectorES5_bxydS3_NS7_14adl_serializerENSA_IhNS3_IhEEEEvEE, symObjAddr: 0xB784, symBinAddr: 0x10000C574, symSize: 0x17C }
  - { offsetInCU: 0x40CFB, offset: 0x40CFB, size: 0x8, addend: 0x0, symName: __Z18takeOutTransactionRNSt3__14listINS0_I11TransactionNS_9allocatorIS1_EEEENS2_IS4_EEEERS4_iNS_12basic_stringIcNS_11char_traitsIcEENS2_IcEEEE, symObjAddr: 0xB900, symBinAddr: 0x10000C6F0, symSize: 0x1BC }
  - { offsetInCU: 0x40D90, offset: 0x40D90, size: 0x8, addend: 0x0, symName: __ZN11Transaction5getIdEv, symObjAddr: 0xBABC, symBinAddr: 0x10000C8AC, symSize: 0x18 }
  - { offsetInCU: 0x40DB6, offset: 0x40DB6, size: 0x8, addend: 0x0, symName: __Z18takeOutTransactionRNSt3__14listI11TransactionNS_9allocatorIS1_EEEES5_iNS_12basic_stringIcNS_11char_traitsIcEENS2_IcEEEE, symObjAddr: 0xBAD4, symBinAddr: 0x10000C8C4, symSize: 0x168 }
  - { offsetInCU: 0x40E2D, offset: 0x40E2D, size: 0x8, addend: 0x0, symName: __Z40reorderListofManuallyMatchedTransactionsRNSt3__14listI11TransactionNS_9allocatorIS1_EEEENS0_IS4_NS2_IS4_EEEE, symObjAddr: 0xBC3C, symBinAddr: 0x10000CA2C, symSize: 0x1C4 }
  - { offsetInCU: 0x40E94, offset: 0x40E94, size: 0x8, addend: 0x0, symName: __Z50reorderListofManuallyMatchedTransactionsWithSecondRNSt3__14listI11TransactionNS_9allocatorIS1_EEEENS0_IS4_NS2_IS4_EEEE, symObjAddr: 0xBE00, symBinAddr: 0x10000CBF0, symSize: 0x1EC }
  - { offsetInCU: 0x40EFB, offset: 0x40EFB, size: 0x8, addend: 0x0, symName: __ZNSt3__14listINS0_I11TransactionNS_9allocatorIS1_EEEENS2_IS4_EEE5beginB8ue170006Ev, symObjAddr: 0xC028, symBinAddr: 0x10000CE18, symSize: 0x2C }
  - { offsetInCU: 0x40F21, offset: 0x40F21, size: 0x8, addend: 0x0, symName: __Z22addRelevantTransactionRNSt3__14listINS0_I11TransactionNS_9allocatorIS1_EEEENS2_IS4_EEEERS4_iNS_12basic_stringIcNS_11char_traitsIcEENS2_IcEEEE, symObjAddr: 0xC054, symBinAddr: 0x10000CE44, symSize: 0x288 }
  - { offsetInCU: 0x40FA5, offset: 0x40FA5, size: 0x8, addend: 0x0, symName: __ZNSt16invalid_argumentC1B8ue170006EPKc, symObjAddr: 0xC2DC, symBinAddr: 0x10000D0CC, symSize: 0x34 }
  - { offsetInCU: 0x40FFA, offset: 0x40FFA, size: 0x8, addend: 0x0, symName: __ZNSt3__114basic_ofstreamIcNS_11char_traitsIcEEEC1ERKNS_12basic_stringIcS2_NS_9allocatorIcEEEEj, symObjAddr: 0xC310, symBinAddr: 0x10000D100, symSize: 0x16C }
  - { offsetInCU: 0x41044, offset: 0x41044, size: 0x8, addend: 0x0, symName: __ZNK8nlohmann16json_abi_v3_11_310basic_jsonINSt3__13mapENS2_6vectorENS2_12basic_stringIcNS2_11char_traitsIcEENS2_9allocatorIcEEEEbxydS8_NS0_14adl_serializerENS4_IhNS8_IhEEEEvE4dumpEicbNS0_6detail15error_handler_tE, symObjAddr: 0xC4C8, symBinAddr: 0x10000D2B8, symSize: 0x1F4 }
  - { offsetInCU: 0x410CC, offset: 0x410CC, size: 0x8, addend: 0x0, symName: __ZNSt3__114basic_ofstreamIcNS_11char_traitsIcEEE5closeEv, symObjAddr: 0xC6BC, symBinAddr: 0x10000D4AC, symSize: 0x58 }
  - { offsetInCU: 0x410FA, offset: 0x410FA, size: 0x8, addend: 0x0, symName: __ZNSt3__114basic_ofstreamIcNS_11char_traitsIcEEED1Ev, symObjAddr: 0xC714, symBinAddr: 0x10000D504, symSize: 0x40 }
  - { offsetInCU: 0x41126, offset: 0x41126, size: 0x8, addend: 0x0, symName: __Z10repairListiNSt3__112basic_stringIcNS_11char_traitsIcEENS_9allocatorIcEEEES5_iS5_S5_S5_, symObjAddr: 0xC754, symBinAddr: 0x10000D544, symSize: 0x3398 }
  - { offsetInCU: 0x415AA, offset: 0x415AA, size: 0x8, addend: 0x0, symName: __ZNKSt3__112basic_stringIcNS_11char_traitsIcEENS_9allocatorIcEEE4findB8ue170006ERKS5_m, symObjAddr: 0xFB10, symBinAddr: 0x100010900, symSize: 0x78 }
  - { offsetInCU: 0x415EF, offset: 0x415EF, size: 0x8, addend: 0x0, symName: __Z14repairListJsoniNSt3__112basic_stringIcNS_11char_traitsIcEENS_9allocatorIcEEEES5_iS5_S5_N8nlohmann16json_abi_v3_11_310basic_jsonINS_3mapENS_6vectorES5_bxydS3_NS7_14adl_serializerENSA_IhNS3_IhEEEEvEE, symObjAddr: 0xFB88, symBinAddr: 0x100010978, symSize: 0x2CC8 }
  - { offsetInCU: 0x41A62, offset: 0x41A62, size: 0x8, addend: 0x0, symName: __Z13manuallyMatchiNSt3__112basic_stringIcNS_11char_traitsIcEENS_9allocatorIcEEEES5_iS5_S5_S5_, symObjAddr: 0x12850, symBinAddr: 0x100013640, symSize: 0x7F24 }
  - { offsetInCU: 0x42223, offset: 0x42223, size: 0x8, addend: 0x0, symName: __ZNKSt3__14listINS0_I11TransactionNS_9allocatorIS1_EEEENS2_IS4_EEE4sizeB8ue170006Ev, symObjAddr: 0x1A774, symBinAddr: 0x10001B564, symSize: 0x28 }
  - { offsetInCU: 0x42249, offset: 0x42249, size: 0x8, addend: 0x0, symName: __ZNSt3__14listINS0_I11TransactionNS_9allocatorIS1_EEEENS2_IS4_EEE4backB8ue170006Ev, symObjAddr: 0x1A79C, symBinAddr: 0x10001B58C, symSize: 0x2C }
  - { offsetInCU: 0x4226F, offset: 0x4226F, size: 0x8, addend: 0x0, symName: __ZNSt3__14listINS0_I11TransactionNS_9allocatorIS1_EEEENS2_IS4_EEEC1EmRKS4_, symObjAddr: 0x1A7C8, symBinAddr: 0x10001B5B8, symSize: 0x3C }
  - { offsetInCU: 0x422B8, offset: 0x422B8, size: 0x8, addend: 0x0, symName: __Z17manuallyMatchJsoniNSt3__112basic_stringIcNS_11char_traitsIcEENS_9allocatorIcEEEES5_iS5_S5_N8nlohmann16json_abi_v3_11_310basic_jsonINS_3mapENS_6vectorES5_bxydS3_NS7_14adl_serializerENSA_IhNS3_IhEEEEvEE, symObjAddr: 0x1A804, symBinAddr: 0x10001B5F4, symSize: 0x7E90 }
  - { offsetInCU: 0x42A79, offset: 0x42A79, size: 0x8, addend: 0x0, symName: _main, symObjAddr: 0x22694, symBinAddr: 0x100023484, symSize: 0x19C }
  - { offsetInCU: 0x42A93, offset: 0x42A93, size: 0x8, addend: 0x0, symName: __ZNSt3__112basic_stringIcNS_11char_traitsIcEENS_9allocatorIcEEEC2B8ue170006ILi0EEEPKc, symObjAddr: 0x22830, symBinAddr: 0x100023620, symSize: 0x58 }
  - { offsetInCU: 0x42AD8, offset: 0x42AD8, size: 0x8, addend: 0x0, symName: __ZNSt3__117__compressed_pairINS_12basic_stringIcNS_11char_traitsIcEENS_9allocatorIcEEE5__repES5_EC1B8ue170006INS_18__default_init_tagESA_EEOT_OT0_, symObjAddr: 0x22888, symBinAddr: 0x100023678, symSize: 0x3C }
  - { offsetInCU: 0x42B30, offset: 0x42B30, size: 0x8, addend: 0x0, symName: __ZNSt3__111char_traitsIcE6lengthB8ue170006EPKc, symObjAddr: 0x228C4, symBinAddr: 0x1000236B4, symSize: 0x34 }
  - { offsetInCU: 0x42B53, offset: 0x42B53, size: 0x8, addend: 0x0, symName: __ZNSt3__117__compressed_pairINS_12basic_stringIcNS_11char_traitsIcEENS_9allocatorIcEEE5__repES5_EC2B8ue170006INS_18__default_init_tagESA_EEOT_OT0_, symObjAddr: 0x228F8, symBinAddr: 0x1000236E8, symSize: 0x3C }
  - { offsetInCU: 0x42BAB, offset: 0x42BAB, size: 0x8, addend: 0x0, symName: __ZNSt3__122__compressed_pair_elemINS_12basic_stringIcNS_11char_traitsIcEENS_9allocatorIcEEE5__repELi0ELb0EEC2B8ue170006ENS_18__default_init_tagE, symObjAddr: 0x22934, symBinAddr: 0x100023724, symSize: 0x14 }
  - { offsetInCU: 0x42BE0, offset: 0x42BE0, size: 0x8, addend: 0x0, symName: __ZNSt3__122__compressed_pair_elemINS_9allocatorIcEELi1ELb1EEC2B8ue170006ENS_18__default_init_tagE, symObjAddr: 0x22948, symBinAddr: 0x100023738, symSize: 0x2C }
  - { offsetInCU: 0x42C15, offset: 0x42C15, size: 0x8, addend: 0x0, symName: __ZNSt3__19allocatorIcEC2B8ue170006Ev, symObjAddr: 0x22974, symBinAddr: 0x100023764, symSize: 0x2C }
  - { offsetInCU: 0x42C3F, offset: 0x42C3F, size: 0x8, addend: 0x0, symName: __ZNSt3__116__non_trivial_ifILb1ENS_9allocatorIcEEEC2B8ue170006Ev, symObjAddr: 0x229A0, symBinAddr: 0x100023790, symSize: 0x14 }
  - { offsetInCU: 0x42C69, offset: 0x42C69, size: 0x8, addend: 0x0, symName: __ZN11TransactionC2ERKS_, symObjAddr: 0x229E4, symBinAddr: 0x1000237D4, symSize: 0xC8 }
  - { offsetInCU: 0x42C9F, offset: 0x42C9F, size: 0x8, addend: 0x0, symName: __ZN11TransactionD2Ev, symObjAddr: 0x22AAC, symBinAddr: 0x10002389C, symSize: 0x48 }
  - { offsetInCU: 0x42CCC, offset: 0x42CCC, size: 0x8, addend: 0x0, symName: __ZNSt3__14listI11TransactionNS_9allocatorIS1_EEED2Ev, symObjAddr: 0x22AF4, symBinAddr: 0x1000238E4, symSize: 0x2C }
  - { offsetInCU: 0x42CF9, offset: 0x42CF9, size: 0x8, addend: 0x0, symName: __ZNSt3__110__list_impI11TransactionNS_9allocatorIS1_EEED2Ev, symObjAddr: 0x22B20, symBinAddr: 0x100023910, symSize: 0x2C }
  - { offsetInCU: 0x42D25, offset: 0x42D25, size: 0x8, addend: 0x0, symName: __ZNSt3__110__list_impI11TransactionNS_9allocatorIS1_EEE5clearEv, symObjAddr: 0x22B4C, symBinAddr: 0x10002393C, symSize: 0xE0 }
  - { offsetInCU: 0x42D95, offset: 0x42D95, size: 0x8, addend: 0x0, symName: __ZNKSt3__110__list_impI11TransactionNS_9allocatorIS1_EEE5emptyB8ue170006Ev, symObjAddr: 0x22C2C, symBinAddr: 0x100023A1C, symSize: 0x34 }
  - { offsetInCU: 0x42DBB, offset: 0x42DBB, size: 0x8, addend: 0x0, symName: __ZNSt3__110__list_impI11TransactionNS_9allocatorIS1_EEE12__node_allocB8ue170006Ev, symObjAddr: 0x22C60, symBinAddr: 0x100023A50, symSize: 0x28 }
  - { offsetInCU: 0x42DE1, offset: 0x42DE1, size: 0x8, addend: 0x0, symName: __ZNKSt3__110__list_impI11TransactionNS_9allocatorIS1_EEE13__end_as_linkB8ue170006Ev, symObjAddr: 0x22C88, symBinAddr: 0x100023A78, symSize: 0x44 }
  - { offsetInCU: 0x42E07, offset: 0x42E07, size: 0x8, addend: 0x0, symName: __ZNSt3__110__list_impI11TransactionNS_9allocatorIS1_EEE14__unlink_nodesEPNS_16__list_node_baseIS1_PvEES8_, symObjAddr: 0x22CCC, symBinAddr: 0x100023ABC, symSize: 0x3C }
  - { offsetInCU: 0x42E3C, offset: 0x42E3C, size: 0x8, addend: 0x0, symName: __ZNSt3__110__list_impI11TransactionNS_9allocatorIS1_EEE4__szB8ue170006Ev, symObjAddr: 0x22D08, symBinAddr: 0x100023AF8, symSize: 0x28 }
  - { offsetInCU: 0x42E62, offset: 0x42E62, size: 0x8, addend: 0x0, symName: __ZNSt3__116__list_node_baseI11TransactionPvE9__as_nodeB8ue170006Ev, symObjAddr: 0x22D30, symBinAddr: 0x100023B20, symSize: 0x24 }
  - { offsetInCU: 0x42E88, offset: 0x42E88, size: 0x8, addend: 0x0, symName: __ZNSt3__116allocator_traitsINS_9allocatorINS_11__list_nodeI11TransactionPvEEEEE7destroyB8ue170006IS3_vvEEvRS6_PT_, symObjAddr: 0x22D54, symBinAddr: 0x100023B44, symSize: 0x28 }
  - { offsetInCU: 0x42EC3, offset: 0x42EC3, size: 0x8, addend: 0x0, symName: __ZNSt3__116allocator_traitsINS_9allocatorINS_11__list_nodeI11TransactionPvEEEEE10deallocateB8ue170006ERS6_PS5_m, symObjAddr: 0x22D7C, symBinAddr: 0x100023B6C, symSize: 0x34 }
  - { offsetInCU: 0x42F05, offset: 0x42F05, size: 0x8, addend: 0x0, symName: __ZNKSt3__110__list_impI11TransactionNS_9allocatorIS1_EEE4__szB8ue170006Ev, symObjAddr: 0x22DB0, symBinAddr: 0x100023BA0, symSize: 0x28 }
  - { offsetInCU: 0x42F2B, offset: 0x42F2B, size: 0x8, addend: 0x0, symName: __ZNKSt3__117__compressed_pairImNS_9allocatorINS_11__list_nodeI11TransactionPvEEEEE5firstB8ue170006Ev, symObjAddr: 0x22DD8, symBinAddr: 0x100023BC8, symSize: 0x24 }
  - { offsetInCU: 0x42F51, offset: 0x42F51, size: 0x8, addend: 0x0, symName: __ZNKSt3__122__compressed_pair_elemImLi0ELb0EE5__getB8ue170006Ev, symObjAddr: 0x22DFC, symBinAddr: 0x100023BEC, symSize: 0x14 }
  - { offsetInCU: 0x42F77, offset: 0x42F77, size: 0x8, addend: 0x0, symName: __ZNSt3__117__compressed_pairImNS_9allocatorINS_11__list_nodeI11TransactionPvEEEEE6secondB8ue170006Ev, symObjAddr: 0x22E10, symBinAddr: 0x100023C00, symSize: 0x24 }
  - { offsetInCU: 0x42F9D, offset: 0x42F9D, size: 0x8, addend: 0x0, symName: __ZNSt3__122__compressed_pair_elemINS_9allocatorINS_11__list_nodeI11TransactionPvEEEELi1ELb1EE5__getB8ue170006Ev, symObjAddr: 0x22E34, symBinAddr: 0x100023C24, symSize: 0x14 }
  - { offsetInCU: 0x42FC3, offset: 0x42FC3, size: 0x8, addend: 0x0, symName: __ZNSt3__126__list_node_pointer_traitsI11TransactionPvE26__unsafe_link_pointer_castB8ue170006EPNS_16__list_node_baseIS1_S2_EE, symObjAddr: 0x22E48, symBinAddr: 0x100023C38, symSize: 0x14 }
  - { offsetInCU: 0x42FE7, offset: 0x42FE7, size: 0x8, addend: 0x0, symName: __ZNSt3__116__list_node_baseI11TransactionPvE6__selfB8ue170006Ev, symObjAddr: 0x22E5C, symBinAddr: 0x100023C4C, symSize: 0x24 }
  - { offsetInCU: 0x43013, offset: 0x43013, size: 0x8, addend: 0x0, symName: __ZNSt3__114pointer_traitsIPNS_16__list_node_baseI11TransactionPvEEE10pointer_toB8ue170006ERS4_, symObjAddr: 0x22E80, symBinAddr: 0x100023C70, symSize: 0x14 }
  - { offsetInCU: 0x43036, offset: 0x43036, size: 0x8, addend: 0x0, symName: __ZNSt3__117__compressed_pairImNS_9allocatorINS_11__list_nodeI11TransactionPvEEEEE5firstB8ue170006Ev, symObjAddr: 0x22E94, symBinAddr: 0x100023C84, symSize: 0x24 }
  - { offsetInCU: 0x4305C, offset: 0x4305C, size: 0x8, addend: 0x0, symName: __ZNSt3__122__compressed_pair_elemImLi0ELb0EE5__getB8ue170006Ev, symObjAddr: 0x22EB8, symBinAddr: 0x100023CA8, symSize: 0x14 }
  - { offsetInCU: 0x43082, offset: 0x43082, size: 0x8, addend: 0x0, symName: __ZNSt3__19allocatorINS_11__list_nodeI11TransactionPvEEE10deallocateB8ue170006EPS4_m, symObjAddr: 0x22F14, symBinAddr: 0x100023D04, symSize: 0x44 }
  - { offsetInCU: 0x430C4, offset: 0x430C4, size: 0x8, addend: 0x0, symName: __ZNSt3__14listINS0_I11TransactionNS_9allocatorIS1_EEEENS2_IS4_EEE3endB8ue170006Ev, symObjAddr: 0x23080, symBinAddr: 0x100023E70, symSize: 0x2C }
  - { offsetInCU: 0x430EA, offset: 0x430EA, size: 0x8, addend: 0x0, symName: __ZNSt3__110__list_impINS_4listI11TransactionNS_9allocatorIS2_EEEENS3_IS5_EEE3endB8ue170006Ev, symObjAddr: 0x230AC, symBinAddr: 0x100023E9C, symSize: 0x34 }
  - { offsetInCU: 0x43110, offset: 0x43110, size: 0x8, addend: 0x0, symName: __ZNKSt3__110__list_impINS_4listI11TransactionNS_9allocatorIS2_EEEENS3_IS5_EEE13__end_as_linkB8ue170006Ev, symObjAddr: 0x230E0, symBinAddr: 0x100023ED0, symSize: 0x44 }
  - { offsetInCU: 0x43136, offset: 0x43136, size: 0x8, addend: 0x0, symName: __ZNSt3__115__list_iteratorINS_4listI11TransactionNS_9allocatorIS2_EEEEPvEC1B8ue170006EPNS_16__list_node_baseIS5_S6_EE, symObjAddr: 0x23124, symBinAddr: 0x100023F14, symSize: 0x34 }
  - { offsetInCU: 0x4316F, offset: 0x4316F, size: 0x8, addend: 0x0, symName: __ZNSt3__126__list_node_pointer_traitsINS_4listI11TransactionNS_9allocatorIS2_EEEEPvE26__unsafe_link_pointer_castB8ue170006EPNS_16__list_node_baseIS5_S6_EE, symObjAddr: 0x23158, symBinAddr: 0x100023F48, symSize: 0x14 }
  - { offsetInCU: 0x43193, offset: 0x43193, size: 0x8, addend: 0x0, symName: __ZNSt3__116__list_node_baseINS_4listI11TransactionNS_9allocatorIS2_EEEEPvE6__selfB8ue170006Ev, symObjAddr: 0x2316C, symBinAddr: 0x100023F5C, symSize: 0x24 }
  - { offsetInCU: 0x431BF, offset: 0x431BF, size: 0x8, addend: 0x0, symName: __ZNSt3__114pointer_traitsIPNS_16__list_node_baseINS_4listI11TransactionNS_9allocatorIS3_EEEEPvEEE10pointer_toB8ue170006ERS8_, symObjAddr: 0x23190, symBinAddr: 0x100023F80, symSize: 0x14 }
  - { offsetInCU: 0x431E2, offset: 0x431E2, size: 0x8, addend: 0x0, symName: __ZNSt3__115__list_iteratorINS_4listI11TransactionNS_9allocatorIS2_EEEEPvEC2B8ue170006EPNS_16__list_node_baseIS5_S6_EE, symObjAddr: 0x231A4, symBinAddr: 0x100023F94, symSize: 0x20 }
  - { offsetInCU: 0x4321B, offset: 0x4321B, size: 0x8, addend: 0x0, symName: __ZNSt3__14listINS0_I11TransactionNS_9allocatorIS1_EEEENS2_IS4_EEED2Ev, symObjAddr: 0x231C4, symBinAddr: 0x100023FB4, symSize: 0x2C }
  - { offsetInCU: 0x43248, offset: 0x43248, size: 0x8, addend: 0x0, symName: __ZNSt3__110__list_impINS_4listI11TransactionNS_9allocatorIS2_EEEENS3_IS5_EEED2Ev, symObjAddr: 0x231F0, symBinAddr: 0x100023FE0, symSize: 0x2C }
  - { offsetInCU: 0x43274, offset: 0x43274, size: 0x8, addend: 0x0, symName: __ZNSt3__110__list_impINS_4listI11TransactionNS_9allocatorIS2_EEEENS3_IS5_EEE5clearEv, symObjAddr: 0x2321C, symBinAddr: 0x10002400C, symSize: 0xE0 }
  - { offsetInCU: 0x432E4, offset: 0x432E4, size: 0x8, addend: 0x0, symName: __ZNKSt3__110__list_impINS_4listI11TransactionNS_9allocatorIS2_EEEENS3_IS5_EEE5emptyB8ue170006Ev, symObjAddr: 0x232FC, symBinAddr: 0x1000240EC, symSize: 0x34 }
  - { offsetInCU: 0x4330A, offset: 0x4330A, size: 0x8, addend: 0x0, symName: __ZNSt3__110__list_impINS_4listI11TransactionNS_9allocatorIS2_EEEENS3_IS5_EEE12__node_allocB8ue170006Ev, symObjAddr: 0x23330, symBinAddr: 0x100024120, symSize: 0x28 }
  - { offsetInCU: 0x43330, offset: 0x43330, size: 0x8, addend: 0x0, symName: __ZNSt3__110__list_impINS_4listI11TransactionNS_9allocatorIS2_EEEENS3_IS5_EEE14__unlink_nodesEPNS_16__list_node_baseIS5_PvEESB_, symObjAddr: 0x23358, symBinAddr: 0x100024148, symSize: 0x3C }
  - { offsetInCU: 0x43365, offset: 0x43365, size: 0x8, addend: 0x0, symName: __ZNSt3__110__list_impINS_4listI11TransactionNS_9allocatorIS2_EEEENS3_IS5_EEE4__szB8ue170006Ev, symObjAddr: 0x23394, symBinAddr: 0x100024184, symSize: 0x28 }
  - { offsetInCU: 0x4338B, offset: 0x4338B, size: 0x8, addend: 0x0, symName: __ZNSt3__116__list_node_baseINS_4listI11TransactionNS_9allocatorIS2_EEEEPvE9__as_nodeB8ue170006Ev, symObjAddr: 0x233BC, symBinAddr: 0x1000241AC, symSize: 0x24 }
  - { offsetInCU: 0x433B1, offset: 0x433B1, size: 0x8, addend: 0x0, symName: __ZNSt3__116allocator_traitsINS_9allocatorINS_11__list_nodeINS_4listI11TransactionNS1_IS4_EEEEPvEEEEE7destroyB8ue170006IS6_vvEEvRS9_PT_, symObjAddr: 0x233E0, symBinAddr: 0x1000241D0, symSize: 0x28 }
  - { offsetInCU: 0x433EC, offset: 0x433EC, size: 0x8, addend: 0x0, symName: __ZNSt3__116allocator_traitsINS_9allocatorINS_11__list_nodeINS_4listI11TransactionNS1_IS4_EEEEPvEEEEE10deallocateB8ue170006ERS9_PS8_m, symObjAddr: 0x23408, symBinAddr: 0x1000241F8, symSize: 0x34 }
  - { offsetInCU: 0x4342E, offset: 0x4342E, size: 0x8, addend: 0x0, symName: __ZNKSt3__110__list_impINS_4listI11TransactionNS_9allocatorIS2_EEEENS3_IS5_EEE4__szB8ue170006Ev, symObjAddr: 0x2343C, symBinAddr: 0x10002422C, symSize: 0x28 }
  - { offsetInCU: 0x43454, offset: 0x43454, size: 0x8, addend: 0x0, symName: __ZNKSt3__117__compressed_pairImNS_9allocatorINS_11__list_nodeINS_4listI11TransactionNS1_IS4_EEEEPvEEEEE5firstB8ue170006Ev, symObjAddr: 0x23464, symBinAddr: 0x100024254, symSize: 0x24 }
  - { offsetInCU: 0x4347A, offset: 0x4347A, size: 0x8, addend: 0x0, symName: __ZNSt3__117__compressed_pairImNS_9allocatorINS_11__list_nodeINS_4listI11TransactionNS1_IS4_EEEEPvEEEEE6secondB8ue170006Ev, symObjAddr: 0x23488, symBinAddr: 0x100024278, symSize: 0x24 }
  - { offsetInCU: 0x434A0, offset: 0x434A0, size: 0x8, addend: 0x0, symName: __ZNSt3__122__compressed_pair_elemINS_9allocatorINS_11__list_nodeINS_4listI11TransactionNS1_IS4_EEEEPvEEEELi1ELb1EE5__getB8ue170006Ev, symObjAddr: 0x234AC, symBinAddr: 0x10002429C, symSize: 0x14 }
  - { offsetInCU: 0x434C6, offset: 0x434C6, size: 0x8, addend: 0x0, symName: __ZNSt3__117__compressed_pairImNS_9allocatorINS_11__list_nodeINS_4listI11TransactionNS1_IS4_EEEEPvEEEEE5firstB8ue170006Ev, symObjAddr: 0x234C0, symBinAddr: 0x1000242B0, symSize: 0x24 }
  - { offsetInCU: 0x434EC, offset: 0x434EC, size: 0x8, addend: 0x0, symName: __ZNSt3__19allocatorINS_11__list_nodeINS_4listI11TransactionNS0_IS3_EEEEPvEEE10deallocateB8ue170006EPS7_m, symObjAddr: 0x2352C, symBinAddr: 0x10002431C, symSize: 0x44 }
  - { offsetInCU: 0x4352E, offset: 0x4352E, size: 0x8, addend: 0x0, symName: __ZNSt3__19allocatorIcEC1B8ue170006Ev, symObjAddr: 0x23570, symBinAddr: 0x100024360, symSize: 0x2C }
  - { offsetInCU: 0x43558, offset: 0x43558, size: 0x8, addend: 0x0, symName: __ZNSt3__112basic_stringIcNS_11char_traitsIcEENS_9allocatorIcEEE15__make_iteratorB8ue170006EPc, symObjAddr: 0x2359C, symBinAddr: 0x10002438C, symSize: 0x30 }
  - { offsetInCU: 0x4358D, offset: 0x4358D, size: 0x8, addend: 0x0, symName: __ZNSt3__112basic_stringIcNS_11char_traitsIcEENS_9allocatorIcEEE13__get_pointerB8ue170006Ev, symObjAddr: 0x235CC, symBinAddr: 0x1000243BC, symSize: 0x54 }
  - { offsetInCU: 0x435B3, offset: 0x435B3, size: 0x8, addend: 0x0, symName: __ZNSt3__111__wrap_iterIPcEC1B8ue170006ES1_, symObjAddr: 0x23620, symBinAddr: 0x100024410, symSize: 0x34 }
  - { offsetInCU: 0x435EB, offset: 0x435EB, size: 0x8, addend: 0x0, symName: __ZNSt3__111__wrap_iterIPcEC2B8ue170006ES1_, symObjAddr: 0x23654, symBinAddr: 0x100024444, symSize: 0x20 }
  - { offsetInCU: 0x43623, offset: 0x43623, size: 0x8, addend: 0x0, symName: __ZNKSt3__112basic_stringIcNS_11char_traitsIcEENS_9allocatorIcEEE9__is_longB8ue170006Ev, symObjAddr: 0x23674, symBinAddr: 0x100024464, symSize: 0x38 }
  - { offsetInCU: 0x43649, offset: 0x43649, size: 0x8, addend: 0x0, symName: __ZNSt3__112basic_stringIcNS_11char_traitsIcEENS_9allocatorIcEEE18__get_long_pointerB8ue170006Ev, symObjAddr: 0x236AC, symBinAddr: 0x10002449C, symSize: 0x28 }
  - { offsetInCU: 0x4366F, offset: 0x4366F, size: 0x8, addend: 0x0, symName: __ZNSt3__112basic_stringIcNS_11char_traitsIcEENS_9allocatorIcEEE19__get_short_pointerB8ue170006Ev, symObjAddr: 0x236D4, symBinAddr: 0x1000244C4, symSize: 0x28 }
  - { offsetInCU: 0x43695, offset: 0x43695, size: 0x8, addend: 0x0, symName: __ZNKSt3__117__compressed_pairINS_12basic_stringIcNS_11char_traitsIcEENS_9allocatorIcEEE5__repES5_E5firstB8ue170006Ev, symObjAddr: 0x236FC, symBinAddr: 0x1000244EC, symSize: 0x24 }
  - { offsetInCU: 0x436BB, offset: 0x436BB, size: 0x8, addend: 0x0, symName: __ZNKSt3__122__compressed_pair_elemINS_12basic_stringIcNS_11char_traitsIcEENS_9allocatorIcEEE5__repELi0ELb0EE5__getB8ue170006Ev, symObjAddr: 0x23720, symBinAddr: 0x100024510, symSize: 0x14 }
  - { offsetInCU: 0x436E1, offset: 0x436E1, size: 0x8, addend: 0x0, symName: __ZNSt3__117__compressed_pairINS_12basic_stringIcNS_11char_traitsIcEENS_9allocatorIcEEE5__repES5_E5firstB8ue170006Ev, symObjAddr: 0x23734, symBinAddr: 0x100024524, symSize: 0x24 }
  - { offsetInCU: 0x43707, offset: 0x43707, size: 0x8, addend: 0x0, symName: __ZNSt3__122__compressed_pair_elemINS_12basic_stringIcNS_11char_traitsIcEENS_9allocatorIcEEE5__repELi0ELb0EE5__getB8ue170006Ev, symObjAddr: 0x23758, symBinAddr: 0x100024548, symSize: 0x14 }
  - { offsetInCU: 0x4372D, offset: 0x4372D, size: 0x8, addend: 0x0, symName: __ZNSt3__114pointer_traitsIPcE10pointer_toB8ue170006ERc, symObjAddr: 0x2376C, symBinAddr: 0x10002455C, symSize: 0x14 }
  - { offsetInCU: 0x43750, offset: 0x43750, size: 0x8, addend: 0x0, symName: __ZNKSt3__112basic_stringIcNS_11char_traitsIcEENS_9allocatorIcEEE4sizeB8ue170006Ev, symObjAddr: 0x23780, symBinAddr: 0x100024570, symSize: 0x54 }
  - { offsetInCU: 0x43776, offset: 0x43776, size: 0x8, addend: 0x0, symName: __ZNKSt3__112basic_stringIcNS_11char_traitsIcEENS_9allocatorIcEEE15__get_long_sizeB8ue170006Ev, symObjAddr: 0x237D4, symBinAddr: 0x1000245C4, symSize: 0x28 }
  - { offsetInCU: 0x4379C, offset: 0x4379C, size: 0x8, addend: 0x0, symName: __ZNKSt3__112basic_stringIcNS_11char_traitsIcEENS_9allocatorIcEEE16__get_short_sizeB8ue170006Ev, symObjAddr: 0x237FC, symBinAddr: 0x1000245EC, symSize: 0x34 }
  - { offsetInCU: 0x437C2, offset: 0x437C2, size: 0x8, addend: 0x0, symName: __ZNSt3__14listINS_12basic_stringIcNS_11char_traitsIcEENS_9allocatorIcEEEENS4_IS6_EEE5beginB8ue170006Ev, symObjAddr: 0x23830, symBinAddr: 0x100024620, symSize: 0x2C }
  - { offsetInCU: 0x437E8, offset: 0x437E8, size: 0x8, addend: 0x0, symName: __ZNSt3__110__list_impINS_12basic_stringIcNS_11char_traitsIcEENS_9allocatorIcEEEENS4_IS6_EEE5beginB8ue170006Ev, symObjAddr: 0x2385C, symBinAddr: 0x10002464C, symSize: 0x30 }
  - { offsetInCU: 0x4380E, offset: 0x4380E, size: 0x8, addend: 0x0, symName: __ZNSt3__115__list_iteratorINS_12basic_stringIcNS_11char_traitsIcEENS_9allocatorIcEEEEPvEC1B8ue170006EPNS_16__list_node_baseIS6_S7_EE, symObjAddr: 0x2388C, symBinAddr: 0x10002467C, symSize: 0x34 }
  - { offsetInCU: 0x43847, offset: 0x43847, size: 0x8, addend: 0x0, symName: __ZNSt3__115__list_iteratorINS_12basic_stringIcNS_11char_traitsIcEENS_9allocatorIcEEEEPvEC2B8ue170006EPNS_16__list_node_baseIS6_S7_EE, symObjAddr: 0x238C0, symBinAddr: 0x1000246B0, symSize: 0x20 }
  - { offsetInCU: 0x43880, offset: 0x43880, size: 0x8, addend: 0x0, symName: __ZNSt3__14listINS_12basic_stringIcNS_11char_traitsIcEENS_9allocatorIcEEEENS4_IS6_EEE3endB8ue170006Ev, symObjAddr: 0x238E0, symBinAddr: 0x1000246D0, symSize: 0x2C }
  - { offsetInCU: 0x438A6, offset: 0x438A6, size: 0x8, addend: 0x0, symName: __ZNSt3__110__list_impINS_12basic_stringIcNS_11char_traitsIcEENS_9allocatorIcEEEENS4_IS6_EEE3endB8ue170006Ev, symObjAddr: 0x2390C, symBinAddr: 0x1000246FC, symSize: 0x34 }
  - { offsetInCU: 0x438CC, offset: 0x438CC, size: 0x8, addend: 0x0, symName: __ZNKSt3__110__list_impINS_12basic_stringIcNS_11char_traitsIcEENS_9allocatorIcEEEENS4_IS6_EEE13__end_as_linkB8ue170006Ev, symObjAddr: 0x23940, symBinAddr: 0x100024730, symSize: 0x44 }
  - { offsetInCU: 0x438F2, offset: 0x438F2, size: 0x8, addend: 0x0, symName: __ZNSt3__126__list_node_pointer_traitsINS_12basic_stringIcNS_11char_traitsIcEENS_9allocatorIcEEEEPvE26__unsafe_link_pointer_castB8ue170006EPNS_16__list_node_baseIS6_S7_EE, symObjAddr: 0x23984, symBinAddr: 0x100024774, symSize: 0x14 }
  - { offsetInCU: 0x43916, offset: 0x43916, size: 0x8, addend: 0x0, symName: __ZNSt3__116__list_node_baseINS_12basic_stringIcNS_11char_traitsIcEENS_9allocatorIcEEEEPvE6__selfB8ue170006Ev, symObjAddr: 0x23998, symBinAddr: 0x100024788, symSize: 0x24 }
  - { offsetInCU: 0x43942, offset: 0x43942, size: 0x8, addend: 0x0, symName: __ZNSt3__114pointer_traitsIPNS_16__list_node_baseINS_12basic_stringIcNS_11char_traitsIcEENS_9allocatorIcEEEEPvEEE10pointer_toB8ue170006ERS9_, symObjAddr: 0x239BC, symBinAddr: 0x1000247AC, symSize: 0x14 }
  - { offsetInCU: 0x43965, offset: 0x43965, size: 0x8, addend: 0x0, symName: __ZNKSt3__112basic_stringIcNS_11char_traitsIcEENS_9allocatorIcEEE7compareINS_17basic_string_viewIcS2_EELi0EEEiRKT_, symObjAddr: 0x239D0, symBinAddr: 0x1000247C0, symSize: 0x12C }
  - { offsetInCU: 0x439E8, offset: 0x439E8, size: 0x8, addend: 0x0, symName: __ZNKSt3__112basic_stringIcNS_11char_traitsIcEENS_9allocatorIcEEEcvNS_17basic_string_viewIcS2_EEB8ue170006Ev, symObjAddr: 0x23AFC, symBinAddr: 0x1000248EC, symSize: 0x50 }
  - { offsetInCU: 0x43A0E, offset: 0x43A0E, size: 0x8, addend: 0x0, symName: __ZNKSt3__117basic_string_viewIcNS_11char_traitsIcEEE4sizeB8ue170006Ev, symObjAddr: 0x23B4C, symBinAddr: 0x10002493C, symSize: 0x18 }
  - { offsetInCU: 0x43A34, offset: 0x43A34, size: 0x8, addend: 0x0, symName: __ZNSt3__111char_traitsIcE7compareB8ue170006EPKcS3_m, symObjAddr: 0x23B64, symBinAddr: 0x100024954, symSize: 0x34 }
  - { offsetInCU: 0x43A73, offset: 0x43A73, size: 0x8, addend: 0x0, symName: __ZNKSt3__112basic_stringIcNS_11char_traitsIcEENS_9allocatorIcEEE4dataB8ue170006Ev, symObjAddr: 0x23B98, symBinAddr: 0x100024988, symSize: 0x28 }
  - { offsetInCU: 0x43A99, offset: 0x43A99, size: 0x8, addend: 0x0, symName: __ZNKSt3__117basic_string_viewIcNS_11char_traitsIcEEE4dataB8ue170006Ev, symObjAddr: 0x23BC0, symBinAddr: 0x1000249B0, symSize: 0x18 }
  - { offsetInCU: 0x43ABF, offset: 0x43ABF, size: 0x8, addend: 0x0, symName: __ZNKSt3__112basic_stringIcNS_11char_traitsIcEENS_9allocatorIcEEE13__get_pointerB8ue170006Ev, symObjAddr: 0x23C18, symBinAddr: 0x100024A08, symSize: 0x54 }
  - { offsetInCU: 0x43AE5, offset: 0x43AE5, size: 0x8, addend: 0x0, symName: __ZNKSt3__112basic_stringIcNS_11char_traitsIcEENS_9allocatorIcEEE18__get_long_pointerB8ue170006Ev, symObjAddr: 0x23C6C, symBinAddr: 0x100024A5C, symSize: 0x28 }
  - { offsetInCU: 0x43B0B, offset: 0x43B0B, size: 0x8, addend: 0x0, symName: __ZNKSt3__112basic_stringIcNS_11char_traitsIcEENS_9allocatorIcEEE19__get_short_pointerB8ue170006Ev, symObjAddr: 0x23C94, symBinAddr: 0x100024A84, symSize: 0x28 }
  - { offsetInCU: 0x43B31, offset: 0x43B31, size: 0x8, addend: 0x0, symName: __ZNSt3__114pointer_traitsIPKcE10pointer_toB8ue170006ERS1_, symObjAddr: 0x23CBC, symBinAddr: 0x100024AAC, symSize: 0x14 }
  - { offsetInCU: 0x43B5F, offset: 0x43B5F, size: 0x8, addend: 0x0, symName: __ZNKSt3__16__lessIvvEclB8ue170006ImmEEbRKT_RKT0_, symObjAddr: 0x23D24, symBinAddr: 0x100024B14, symSize: 0x34 }
  - { offsetInCU: 0x43BB3, offset: 0x43BB3, size: 0x8, addend: 0x0, symName: __ZNSt3__117basic_string_viewIcNS_11char_traitsIcEEEC1B8ue170006EPKcm, symObjAddr: 0x23D58, symBinAddr: 0x100024B48, symSize: 0x3C }
  - { offsetInCU: 0x43BFB, offset: 0x43BFB, size: 0x8, addend: 0x0, symName: __ZNSt3__117basic_string_viewIcNS_11char_traitsIcEEEC2B8ue170006EPKcm, symObjAddr: 0x23D94, symBinAddr: 0x100024B84, symSize: 0x2C }
  - { offsetInCU: 0x43C43, offset: 0x43C43, size: 0x8, addend: 0x0, symName: __ZNSt3__14listINS_12basic_stringIcNS_11char_traitsIcEENS_9allocatorIcEEEENS4_IS6_EEED2Ev, symObjAddr: 0x23DC0, symBinAddr: 0x100024BB0, symSize: 0x2C }
  - { offsetInCU: 0x43C70, offset: 0x43C70, size: 0x8, addend: 0x0, symName: __ZNSt3__110__list_impINS_12basic_stringIcNS_11char_traitsIcEENS_9allocatorIcEEEENS4_IS6_EEED2Ev, symObjAddr: 0x23DEC, symBinAddr: 0x100024BDC, symSize: 0x2C }
  - { offsetInCU: 0x43C9C, offset: 0x43C9C, size: 0x8, addend: 0x0, symName: __ZNSt3__110__list_impINS_12basic_stringIcNS_11char_traitsIcEENS_9allocatorIcEEEENS4_IS6_EEE5clearEv, symObjAddr: 0x23E18, symBinAddr: 0x100024C08, symSize: 0xE0 }
  - { offsetInCU: 0x43D0C, offset: 0x43D0C, size: 0x8, addend: 0x0, symName: __ZNKSt3__110__list_impINS_12basic_stringIcNS_11char_traitsIcEENS_9allocatorIcEEEENS4_IS6_EEE5emptyB8ue170006Ev, symObjAddr: 0x23EF8, symBinAddr: 0x100024CE8, symSize: 0x34 }
  - { offsetInCU: 0x43D32, offset: 0x43D32, size: 0x8, addend: 0x0, symName: __ZNSt3__110__list_impINS_12basic_stringIcNS_11char_traitsIcEENS_9allocatorIcEEEENS4_IS6_EEE12__node_allocB8ue170006Ev, symObjAddr: 0x23F2C, symBinAddr: 0x100024D1C, symSize: 0x28 }
  - { offsetInCU: 0x43D58, offset: 0x43D58, size: 0x8, addend: 0x0, symName: __ZNSt3__110__list_impINS_12basic_stringIcNS_11char_traitsIcEENS_9allocatorIcEEEENS4_IS6_EEE14__unlink_nodesEPNS_16__list_node_baseIS6_PvEESC_, symObjAddr: 0x23F54, symBinAddr: 0x100024D44, symSize: 0x3C }
  - { offsetInCU: 0x43D8D, offset: 0x43D8D, size: 0x8, addend: 0x0, symName: __ZNSt3__110__list_impINS_12basic_stringIcNS_11char_traitsIcEENS_9allocatorIcEEEENS4_IS6_EEE4__szB8ue170006Ev, symObjAddr: 0x23F90, symBinAddr: 0x100024D80, symSize: 0x28 }
  - { offsetInCU: 0x43DB3, offset: 0x43DB3, size: 0x8, addend: 0x0, symName: __ZNSt3__116__list_node_baseINS_12basic_stringIcNS_11char_traitsIcEENS_9allocatorIcEEEEPvE9__as_nodeB8ue170006Ev, symObjAddr: 0x23FB8, symBinAddr: 0x100024DA8, symSize: 0x24 }
  - { offsetInCU: 0x43DD9, offset: 0x43DD9, size: 0x8, addend: 0x0, symName: __ZNSt3__116allocator_traitsINS_9allocatorINS_11__list_nodeINS_12basic_stringIcNS_11char_traitsIcEENS1_IcEEEEPvEEEEE7destroyB8ue170006IS7_vvEEvRSA_PT_, symObjAddr: 0x23FDC, symBinAddr: 0x100024DCC, symSize: 0x28 }
  - { offsetInCU: 0x43E14, offset: 0x43E14, size: 0x8, addend: 0x0, symName: __ZNSt3__116allocator_traitsINS_9allocatorINS_11__list_nodeINS_12basic_stringIcNS_11char_traitsIcEENS1_IcEEEEPvEEEEE10deallocateB8ue170006ERSA_PS9_m, symObjAddr: 0x24004, symBinAddr: 0x100024DF4, symSize: 0x34 }
  - { offsetInCU: 0x43E56, offset: 0x43E56, size: 0x8, addend: 0x0, symName: __ZNKSt3__110__list_impINS_12basic_stringIcNS_11char_traitsIcEENS_9allocatorIcEEEENS4_IS6_EEE4__szB8ue170006Ev, symObjAddr: 0x24038, symBinAddr: 0x100024E28, symSize: 0x28 }
  - { offsetInCU: 0x43E7C, offset: 0x43E7C, size: 0x8, addend: 0x0, symName: __ZNKSt3__117__compressed_pairImNS_9allocatorINS_11__list_nodeINS_12basic_stringIcNS_11char_traitsIcEENS1_IcEEEEPvEEEEE5firstB8ue170006Ev, symObjAddr: 0x24060, symBinAddr: 0x100024E50, symSize: 0x24 }
  - { offsetInCU: 0x43EA2, offset: 0x43EA2, size: 0x8, addend: 0x0, symName: __ZNSt3__117__compressed_pairImNS_9allocatorINS_11__list_nodeINS_12basic_stringIcNS_11char_traitsIcEENS1_IcEEEEPvEEEEE6secondB8ue170006Ev, symObjAddr: 0x24084, symBinAddr: 0x100024E74, symSize: 0x24 }
  - { offsetInCU: 0x43EC8, offset: 0x43EC8, size: 0x8, addend: 0x0, symName: __ZNSt3__122__compressed_pair_elemINS_9allocatorINS_11__list_nodeINS_12basic_stringIcNS_11char_traitsIcEENS1_IcEEEEPvEEEELi1ELb1EE5__getB8ue170006Ev, symObjAddr: 0x240A8, symBinAddr: 0x100024E98, symSize: 0x14 }
  - { offsetInCU: 0x43EEE, offset: 0x43EEE, size: 0x8, addend: 0x0, symName: __ZNSt3__117__compressed_pairImNS_9allocatorINS_11__list_nodeINS_12basic_stringIcNS_11char_traitsIcEENS1_IcEEEEPvEEEEE5firstB8ue170006Ev, symObjAddr: 0x240BC, symBinAddr: 0x100024EAC, symSize: 0x24 }
  - { offsetInCU: 0x43F14, offset: 0x43F14, size: 0x8, addend: 0x0, symName: __ZNSt3__19allocatorINS_11__list_nodeINS_12basic_stringIcNS_11char_traitsIcEENS0_IcEEEEPvEEE10deallocateB8ue170006EPS8_m, symObjAddr: 0x24128, symBinAddr: 0x100024F18, symSize: 0x44 }
  - { offsetInCU: 0x43F56, offset: 0x43F56, size: 0x8, addend: 0x0, symName: __ZNKSt3__111__wrap_iterIPcE4baseB8ue170006Ev, symObjAddr: 0x241B4, symBinAddr: 0x100024FA4, symSize: 0x18 }
  - { offsetInCU: 0x43F7C, offset: 0x43F7C, size: 0x8, addend: 0x0, symName: __Z8__istypeim, symObjAddr: 0x241CC, symBinAddr: 0x100024FBC, symSize: 0x8C }
  - { offsetInCU: 0x43FB6, offset: 0x43FB6, size: 0x8, addend: 0x0, symName: __Z7isasciii, symObjAddr: 0x24258, symBinAddr: 0x100025048, symSize: 0x24 }
  - { offsetInCU: 0x43FE3, offset: 0x43FE3, size: 0x8, addend: 0x0, symName: __ZN11TransactionC2EidNSt3__112basic_stringIcNS0_11char_traitsIcEENS0_9allocatorIcEEEES6_S6_dd, symObjAddr: 0x2427C, symBinAddr: 0x10002506C, symSize: 0x10C }
  - { offsetInCU: 0x44079, offset: 0x44079, size: 0x8, addend: 0x0, symName: __ZNSt3__114basic_ifstreamIcNS_11char_traitsIcEEED2Ev, symObjAddr: 0x24388, symBinAddr: 0x100025178, symSize: 0x64 }
  - { offsetInCU: 0x440B3, offset: 0x440B3, size: 0x8, addend: 0x0, symName: __ZTv0_n24_NSt3__114basic_ifstreamIcNS_11char_traitsIcEEED1Ev, symObjAddr: 0x243EC, symBinAddr: 0x1000251DC, symSize: 0x28 }
  - { offsetInCU: 0x440CA, offset: 0x440CA, size: 0x8, addend: 0x0, symName: __ZNSt16initializer_listIN8nlohmann16json_abi_v3_11_36detail8json_refINS1_10basic_jsonINSt3__13mapENS5_6vectorENS5_12basic_stringIcNS5_11char_traitsIcEENS5_9allocatorIcEEEEbxydSB_NS1_14adl_serializerENS7_IhNSB_IhEEEEvEEEEEC2B8ue170006Ev, symObjAddr: 0x24414, symBinAddr: 0x100025204, symSize: 0x1C }
  - { offsetInCU: 0x4410D, offset: 0x4410D, size: 0x8, addend: 0x0, symName: __ZN8nlohmann16json_abi_v3_11_36detail8json_refINS0_10basic_jsonINSt3__13mapENS4_6vectorENS4_12basic_stringIcNS4_11char_traitsIcEENS4_9allocatorIcEEEEbxydSA_NS0_14adl_serializerENS6_IhNSA_IhEEEEvEEEC1IJRA3_KcELi0EEEDpOT_, symObjAddr: 0x24430, symBinAddr: 0x100025220, symSize: 0x34 }
  - { offsetInCU: 0x4415D, offset: 0x4415D, size: 0x8, addend: 0x0, symName: __ZN8nlohmann16json_abi_v3_11_36detail8json_refINS0_10basic_jsonINSt3__13mapENS4_6vectorENS4_12basic_stringIcNS4_11char_traitsIcEENS4_9allocatorIcEEEEbxydSA_NS0_14adl_serializerENS6_IhNSA_IhEEEEvEEEC1IJRKiELi0EEEDpOT_, symObjAddr: 0x24464, symBinAddr: 0x100025254, symSize: 0x34 }
  - { offsetInCU: 0x441B2, offset: 0x441B2, size: 0x8, addend: 0x0, symName: __ZN8nlohmann16json_abi_v3_11_36detail8json_refINS0_10basic_jsonINSt3__13mapENS4_6vectorENS4_12basic_stringIcNS4_11char_traitsIcEENS4_9allocatorIcEEEEbxydSA_NS0_14adl_serializerENS6_IhNSA_IhEEEEvEEEC1IJRA8_KcELi0EEEDpOT_, symObjAddr: 0x24498, symBinAddr: 0x100025288, symSize: 0x34 }
  - { offsetInCU: 0x44202, offset: 0x44202, size: 0x8, addend: 0x0, symName: __ZN8nlohmann16json_abi_v3_11_36detail8json_refINS0_10basic_jsonINSt3__13mapENS4_6vectorENS4_12basic_stringIcNS4_11char_traitsIcEENS4_9allocatorIcEEEEbxydSA_NS0_14adl_serializerENS6_IhNSA_IhEEEEvEEEC1IJRKdELi0EEEDpOT_, symObjAddr: 0x244CC, symBinAddr: 0x1000252BC, symSize: 0x34 }
  - { offsetInCU: 0x44265, offset: 0x44265, size: 0x8, addend: 0x0, symName: __ZN8nlohmann16json_abi_v3_11_36detail8json_refINS0_10basic_jsonINSt3__13mapENS4_6vectorENS4_12basic_stringIcNS4_11char_traitsIcEENS4_9allocatorIcEEEEbxydSA_NS0_14adl_serializerENS6_IhNSA_IhEEEEvEEEC1IJRA5_KcELi0EEEDpOT_, symObjAddr: 0x24500, symBinAddr: 0x1000252F0, symSize: 0x34 }
  - { offsetInCU: 0x442AF, offset: 0x442AF, size: 0x8, addend: 0x0, symName: __ZN8nlohmann16json_abi_v3_11_36detail8json_refINS0_10basic_jsonINSt3__13mapENS4_6vectorENS4_12basic_stringIcNS4_11char_traitsIcEENS4_9allocatorIcEEEEbxydSA_NS0_14adl_serializerENS6_IhNSA_IhEEEEvEEEC1IJRKSC_ELi0EEEDpOT_, symObjAddr: 0x24534, symBinAddr: 0x100025324, symSize: 0x34 }
  - { offsetInCU: 0x44312, offset: 0x44312, size: 0x8, addend: 0x0, symName: __ZN8nlohmann16json_abi_v3_11_36detail8json_refINS0_10basic_jsonINSt3__13mapENS4_6vectorENS4_12basic_stringIcNS4_11char_traitsIcEENS4_9allocatorIcEEEEbxydSA_NS0_14adl_serializerENS6_IhNSA_IhEEEEvEEEC1IJRA10_KcELi0EEEDpOT_, symObjAddr: 0x24568, symBinAddr: 0x100025358, symSize: 0x34 }
  - { offsetInCU: 0x44375, offset: 0x44375, size: 0x8, addend: 0x0, symName: __ZN8nlohmann16json_abi_v3_11_36detail8json_refINS0_10basic_jsonINSt3__13mapENS4_6vectorENS4_12basic_stringIcNS4_11char_traitsIcEENS4_9allocatorIcEEEEbxydSA_NS0_14adl_serializerENS6_IhNSA_IhEEEEvEEEC1IJRA9_KcELi0EEEDpOT_, symObjAddr: 0x2459C, symBinAddr: 0x10002538C, symSize: 0x34 }
  - { offsetInCU: 0x443D8, offset: 0x443D8, size: 0x8, addend: 0x0, symName: __ZN8nlohmann16json_abi_v3_11_36detail8json_refINS0_10basic_jsonINSt3__13mapENS4_6vectorENS4_12basic_stringIcNS4_11char_traitsIcEENS4_9allocatorIcEEEEbxydSA_NS0_14adl_serializerENS6_IhNSA_IhEEEEvEEEC1IJRA6_KcELi0EEEDpOT_, symObjAddr: 0x245D0, symBinAddr: 0x1000253C0, symSize: 0x34 }
  - { offsetInCU: 0x4443B, offset: 0x4443B, size: 0x8, addend: 0x0, symName: __ZN8nlohmann16json_abi_v3_11_36detail8json_refINS0_10basic_jsonINSt3__13mapENS4_6vectorENS4_12basic_stringIcNS4_11char_traitsIcEENS4_9allocatorIcEEEEbxydSA_NS0_14adl_serializerENS6_IhNSA_IhEEEEvEEEC1IJRA7_KcELi0EEEDpOT_, symObjAddr: 0x24604, symBinAddr: 0x1000253F4, symSize: 0x34 }
  - { offsetInCU: 0x44485, offset: 0x44485, size: 0x8, addend: 0x0, symName: __ZN8nlohmann16json_abi_v3_11_36detail8json_refINS0_10basic_jsonINSt3__13mapENS4_6vectorENS4_12basic_stringIcNS4_11char_traitsIcEENS4_9allocatorIcEEEEbxydSA_NS0_14adl_serializerENS6_IhNSA_IhEEEEvEEEC2IJRA3_KcELi0EEEDpOT_, symObjAddr: 0x24638, symBinAddr: 0x100025428, symSize: 0x38 }
  - { offsetInCU: 0x444CF, offset: 0x444CF, size: 0x8, addend: 0x0, symName: __ZN8nlohmann16json_abi_v3_11_310basic_jsonINSt3__13mapENS2_6vectorENS2_12basic_stringIcNS2_11char_traitsIcEENS2_9allocatorIcEEEEbxydS8_NS0_14adl_serializerENS4_IhNS8_IhEEEEvEC1IRA3_KcA3_cLi0EEEOT_, symObjAddr: 0x24670, symBinAddr: 0x100025460, symSize: 0x34 }
  - { offsetInCU: 0x44520, offset: 0x44520, size: 0x8, addend: 0x0, symName: __ZN8nlohmann16json_abi_v3_11_310basic_jsonINSt3__13mapENS2_6vectorENS2_12basic_stringIcNS2_11char_traitsIcEENS2_9allocatorIcEEEEbxydS8_NS0_14adl_serializerENS4_IhNS8_IhEEEEvEC2IRA3_KcA3_cLi0EEEOT_, symObjAddr: 0x246A4, symBinAddr: 0x100025494, symSize: 0x88 }
  - { offsetInCU: 0x44571, offset: 0x44571, size: 0x8, addend: 0x0, symName: __ZN8nlohmann16json_abi_v3_11_310basic_jsonINSt3__13mapENS2_6vectorENS2_12basic_stringIcNS2_11char_traitsIcEENS2_9allocatorIcEEEEbxydS8_NS0_14adl_serializerENS4_IhNS8_IhEEEEvE4dataC1Ev, symObjAddr: 0x2472C, symBinAddr: 0x10002551C, symSize: 0x2C }
  - { offsetInCU: 0x4459B, offset: 0x4459B, size: 0x8, addend: 0x0, symName: __ZN8nlohmann16json_abi_v3_11_314adl_serializerIA3_cvE7to_jsonINS0_10basic_jsonINSt3__13mapENS6_6vectorENS6_12basic_stringIcNS6_11char_traitsIcEENS6_9allocatorIcEEEEbxydSC_S1_NS8_IhNSC_IhEEEEvEERA3_KcEEDTcmclL_ZNS0_7to_jsonEEfp_clsr3stdE7forwardIT0_Efp0_EEcvv_EERT_OSL_, symObjAddr: 0x24758, symBinAddr: 0x100025548, symSize: 0x34 }
  - { offsetInCU: 0x445E0, offset: 0x445E0, size: 0x8, addend: 0x0, symName: __ZN8nlohmann16json_abi_v3_11_310basic_jsonINSt3__13mapENS2_6vectorENS2_12basic_stringIcNS2_11char_traitsIcEENS2_9allocatorIcEEEEbxydS8_NS0_14adl_serializerENS4_IhNS8_IhEEEEvE11set_parentsEv, symObjAddr: 0x2478C, symBinAddr: 0x10002557C, symSize: 0x10 }
  - { offsetInCU: 0x44606, offset: 0x44606, size: 0x8, addend: 0x0, symName: __ZNK8nlohmann16json_abi_v3_11_310basic_jsonINSt3__13mapENS2_6vectorENS2_12basic_stringIcNS2_11char_traitsIcEENS2_9allocatorIcEEEEbxydS8_NS0_14adl_serializerENS4_IhNS8_IhEEEEvE16assert_invariantEb, symObjAddr: 0x2479C, symBinAddr: 0x10002558C, symSize: 0x1F0 }
  - { offsetInCU: 0x4463B, offset: 0x4463B, size: 0x8, addend: 0x0, symName: __ZN8nlohmann16json_abi_v3_11_310basic_jsonINSt3__13mapENS2_6vectorENS2_12basic_stringIcNS2_11char_traitsIcEENS2_9allocatorIcEEEEbxydS8_NS0_14adl_serializerENS4_IhNS8_IhEEEEvE4dataD1Ev, symObjAddr: 0x2498C, symBinAddr: 0x10002577C, symSize: 0x2C }
  - { offsetInCU: 0x44665, offset: 0x44665, size: 0x8, addend: 0x0, symName: __ZN8nlohmann16json_abi_v3_11_310basic_jsonINSt3__13mapENS2_6vectorENS2_12basic_stringIcNS2_11char_traitsIcEENS2_9allocatorIcEEEEbxydS8_NS0_14adl_serializerENS4_IhNS8_IhEEEEvE4dataC2Ev, symObjAddr: 0x249B8, symBinAddr: 0x1000257A8, symSize: 0x1C }
  - { offsetInCU: 0x44695, offset: 0x44695, size: 0x8, addend: 0x0, symName: __ZNK8nlohmann16json_abi_v3_11_36detail10to_json_fnclINS0_10basic_jsonINSt3__13mapENS5_6vectorENS5_12basic_stringIcNS5_11char_traitsIcEENS5_9allocatorIcEEEEbxydSB_NS0_14adl_serializerENS7_IhNSB_IhEEEEvEERA3_KcEEDTcmcl7to_jsonfp_clsr3stdE7forwardIT0_Efp0_EEcvv_EERT_OSL_, symObjAddr: 0x249D4, symBinAddr: 0x1000257C4, symSize: 0x30 }
  - { offsetInCU: 0x446EB, offset: 0x446EB, size: 0x8, addend: 0x0, symName: __ZN8nlohmann16json_abi_v3_11_36detail20external_constructorILNS1_7value_tE3EE9constructINS0_10basic_jsonINSt3__13mapENS7_6vectorENS7_12basic_stringIcNS7_11char_traitsIcEENS7_9allocatorIcEEEEbxydSD_NS0_14adl_serializerENS9_IhNSD_IhEEEEvEEA3_cLi0EEEvRT_RKT0_, symObjAddr: 0x24A30, symBinAddr: 0x100025820, symSize: 0x60 }
  - { offsetInCU: 0x44736, offset: 0x44736, size: 0x8, addend: 0x0, symName: __ZN8nlohmann16json_abi_v3_11_310basic_jsonINSt3__13mapENS2_6vectorENS2_12basic_stringIcNS2_11char_traitsIcEENS2_9allocatorIcEEEEbxydS8_NS0_14adl_serializerENS4_IhNS8_IhEEEEvE10json_value7destroyENS0_6detail7value_tE, symObjAddr: 0x24A90, symBinAddr: 0x100025880, symSize: 0x518 }
  - { offsetInCU: 0x448C2, offset: 0x448C2, size: 0x8, addend: 0x0, symName: __ZN8nlohmann16json_abi_v3_11_310basic_jsonINSt3__13mapENS2_6vectorENS2_12basic_stringIcNS2_11char_traitsIcEENS2_9allocatorIcEEEEbxydS8_NS0_14adl_serializerENS4_IhNS8_IhEEEEvE6createISA_JRA3_KcEEEPT_DpOT0_, symObjAddr: 0x24FD0, symBinAddr: 0x100025DC0, symSize: 0xF4 }
  - { offsetInCU: 0x44950, offset: 0x44950, size: 0x8, addend: 0x0, symName: __ZNSt3__16vectorIN8nlohmann16json_abi_v3_11_310basic_jsonINS_3mapES0_NS_12basic_stringIcNS_11char_traitsIcEENS_9allocatorIcEEEEbxydS8_NS2_14adl_serializerENS0_IhNS8_IhEEEEvEENS8_ISE_EEEC1B8ue170006Ev, symObjAddr: 0x250C4, symBinAddr: 0x100025EB4, symSize: 0x2C }
  - { offsetInCU: 0x4497A, offset: 0x4497A, size: 0x8, addend: 0x0, symName: __ZNSt3__16vectorIN8nlohmann16json_abi_v3_11_310basic_jsonINS_3mapES0_NS_12basic_stringIcNS_11char_traitsIcEENS_9allocatorIcEEEEbxydS8_NS2_14adl_serializerENS0_IhNS8_IhEEEEvEENS8_ISE_EEE7reserveEm, symObjAddr: 0x250F0, symBinAddr: 0x100025EE0, symSize: 0xE8 }
  - { offsetInCU: 0x449D6, offset: 0x449D6, size: 0x8, addend: 0x0, symName: __ZNKSt3__16vectorIN8nlohmann16json_abi_v3_11_310basic_jsonINS_3mapES0_NS_12basic_stringIcNS_11char_traitsIcEENS_9allocatorIcEEEEbxydS8_NS2_14adl_serializerENS0_IhNS8_IhEEEEvEENS8_ISE_EEE4sizeB8ue170006Ev, symObjAddr: 0x251D8, symBinAddr: 0x100025FC8, symSize: 0x28 }
  - { offsetInCU: 0x449FC, offset: 0x449FC, size: 0x8, addend: 0x0, symName: __ZNSt3__16vectorIN8nlohmann16json_abi_v3_11_310basic_jsonINS_3mapES0_NS_12basic_stringIcNS_11char_traitsIcEENS_9allocatorIcEEEEbxydS8_NS2_14adl_serializerENS0_IhNS8_IhEEEEvEENS8_ISE_EEE5beginB8ue170006Ev, symObjAddr: 0x25260, symBinAddr: 0x100026050, symSize: 0x30 }
  - { offsetInCU: 0x44A24, offset: 0x44A24, size: 0x8, addend: 0x0, symName: __ZNSt3__16vectorIN8nlohmann16json_abi_v3_11_310basic_jsonINS_3mapES0_NS_12basic_stringIcNS_11char_traitsIcEENS_9allocatorIcEEEEbxydS8_NS2_14adl_serializerENS0_IhNS8_IhEEEEvEENS8_ISE_EEE3endB8ue170006Ev, symObjAddr: 0x25290, symBinAddr: 0x100026080, symSize: 0x30 }
  - { offsetInCU: 0x44A4C, offset: 0x44A4C, size: 0x8, addend: 0x0, symName: __ZNKSt3__13mapINS_12basic_stringIcNS_11char_traitsIcEENS_9allocatorIcEEEEN8nlohmann16json_abi_v3_11_310basic_jsonIS0_NS_6vectorES6_bxydS4_NS8_14adl_serializerENSA_IhNS4_IhEEEEvEENS_4lessIvEENS4_INS_4pairIKS6_SE_EEEEE4sizeB8ue170006Ev, symObjAddr: 0x252EC, symBinAddr: 0x1000260DC, symSize: 0x28 }
  - { offsetInCU: 0x44A72, offset: 0x44A72, size: 0x8, addend: 0x0, symName: __ZNSt3__13mapINS_12basic_stringIcNS_11char_traitsIcEENS_9allocatorIcEEEEN8nlohmann16json_abi_v3_11_310basic_jsonIS0_NS_6vectorES6_bxydS4_NS8_14adl_serializerENSA_IhNS4_IhEEEEvEENS_4lessIvEENS4_INS_4pairIKS6_SE_EEEEE5beginB8ue170006Ev, symObjAddr: 0x25314, symBinAddr: 0x100026104, symSize: 0x38 }
  - { offsetInCU: 0x44A98, offset: 0x44A98, size: 0x8, addend: 0x0, symName: __ZNSt3__13mapINS_12basic_stringIcNS_11char_traitsIcEENS_9allocatorIcEEEEN8nlohmann16json_abi_v3_11_310basic_jsonIS0_NS_6vectorES6_bxydS4_NS8_14adl_serializerENSA_IhNS4_IhEEEEvEENS_4lessIvEENS4_INS_4pairIKS6_SE_EEEEE3endB8ue170006Ev, symObjAddr: 0x2534C, symBinAddr: 0x10002613C, symSize: 0x38 }
  - { offsetInCU: 0x44ABE, offset: 0x44ABE, size: 0x8, addend: 0x0, symName: __ZNKSt3__114__map_iteratorINS_15__tree_iteratorINS_12__value_typeINS_12basic_stringIcNS_11char_traitsIcEENS_9allocatorIcEEEEN8nlohmann16json_abi_v3_11_310basic_jsonINS_3mapENS_6vectorES8_bxydS6_NSA_14adl_serializerENSD_IhNS6_IhEEEEvEEEEPNS_11__tree_nodeISI_PvEElEEEdeB8ue170006Ev, symObjAddr: 0x253B4, symBinAddr: 0x1000261A4, symSize: 0x28 }
  - { offsetInCU: 0x44AE4, offset: 0x44AE4, size: 0x8, addend: 0x0, symName: __ZNSt3__16vectorIN8nlohmann16json_abi_v3_11_310basic_jsonINS_3mapES0_NS_12basic_stringIcNS_11char_traitsIcEENS_9allocatorIcEEEEbxydS8_NS2_14adl_serializerENS0_IhNS8_IhEEEEvEENS8_ISE_EEE9push_backB8ue170006EOSE_, symObjAddr: 0x253DC, symBinAddr: 0x1000261CC, symSize: 0x6C }
  - { offsetInCU: 0x44B1B, offset: 0x44B1B, size: 0x8, addend: 0x0, symName: __ZNSt3__114__map_iteratorINS_15__tree_iteratorINS_12__value_typeINS_12basic_stringIcNS_11char_traitsIcEENS_9allocatorIcEEEEN8nlohmann16json_abi_v3_11_310basic_jsonINS_3mapENS_6vectorES8_bxydS6_NSA_14adl_serializerENSD_IhNS6_IhEEEEvEEEEPNS_11__tree_nodeISI_PvEElEEEppB8ue170006Ev, symObjAddr: 0x25448, symBinAddr: 0x100026238, symSize: 0x2C }
  - { offsetInCU: 0x44B41, offset: 0x44B41, size: 0x8, addend: 0x0, symName: __ZNKSt3__16vectorIN8nlohmann16json_abi_v3_11_310basic_jsonINS_3mapES0_NS_12basic_stringIcNS_11char_traitsIcEENS_9allocatorIcEEEEbxydS8_NS2_14adl_serializerENS0_IhNS8_IhEEEEvEENS8_ISE_EEE5emptyB8ue170006Ev, symObjAddr: 0x25474, symBinAddr: 0x100026264, symSize: 0x28 }
  - { offsetInCU: 0x44B67, offset: 0x44B67, size: 0x8, addend: 0x0, symName: __ZNSt3__16vectorIN8nlohmann16json_abi_v3_11_310basic_jsonINS_3mapES0_NS_12basic_stringIcNS_11char_traitsIcEENS_9allocatorIcEEEEbxydS8_NS2_14adl_serializerENS0_IhNS8_IhEEEEvEENS8_ISE_EEE4backB8ue170006Ev, symObjAddr: 0x2549C, symBinAddr: 0x10002628C, symSize: 0x1C }
  - { offsetInCU: 0x44B8D, offset: 0x44B8D, size: 0x8, addend: 0x0, symName: __ZN8nlohmann16json_abi_v3_11_310basic_jsonINSt3__13mapENS2_6vectorENS2_12basic_stringIcNS2_11char_traitsIcEENS2_9allocatorIcEEEEbxydS8_NS0_14adl_serializerENS4_IhNS8_IhEEEEvEC1EOSE_, symObjAddr: 0x254B8, symBinAddr: 0x1000262A8, symSize: 0x34 }
  - { offsetInCU: 0x44BC6, offset: 0x44BC6, size: 0x8, addend: 0x0, symName: __ZNSt3__16vectorIN8nlohmann16json_abi_v3_11_310basic_jsonINS_3mapES0_NS_12basic_stringIcNS_11char_traitsIcEENS_9allocatorIcEEEEbxydS8_NS2_14adl_serializerENS0_IhNS8_IhEEEEvEENS8_ISE_EEE8pop_backEv, symObjAddr: 0x254EC, symBinAddr: 0x1000262DC, symSize: 0x2C }
  - { offsetInCU: 0x44BEE, offset: 0x44BEE, size: 0x8, addend: 0x0, symName: __ZNK8nlohmann16json_abi_v3_11_310basic_jsonINSt3__13mapENS2_6vectorENS2_12basic_stringIcNS2_11char_traitsIcEENS2_9allocatorIcEEEEbxydS8_NS0_14adl_serializerENS4_IhNS8_IhEEEEvE8is_arrayEv, symObjAddr: 0x25518, symBinAddr: 0x100026308, symSize: 0x24 }
  - { offsetInCU: 0x44C14, offset: 0x44C14, size: 0x8, addend: 0x0, symName: __ZNSt3__16vectorIN8nlohmann16json_abi_v3_11_310basic_jsonINS_3mapES0_NS_12basic_stringIcNS_11char_traitsIcEENS_9allocatorIcEEEEbxydS8_NS2_14adl_serializerENS0_IhNS8_IhEEEEvEENS8_ISE_EEE5clearB8ue170006Ev, symObjAddr: 0x2553C, symBinAddr: 0x10002632C, symSize: 0x44 }
  - { offsetInCU: 0x44C49, offset: 0x44C49, size: 0x8, addend: 0x0, symName: __ZNK8nlohmann16json_abi_v3_11_310basic_jsonINSt3__13mapENS2_6vectorENS2_12basic_stringIcNS2_11char_traitsIcEENS2_9allocatorIcEEEEbxydS8_NS0_14adl_serializerENS4_IhNS8_IhEEEEvE9is_objectEv, symObjAddr: 0x25580, symBinAddr: 0x100026370, symSize: 0x24 }
  - { offsetInCU: 0x44C6F, offset: 0x44C6F, size: 0x8, addend: 0x0, symName: __ZNSt3__13mapINS_12basic_stringIcNS_11char_traitsIcEENS_9allocatorIcEEEEN8nlohmann16json_abi_v3_11_310basic_jsonIS0_NS_6vectorES6_bxydS4_NS8_14adl_serializerENSA_IhNS4_IhEEEEvEENS_4lessIvEENS4_INS_4pairIKS6_SE_EEEEE5clearB8ue170006Ev, symObjAddr: 0x255A4, symBinAddr: 0x100026394, symSize: 0x24 }
  - { offsetInCU: 0x44C95, offset: 0x44C95, size: 0x8, addend: 0x0, symName: __ZNSt3__16vectorIN8nlohmann16json_abi_v3_11_310basic_jsonINS_3mapES0_NS_12basic_stringIcNS_11char_traitsIcEENS_9allocatorIcEEEEbxydS8_NS2_14adl_serializerENS0_IhNS8_IhEEEEvEENS8_ISE_EEED1B8ue170006Ev, symObjAddr: 0x255C8, symBinAddr: 0x1000263B8, symSize: 0x2C }
  - { offsetInCU: 0x44CCB, offset: 0x44CCB, size: 0x8, addend: 0x0, symName: __ZNSt3__19allocatorINS_3mapINS_12basic_stringIcNS_11char_traitsIcEENS0_IcEEEEN8nlohmann16json_abi_v3_11_310basic_jsonIS1_NS_6vectorES6_bxydS0_NS8_14adl_serializerENSA_IhNS0_IhEEEEvEENS_4lessIvEENS0_INS_4pairIKS6_SE_EEEEEEEC1B8ue170006Ev, symObjAddr: 0x255F4, symBinAddr: 0x1000263E4, symSize: 0x2C }
  - { offsetInCU: 0x44CFB, offset: 0x44CFB, size: 0x8, addend: 0x0, symName: __ZNSt3__116allocator_traitsINS_9allocatorINS_3mapINS_12basic_stringIcNS_11char_traitsIcEENS1_IcEEEEN8nlohmann16json_abi_v3_11_310basic_jsonIS2_NS_6vectorES7_bxydS1_NS9_14adl_serializerENSB_IhNS1_IhEEEEvEENS_4lessIvEENS1_INS_4pairIKS7_SF_EEEEEEEEE7destroyB8ue170006ISM_vvEEvRSN_PT_, symObjAddr: 0x25620, symBinAddr: 0x100026410, symSize: 0x28 }
  - { offsetInCU: 0x44D36, offset: 0x44D36, size: 0x8, addend: 0x0, symName: __ZNSt3__116allocator_traitsINS_9allocatorINS_3mapINS_12basic_stringIcNS_11char_traitsIcEENS1_IcEEEEN8nlohmann16json_abi_v3_11_310basic_jsonIS2_NS_6vectorES7_bxydS1_NS9_14adl_serializerENSB_IhNS1_IhEEEEvEENS_4lessIvEENS1_INS_4pairIKS7_SF_EEEEEEEEE10deallocateB8ue170006ERSN_PSM_m, symObjAddr: 0x25648, symBinAddr: 0x100026438, symSize: 0x34 }
  - { offsetInCU: 0x44D84, offset: 0x44D84, size: 0x8, addend: 0x0, symName: __ZNSt3__19allocatorINS_6vectorIN8nlohmann16json_abi_v3_11_310basic_jsonINS_3mapES1_NS_12basic_stringIcNS_11char_traitsIcEENS0_IcEEEEbxydS0_NS3_14adl_serializerENS1_IhNS0_IhEEEEvEENS0_ISE_EEEEEC1B8ue170006Ev, symObjAddr: 0x2567C, symBinAddr: 0x10002646C, symSize: 0x2C }
  - { offsetInCU: 0x44DB4, offset: 0x44DB4, size: 0x8, addend: 0x0, symName: __ZNSt3__116allocator_traitsINS_9allocatorINS_6vectorIN8nlohmann16json_abi_v3_11_310basic_jsonINS_3mapES2_NS_12basic_stringIcNS_11char_traitsIcEENS1_IcEEEEbxydS1_NS4_14adl_serializerENS2_IhNS1_IhEEEEvEENS1_ISF_EEEEEEE7destroyB8ue170006ISH_vvEEvRSI_PT_, symObjAddr: 0x256A8, symBinAddr: 0x100026498, symSize: 0x28 }
  - { offsetInCU: 0x44DEF, offset: 0x44DEF, size: 0x8, addend: 0x0, symName: __ZNSt3__116allocator_traitsINS_9allocatorINS_6vectorIN8nlohmann16json_abi_v3_11_310basic_jsonINS_3mapES2_NS_12basic_stringIcNS_11char_traitsIcEENS1_IcEEEEbxydS1_NS4_14adl_serializerENS2_IhNS1_IhEEEEvEENS1_ISF_EEEEEEE10deallocateB8ue170006ERSI_PSH_m, symObjAddr: 0x256D0, symBinAddr: 0x1000264C0, symSize: 0x34 }
  - { offsetInCU: 0x44E31, offset: 0x44E31, size: 0x8, addend: 0x0, symName: __ZNSt3__19allocatorINS_12basic_stringIcNS_11char_traitsIcEENS0_IcEEEEEC1B8ue170006Ev, symObjAddr: 0x25704, symBinAddr: 0x1000264F4, symSize: 0x2C }
  - { offsetInCU: 0x44E5B, offset: 0x44E5B, size: 0x8, addend: 0x0, symName: __ZNSt3__116allocator_traitsINS_9allocatorINS_12basic_stringIcNS_11char_traitsIcEENS1_IcEEEEEEE7destroyB8ue170006IS6_vvEEvRS7_PT_, symObjAddr: 0x25730, symBinAddr: 0x100026520, symSize: 0x28 }
  - { offsetInCU: 0x44E96, offset: 0x44E96, size: 0x8, addend: 0x0, symName: __ZNSt3__116allocator_traitsINS_9allocatorINS_12basic_stringIcNS_11char_traitsIcEENS1_IcEEEEEEE10deallocateB8ue170006ERS7_PS6_m, symObjAddr: 0x25758, symBinAddr: 0x100026548, symSize: 0x34 }
  - { offsetInCU: 0x44EE4, offset: 0x44EE4, size: 0x8, addend: 0x0, symName: __ZNSt3__19allocatorIN8nlohmann16json_abi_v3_11_327byte_container_with_subtypeINS_6vectorIhNS0_IhEEEEEEEC1B8ue170006Ev, symObjAddr: 0x2578C, symBinAddr: 0x10002657C, symSize: 0x2C }
  - { offsetInCU: 0x44F14, offset: 0x44F14, size: 0x8, addend: 0x0, symName: __ZNSt3__116allocator_traitsINS_9allocatorIN8nlohmann16json_abi_v3_11_327byte_container_with_subtypeINS_6vectorIhNS1_IhEEEEEEEEE7destroyB8ue170006IS8_vvEEvRS9_PT_, symObjAddr: 0x257B8, symBinAddr: 0x1000265A8, symSize: 0x28 }
  - { offsetInCU: 0x44F4F, offset: 0x44F4F, size: 0x8, addend: 0x0, symName: __ZNSt3__116allocator_traitsINS_9allocatorIN8nlohmann16json_abi_v3_11_327byte_container_with_subtypeINS_6vectorIhNS1_IhEEEEEEEEE10deallocateB8ue170006ERS9_PS8_m, symObjAddr: 0x257E0, symBinAddr: 0x1000265D0, symSize: 0x34 }
  - { offsetInCU: 0x44F91, offset: 0x44F91, size: 0x8, addend: 0x0, symName: __ZNSt3__16vectorIN8nlohmann16json_abi_v3_11_310basic_jsonINS_3mapES0_NS_12basic_stringIcNS_11char_traitsIcEENS_9allocatorIcEEEEbxydS8_NS2_14adl_serializerENS0_IhNS8_IhEEEEvEENS8_ISE_EEEC2B8ue170006Ev, symObjAddr: 0x25814, symBinAddr: 0x100026604, symSize: 0x4C }
  - { offsetInCU: 0x44FC1, offset: 0x44FC1, size: 0x8, addend: 0x0, symName: __ZNSt3__117__compressed_pairIPN8nlohmann16json_abi_v3_11_310basic_jsonINS_3mapENS_6vectorENS_12basic_stringIcNS_11char_traitsIcEENS_9allocatorIcEEEEbxydS9_NS2_14adl_serializerENS5_IhNS9_IhEEEEvEENS9_ISF_EEEC1B8ue170006IDnNS_18__default_init_tagEEEOT_OT0_, symObjAddr: 0x25860, symBinAddr: 0x100026650, symSize: 0x3C }
  - { offsetInCU: 0x45019, offset: 0x45019, size: 0x8, addend: 0x0, symName: __ZNSt3__117__compressed_pairIPN8nlohmann16json_abi_v3_11_310basic_jsonINS_3mapENS_6vectorENS_12basic_stringIcNS_11char_traitsIcEENS_9allocatorIcEEEEbxydS9_NS2_14adl_serializerENS5_IhNS9_IhEEEEvEENS9_ISF_EEEC2B8ue170006IDnNS_18__default_init_tagEEEOT_OT0_, symObjAddr: 0x2589C, symBinAddr: 0x10002668C, symSize: 0x40 }
  - { offsetInCU: 0x45071, offset: 0x45071, size: 0x8, addend: 0x0, symName: __ZNSt3__122__compressed_pair_elemIPN8nlohmann16json_abi_v3_11_310basic_jsonINS_3mapENS_6vectorENS_12basic_stringIcNS_11char_traitsIcEENS_9allocatorIcEEEEbxydS9_NS2_14adl_serializerENS5_IhNS9_IhEEEEvEELi0ELb0EEC2B8ue170006IDnvEEOT_, symObjAddr: 0x258DC, symBinAddr: 0x1000266CC, symSize: 0x1C }
  - { offsetInCU: 0x450B3, offset: 0x450B3, size: 0x8, addend: 0x0, symName: __ZNSt3__122__compressed_pair_elemINS_9allocatorIN8nlohmann16json_abi_v3_11_310basic_jsonINS_3mapENS_6vectorENS_12basic_stringIcNS_11char_traitsIcEENS1_IcEEEEbxydS1_NS3_14adl_serializerENS6_IhNS1_IhEEEEvEEEELi1ELb1EEC2B8ue170006ENS_18__default_init_tagE, symObjAddr: 0x258F8, symBinAddr: 0x1000266E8, symSize: 0x2C }
  - { offsetInCU: 0x450E8, offset: 0x450E8, size: 0x8, addend: 0x0, symName: __ZNSt3__19allocatorIN8nlohmann16json_abi_v3_11_310basic_jsonINS_3mapENS_6vectorENS_12basic_stringIcNS_11char_traitsIcEENS0_IcEEEEbxydS0_NS2_14adl_serializerENS5_IhNS0_IhEEEEvEEEC2B8ue170006Ev, symObjAddr: 0x25924, symBinAddr: 0x100026714, symSize: 0x2C }
  - { offsetInCU: 0x45112, offset: 0x45112, size: 0x8, addend: 0x0, symName: __ZNSt3__116__non_trivial_ifILb1ENS_9allocatorIN8nlohmann16json_abi_v3_11_310basic_jsonINS_3mapENS_6vectorENS_12basic_stringIcNS_11char_traitsIcEENS1_IcEEEEbxydS1_NS3_14adl_serializerENS6_IhNS1_IhEEEEvEEEEEC2B8ue170006Ev, symObjAddr: 0x25950, symBinAddr: 0x100026740, symSize: 0x14 }
  - { offsetInCU: 0x4513C, offset: 0x4513C, size: 0x8, addend: 0x0, symName: __ZNKSt3__16vectorIN8nlohmann16json_abi_v3_11_310basic_jsonINS_3mapES0_NS_12basic_stringIcNS_11char_traitsIcEENS_9allocatorIcEEEEbxydS8_NS2_14adl_serializerENS0_IhNS8_IhEEEEvEENS8_ISE_EEE8capacityB8ue170006Ev, symObjAddr: 0x25964, symBinAddr: 0x100026754, symSize: 0x40 }
  - { offsetInCU: 0x45162, offset: 0x45162, size: 0x8, addend: 0x0, symName: __ZNKSt3__16vectorIN8nlohmann16json_abi_v3_11_310basic_jsonINS_3mapES0_NS_12basic_stringIcNS_11char_traitsIcEENS_9allocatorIcEEEEbxydS8_NS2_14adl_serializerENS0_IhNS8_IhEEEEvEENS8_ISE_EEE8max_sizeEv, symObjAddr: 0x259A4, symBinAddr: 0x100026794, symSize: 0x60 }
  - { offsetInCU: 0x4518A, offset: 0x4518A, size: 0x8, addend: 0x0, symName: __ZNKSt3__16vectorIN8nlohmann16json_abi_v3_11_310basic_jsonINS_3mapES0_NS_12basic_stringIcNS_11char_traitsIcEENS_9allocatorIcEEEEbxydS8_NS2_14adl_serializerENS0_IhNS8_IhEEEEvEENS8_ISE_EEE20__throw_length_errorB8ue170006Ev, symObjAddr: 0x25A04, symBinAddr: 0x1000267F4, symSize: 0x1C }
  - { offsetInCU: 0x451B0, offset: 0x451B0, size: 0x8, addend: 0x0, symName: __ZNSt3__16vectorIN8nlohmann16json_abi_v3_11_310basic_jsonINS_3mapES0_NS_12basic_stringIcNS_11char_traitsIcEENS_9allocatorIcEEEEbxydS8_NS2_14adl_serializerENS0_IhNS8_IhEEEEvEENS8_ISE_EEE7__allocB8ue170006Ev, symObjAddr: 0x25A20, symBinAddr: 0x100026810, symSize: 0x28 }
  - { offsetInCU: 0x451D6, offset: 0x451D6, size: 0x8, addend: 0x0, symName: __ZNSt3__114__split_bufferIN8nlohmann16json_abi_v3_11_310basic_jsonINS_3mapENS_6vectorENS_12basic_stringIcNS_11char_traitsIcEENS_9allocatorIcEEEEbxydS9_NS2_14adl_serializerENS5_IhNS9_IhEEEEvEERNS9_ISF_EEEC1EmmSH_, symObjAddr: 0x25A48, symBinAddr: 0x100026838, symSize: 0x44 }
  - { offsetInCU: 0x4522C, offset: 0x4522C, size: 0x8, addend: 0x0, symName: __ZNSt3__114__split_bufferIN8nlohmann16json_abi_v3_11_310basic_jsonINS_3mapENS_6vectorENS_12basic_stringIcNS_11char_traitsIcEENS_9allocatorIcEEEEbxydS9_NS2_14adl_serializerENS5_IhNS9_IhEEEEvEERNS9_ISF_EEED1Ev, symObjAddr: 0x25B9C, symBinAddr: 0x10002698C, symSize: 0x2C }
  - { offsetInCU: 0x45258, offset: 0x45258, size: 0x8, addend: 0x0, symName: __ZNKSt3__16vectorIN8nlohmann16json_abi_v3_11_310basic_jsonINS_3mapES0_NS_12basic_stringIcNS_11char_traitsIcEENS_9allocatorIcEEEEbxydS8_NS2_14adl_serializerENS0_IhNS8_IhEEEEvEENS8_ISE_EEE9__end_capB8ue170006Ev, symObjAddr: 0x25BC8, symBinAddr: 0x1000269B8, symSize: 0x28 }
  - { offsetInCU: 0x4527E, offset: 0x4527E, size: 0x8, addend: 0x0, symName: __ZNKSt3__117__compressed_pairIPN8nlohmann16json_abi_v3_11_310basic_jsonINS_3mapENS_6vectorENS_12basic_stringIcNS_11char_traitsIcEENS_9allocatorIcEEEEbxydS9_NS2_14adl_serializerENS5_IhNS9_IhEEEEvEENS9_ISF_EEE5firstB8ue170006Ev, symObjAddr: 0x25BF0, symBinAddr: 0x1000269E0, symSize: 0x24 }
  - { offsetInCU: 0x452A4, offset: 0x452A4, size: 0x8, addend: 0x0, symName: __ZNKSt3__122__compressed_pair_elemIPN8nlohmann16json_abi_v3_11_310basic_jsonINS_3mapENS_6vectorENS_12basic_stringIcNS_11char_traitsIcEENS_9allocatorIcEEEEbxydS9_NS2_14adl_serializerENS5_IhNS9_IhEEEEvEELi0ELb0EE5__getB8ue170006Ev, symObjAddr: 0x25C14, symBinAddr: 0x100026A04, symSize: 0x14 }
  - { offsetInCU: 0x452D5, offset: 0x452D5, size: 0x8, addend: 0x0, symName: __ZNSt3__116allocator_traitsINS_9allocatorIN8nlohmann16json_abi_v3_11_310basic_jsonINS_3mapENS_6vectorENS_12basic_stringIcNS_11char_traitsIcEENS1_IcEEEEbxydS1_NS3_14adl_serializerENS6_IhNS1_IhEEEEvEEEEE8max_sizeB8ue170006ISG_vvEEmRKSG_, symObjAddr: 0x25C28, symBinAddr: 0x100026A18, symSize: 0x28 }
  - { offsetInCU: 0x45301, offset: 0x45301, size: 0x8, addend: 0x0, symName: __ZNKSt3__16vectorIN8nlohmann16json_abi_v3_11_310basic_jsonINS_3mapES0_NS_12basic_stringIcNS_11char_traitsIcEENS_9allocatorIcEEEEbxydS8_NS2_14adl_serializerENS0_IhNS8_IhEEEEvEENS8_ISE_EEE7__allocB8ue170006Ev, symObjAddr: 0x25C50, symBinAddr: 0x100026A40, symSize: 0x28 }
  - { offsetInCU: 0x45327, offset: 0x45327, size: 0x8, addend: 0x0, symName: __ZNSt3__114numeric_limitsIlE3maxB8ue170006Ev, symObjAddr: 0x25C78, symBinAddr: 0x100026A68, symSize: 0x14 }
  - { offsetInCU: 0x4533B, offset: 0x4533B, size: 0x8, addend: 0x0, symName: __ZNSt3__114numeric_limitsImE3maxB8ue170006Ev, symObjAddr: 0x25C8C, symBinAddr: 0x100026A7C, symSize: 0x14 }
  - { offsetInCU: 0x4534F, offset: 0x4534F, size: 0x8, addend: 0x0, symName: __ZNSt3__123__libcpp_numeric_limitsImLb1EE3maxB8ue170006Ev, symObjAddr: 0x25CA0, symBinAddr: 0x100026A90, symSize: 0x8 }
  - { offsetInCU: 0x45363, offset: 0x45363, size: 0x8, addend: 0x0, symName: __ZNKSt3__117__compressed_pairIPN8nlohmann16json_abi_v3_11_310basic_jsonINS_3mapENS_6vectorENS_12basic_stringIcNS_11char_traitsIcEENS_9allocatorIcEEEEbxydS9_NS2_14adl_serializerENS5_IhNS9_IhEEEEvEENS9_ISF_EEE6secondB8ue170006Ev, symObjAddr: 0x25CA8, symBinAddr: 0x100026A98, symSize: 0x24 }
  - { offsetInCU: 0x45389, offset: 0x45389, size: 0x8, addend: 0x0, symName: __ZNKSt3__122__compressed_pair_elemINS_9allocatorIN8nlohmann16json_abi_v3_11_310basic_jsonINS_3mapENS_6vectorENS_12basic_stringIcNS_11char_traitsIcEENS1_IcEEEEbxydS1_NS3_14adl_serializerENS6_IhNS1_IhEEEEvEEEELi1ELb1EE5__getB8ue170006Ev, symObjAddr: 0x25CCC, symBinAddr: 0x100026ABC, symSize: 0x14 }
  - { offsetInCU: 0x453AF, offset: 0x453AF, size: 0x8, addend: 0x0, symName: __ZNSt3__123__libcpp_numeric_limitsIlLb1EE3maxB8ue170006Ev, symObjAddr: 0x25CE0, symBinAddr: 0x100026AD0, symSize: 0x8 }
  - { offsetInCU: 0x453C3, offset: 0x453C3, size: 0x8, addend: 0x0, symName: __ZNSt12length_errorC1B8ue170006EPKc, symObjAddr: 0x25D4C, symBinAddr: 0x100026B3C, symSize: 0x34 }
  - { offsetInCU: 0x453FB, offset: 0x453FB, size: 0x8, addend: 0x0, symName: __ZNSt12length_errorC2B8ue170006EPKc, symObjAddr: 0x25D80, symBinAddr: 0x100026B70, symSize: 0x4C }
  - { offsetInCU: 0x45433, offset: 0x45433, size: 0x8, addend: 0x0, symName: __ZNSt3__117__compressed_pairIPN8nlohmann16json_abi_v3_11_310basic_jsonINS_3mapENS_6vectorENS_12basic_stringIcNS_11char_traitsIcEENS_9allocatorIcEEEEbxydS9_NS2_14adl_serializerENS5_IhNS9_IhEEEEvEENS9_ISF_EEE6secondB8ue170006Ev, symObjAddr: 0x25DCC, symBinAddr: 0x100026BBC, symSize: 0x24 }
  - { offsetInCU: 0x45459, offset: 0x45459, size: 0x8, addend: 0x0, symName: __ZNSt3__122__compressed_pair_elemINS_9allocatorIN8nlohmann16json_abi_v3_11_310basic_jsonINS_3mapENS_6vectorENS_12basic_stringIcNS_11char_traitsIcEENS1_IcEEEEbxydS1_NS3_14adl_serializerENS6_IhNS1_IhEEEEvEEEELi1ELb1EE5__getB8ue170006Ev, symObjAddr: 0x25DF0, symBinAddr: 0x100026BE0, symSize: 0x14 }
  - { offsetInCU: 0x4547F, offset: 0x4547F, size: 0x8, addend: 0x0, symName: __ZNSt3__114__split_bufferIN8nlohmann16json_abi_v3_11_310basic_jsonINS_3mapENS_6vectorENS_12basic_stringIcNS_11char_traitsIcEENS_9allocatorIcEEEEbxydS9_NS2_14adl_serializerENS5_IhNS9_IhEEEEvEERNS9_ISF_EEEC2EmmSH_, symObjAddr: 0x25E04, symBinAddr: 0x100026BF4, symSize: 0xD4 }
  - { offsetInCU: 0x454F3, offset: 0x454F3, size: 0x8, addend: 0x0, symName: __ZNSt3__117__compressed_pairIPN8nlohmann16json_abi_v3_11_310basic_jsonINS_3mapENS_6vectorENS_12basic_stringIcNS_11char_traitsIcEENS_9allocatorIcEEEEbxydS9_NS2_14adl_serializerENS5_IhNS9_IhEEEEvEERNS9_ISF_EEEC1B8ue170006IDnSI_EEOT_OT0_, symObjAddr: 0x25ED8, symBinAddr: 0x100026CC8, symSize: 0x3C }
  - { offsetInCU: 0x4554B, offset: 0x4554B, size: 0x8, addend: 0x0, symName: __ZNSt3__114__split_bufferIN8nlohmann16json_abi_v3_11_310basic_jsonINS_3mapENS_6vectorENS_12basic_stringIcNS_11char_traitsIcEENS_9allocatorIcEEEEbxydS9_NS2_14adl_serializerENS5_IhNS9_IhEEEEvEERNS9_ISF_EEE7__allocB8ue170006Ev, symObjAddr: 0x25F54, symBinAddr: 0x100026D44, symSize: 0x28 }
  - { offsetInCU: 0x45571, offset: 0x45571, size: 0x8, addend: 0x0, symName: __ZNSt3__114__split_bufferIN8nlohmann16json_abi_v3_11_310basic_jsonINS_3mapENS_6vectorENS_12basic_stringIcNS_11char_traitsIcEENS_9allocatorIcEEEEbxydS9_NS2_14adl_serializerENS5_IhNS9_IhEEEEvEERNS9_ISF_EEE9__end_capB8ue170006Ev, symObjAddr: 0x25F7C, symBinAddr: 0x100026D6C, symSize: 0x28 }
  - { offsetInCU: 0x45597, offset: 0x45597, size: 0x8, addend: 0x0, symName: __ZNSt3__117__compressed_pairIPN8nlohmann16json_abi_v3_11_310basic_jsonINS_3mapENS_6vectorENS_12basic_stringIcNS_11char_traitsIcEENS_9allocatorIcEEEEbxydS9_NS2_14adl_serializerENS5_IhNS9_IhEEEEvEERNS9_ISF_EEEC2B8ue170006IDnSI_EEOT_OT0_, symObjAddr: 0x25FA4, symBinAddr: 0x100026D94, symSize: 0x48 }
  - { offsetInCU: 0x455EF, offset: 0x455EF, size: 0x8, addend: 0x0, symName: __ZNSt3__122__compressed_pair_elemIRNS_9allocatorIN8nlohmann16json_abi_v3_11_310basic_jsonINS_3mapENS_6vectorENS_12basic_stringIcNS_11char_traitsIcEENS1_IcEEEEbxydS1_NS3_14adl_serializerENS6_IhNS1_IhEEEEvEEEELi1ELb0EEC2B8ue170006ISH_vEEOT_, symObjAddr: 0x25FEC, symBinAddr: 0x100026DDC, symSize: 0x20 }
  - { offsetInCU: 0x45631, offset: 0x45631, size: 0x8, addend: 0x0, symName: __ZNSt3__19allocatorIN8nlohmann16json_abi_v3_11_310basic_jsonINS_3mapENS_6vectorENS_12basic_stringIcNS_11char_traitsIcEENS0_IcEEEEbxydS0_NS2_14adl_serializerENS5_IhNS0_IhEEEEvEEE8allocateB8ue170006Em, symObjAddr: 0x2600C, symBinAddr: 0x100026DFC, symSize: 0x58 }
  - { offsetInCU: 0x45665, offset: 0x45665, size: 0x8, addend: 0x0, symName: __ZNSt3__117__compressed_pairIPN8nlohmann16json_abi_v3_11_310basic_jsonINS_3mapENS_6vectorENS_12basic_stringIcNS_11char_traitsIcEENS_9allocatorIcEEEEbxydS9_NS2_14adl_serializerENS5_IhNS9_IhEEEEvEERNS9_ISF_EEE6secondB8ue170006Ev, symObjAddr: 0x26148, symBinAddr: 0x100026F38, symSize: 0x28 }
  - { offsetInCU: 0x4568B, offset: 0x4568B, size: 0x8, addend: 0x0, symName: __ZNSt3__122__compressed_pair_elemIRNS_9allocatorIN8nlohmann16json_abi_v3_11_310basic_jsonINS_3mapENS_6vectorENS_12basic_stringIcNS_11char_traitsIcEENS1_IcEEEEbxydS1_NS3_14adl_serializerENS6_IhNS1_IhEEEEvEEEELi1ELb0EE5__getB8ue170006Ev, symObjAddr: 0x26170, symBinAddr: 0x100026F60, symSize: 0x18 }
  - { offsetInCU: 0x456B1, offset: 0x456B1, size: 0x8, addend: 0x0, symName: __ZNSt3__117__compressed_pairIPN8nlohmann16json_abi_v3_11_310basic_jsonINS_3mapENS_6vectorENS_12basic_stringIcNS_11char_traitsIcEENS_9allocatorIcEEEEbxydS9_NS2_14adl_serializerENS5_IhNS9_IhEEEEvEERNS9_ISF_EEE5firstB8ue170006Ev, symObjAddr: 0x26188, symBinAddr: 0x100026F78, symSize: 0x24 }
  - { offsetInCU: 0x456D7, offset: 0x456D7, size: 0x8, addend: 0x0, symName: __ZNSt3__122__compressed_pair_elemIPN8nlohmann16json_abi_v3_11_310basic_jsonINS_3mapENS_6vectorENS_12basic_stringIcNS_11char_traitsIcEENS_9allocatorIcEEEEbxydS9_NS2_14adl_serializerENS5_IhNS9_IhEEEEvEELi0ELb0EE5__getB8ue170006Ev, symObjAddr: 0x261AC, symBinAddr: 0x100026F9C, symSize: 0x14 }
  - { offsetInCU: 0x456FD, offset: 0x456FD, size: 0x8, addend: 0x0, symName: __ZNKSt3__16vectorIN8nlohmann16json_abi_v3_11_310basic_jsonINS_3mapES0_NS_12basic_stringIcNS_11char_traitsIcEENS_9allocatorIcEEEEbxydS8_NS2_14adl_serializerENS0_IhNS8_IhEEEEvEENS8_ISE_EEE17__annotate_deleteB8ue170006Ev, symObjAddr: 0x261C0, symBinAddr: 0x100026FB0, symSize: 0xB8 }
  - { offsetInCU: 0x45723, offset: 0x45723, size: 0x8, addend: 0x0, symName: __ZNSt3__116reverse_iteratorIPN8nlohmann16json_abi_v3_11_310basic_jsonINS_3mapENS_6vectorENS_12basic_stringIcNS_11char_traitsIcEENS_9allocatorIcEEEEbxydS9_NS2_14adl_serializerENS5_IhNS9_IhEEEEvEEEC1B8ue170006ESG_, symObjAddr: 0x263A4, symBinAddr: 0x100027194, symSize: 0x34 }
  - { offsetInCU: 0x4575B, offset: 0x4575B, size: 0x8, addend: 0x0, symName: __ZNKSt3__116reverse_iteratorIPN8nlohmann16json_abi_v3_11_310basic_jsonINS_3mapENS_6vectorENS_12basic_stringIcNS_11char_traitsIcEENS_9allocatorIcEEEEbxydS9_NS2_14adl_serializerENS5_IhNS9_IhEEEEvEEE4baseB8ue170006Ev, symObjAddr: 0x263D8, symBinAddr: 0x1000271C8, symSize: 0x18 }
  - { offsetInCU: 0x45781, offset: 0x45781, size: 0x8, addend: 0x0, symName: __ZNSt3__16vectorIN8nlohmann16json_abi_v3_11_310basic_jsonINS_3mapES0_NS_12basic_stringIcNS_11char_traitsIcEENS_9allocatorIcEEEEbxydS8_NS2_14adl_serializerENS0_IhNS8_IhEEEEvEENS8_ISE_EEE9__end_capB8ue170006Ev, symObjAddr: 0x2642C, symBinAddr: 0x10002721C, symSize: 0x28 }
  - { offsetInCU: 0x457A7, offset: 0x457A7, size: 0x8, addend: 0x0, symName: __ZNKSt3__16vectorIN8nlohmann16json_abi_v3_11_310basic_jsonINS_3mapES0_NS_12basic_stringIcNS_11char_traitsIcEENS_9allocatorIcEEEEbxydS8_NS2_14adl_serializerENS0_IhNS8_IhEEEEvEENS8_ISE_EEE14__annotate_newB8ue170006Em, symObjAddr: 0x26454, symBinAddr: 0x100027244, symSize: 0xAC }
  - { offsetInCU: 0x457DC, offset: 0x457DC, size: 0x8, addend: 0x0, symName: __ZNKSt3__16vectorIN8nlohmann16json_abi_v3_11_310basic_jsonINS_3mapES0_NS_12basic_stringIcNS_11char_traitsIcEENS_9allocatorIcEEEEbxydS8_NS2_14adl_serializerENS0_IhNS8_IhEEEEvEENS8_ISE_EEE31__annotate_contiguous_containerB8ue170006EPKvSI_SI_SI_, symObjAddr: 0x26500, symBinAddr: 0x1000272F0, symSize: 0x20 }
  - { offsetInCU: 0x45832, offset: 0x45832, size: 0x8, addend: 0x0, symName: __ZNKSt3__16vectorIN8nlohmann16json_abi_v3_11_310basic_jsonINS_3mapES0_NS_12basic_stringIcNS_11char_traitsIcEENS_9allocatorIcEEEEbxydS8_NS2_14adl_serializerENS0_IhNS8_IhEEEEvEENS8_ISE_EEE4dataB8ue170006Ev, symObjAddr: 0x26520, symBinAddr: 0x100027310, symSize: 0x28 }
  - { offsetInCU: 0x45858, offset: 0x45858, size: 0x8, addend: 0x0, symName: __ZNSt3__129_AllocatorDestroyRangeReverseINS_9allocatorIN8nlohmann16json_abi_v3_11_310basic_jsonINS_3mapENS_6vectorENS_12basic_stringIcNS_11char_traitsIcEENS1_IcEEEEbxydS1_NS3_14adl_serializerENS6_IhNS1_IhEEEEvEEEENS_16reverse_iteratorIPSF_EEEC1B8ue170006ERSG_RSJ_SM_, symObjAddr: 0x265A8, symBinAddr: 0x100027398, symSize: 0x44 }
  - { offsetInCU: 0x458AF, offset: 0x458AF, size: 0x8, addend: 0x0, symName: __ZNSt3__116allocator_traitsINS_9allocatorIN8nlohmann16json_abi_v3_11_310basic_jsonINS_3mapENS_6vectorENS_12basic_stringIcNS_11char_traitsIcEENS1_IcEEEEbxydS1_NS3_14adl_serializerENS6_IhNS1_IhEEEEvEEEEE9constructB8ue170006ISF_JSF_EvvEEvRSG_PT_DpOT0_, symObjAddr: 0x26634, symBinAddr: 0x100027424, symSize: 0x30 }
  - { offsetInCU: 0x45904, offset: 0x45904, size: 0x8, addend: 0x0, symName: __ZNKSt3__116reverse_iteratorIPN8nlohmann16json_abi_v3_11_310basic_jsonINS_3mapENS_6vectorENS_12basic_stringIcNS_11char_traitsIcEENS_9allocatorIcEEEEbxydS9_NS2_14adl_serializerENS5_IhNS9_IhEEEEvEEEdeB8ue170006Ev, symObjAddr: 0x26688, symBinAddr: 0x100027478, symSize: 0x28 }
  - { offsetInCU: 0x45938, offset: 0x45938, size: 0x8, addend: 0x0, symName: __ZNSt3__116reverse_iteratorIPN8nlohmann16json_abi_v3_11_310basic_jsonINS_3mapENS_6vectorENS_12basic_stringIcNS_11char_traitsIcEENS_9allocatorIcEEEEbxydS9_NS2_14adl_serializerENS5_IhNS9_IhEEEEvEEEppB8ue170006Ev, symObjAddr: 0x266B0, symBinAddr: 0x1000274A0, symSize: 0x20 }
  - { offsetInCU: 0x4595E, offset: 0x4595E, size: 0x8, addend: 0x0, symName: __ZNSt3__128__exception_guard_exceptionsINS_29_AllocatorDestroyRangeReverseINS_9allocatorIN8nlohmann16json_abi_v3_11_310basic_jsonINS_3mapENS_6vectorENS_12basic_stringIcNS_11char_traitsIcEENS2_IcEEEEbxydS2_NS4_14adl_serializerENS7_IhNS2_IhEEEEvEEEENS_16reverse_iteratorIPSG_EEEEE10__completeB8ue170006Ev, symObjAddr: 0x266D0, symBinAddr: 0x1000274C0, symSize: 0x1C }
  - { offsetInCU: 0x45984, offset: 0x45984, size: 0x8, addend: 0x0, symName: __ZNSt3__128__exception_guard_exceptionsINS_29_AllocatorDestroyRangeReverseINS_9allocatorIN8nlohmann16json_abi_v3_11_310basic_jsonINS_3mapENS_6vectorENS_12basic_stringIcNS_11char_traitsIcEENS2_IcEEEEbxydS2_NS4_14adl_serializerENS7_IhNS2_IhEEEEvEEEENS_16reverse_iteratorIPSG_EEEEED1B8ue170006Ev, symObjAddr: 0x266EC, symBinAddr: 0x1000274DC, symSize: 0x2C }
  - { offsetInCU: 0x459AE, offset: 0x459AE, size: 0x8, addend: 0x0, symName: __ZNSt3__128__exception_guard_exceptionsINS_29_AllocatorDestroyRangeReverseINS_9allocatorIN8nlohmann16json_abi_v3_11_310basic_jsonINS_3mapENS_6vectorENS_12basic_stringIcNS_11char_traitsIcEENS2_IcEEEEbxydS2_NS4_14adl_serializerENS7_IhNS2_IhEEEEvEEEENS_16reverse_iteratorIPSG_EEEEEC1B8ue170006ESL_, symObjAddr: 0x26718, symBinAddr: 0x100027508, symSize: 0x34 }
  - { offsetInCU: 0x459E7, offset: 0x459E7, size: 0x8, addend: 0x0, symName: __ZNSt3__128__exception_guard_exceptionsINS_29_AllocatorDestroyRangeReverseINS_9allocatorIN8nlohmann16json_abi_v3_11_310basic_jsonINS_3mapENS_6vectorENS_12basic_stringIcNS_11char_traitsIcEENS2_IcEEEEbxydS2_NS4_14adl_serializerENS7_IhNS2_IhEEEEvEEEENS_16reverse_iteratorIPSG_EEEEEC2B8ue170006ESL_, symObjAddr: 0x2674C, symBinAddr: 0x10002753C, symSize: 0x30 }
  - { offsetInCU: 0x45A20, offset: 0x45A20, size: 0x8, addend: 0x0, symName: __ZNSt3__129_AllocatorDestroyRangeReverseINS_9allocatorIN8nlohmann16json_abi_v3_11_310basic_jsonINS_3mapENS_6vectorENS_12basic_stringIcNS_11char_traitsIcEENS1_IcEEEEbxydS1_NS3_14adl_serializerENS6_IhNS1_IhEEEEvEEEENS_16reverse_iteratorIPSF_EEEC2B8ue170006ERSG_RSJ_SM_, symObjAddr: 0x2677C, symBinAddr: 0x10002756C, symSize: 0x38 }
  - { offsetInCU: 0x45A7D, offset: 0x45A7D, size: 0x8, addend: 0x0, symName: __ZNSt3__119__to_address_helperINS_16reverse_iteratorIPN8nlohmann16json_abi_v3_11_310basic_jsonINS_3mapENS_6vectorENS_12basic_stringIcNS_11char_traitsIcEENS_9allocatorIcEEEEbxydSA_NS3_14adl_serializerENS6_IhNSA_IhEEEEvEEEEvE6__callB8ue170006ERKSI_, symObjAddr: 0x267F0, symBinAddr: 0x1000275E0, symSize: 0x38 }
  - { offsetInCU: 0x45AA0, offset: 0x45AA0, size: 0x8, addend: 0x0, symName: __ZNKSt3__116reverse_iteratorIPN8nlohmann16json_abi_v3_11_310basic_jsonINS_3mapENS_6vectorENS_12basic_stringIcNS_11char_traitsIcEENS_9allocatorIcEEEEbxydS9_NS2_14adl_serializerENS5_IhNS9_IhEEEEvEEEptB8ue170006Ev, symObjAddr: 0x26828, symBinAddr: 0x100027618, symSize: 0x2C }
  - { offsetInCU: 0x45AC6, offset: 0x45AC6, size: 0x8, addend: 0x0, symName: __ZNSt3__128__exception_guard_exceptionsINS_29_AllocatorDestroyRangeReverseINS_9allocatorIN8nlohmann16json_abi_v3_11_310basic_jsonINS_3mapENS_6vectorENS_12basic_stringIcNS_11char_traitsIcEENS2_IcEEEEbxydS2_NS4_14adl_serializerENS7_IhNS2_IhEEEEvEEEENS_16reverse_iteratorIPSG_EEEEED2B8ue170006Ev, symObjAddr: 0x26904, symBinAddr: 0x1000276F4, symSize: 0x50 }
  - { offsetInCU: 0x45AF0, offset: 0x45AF0, size: 0x8, addend: 0x0, symName: __ZNKSt3__129_AllocatorDestroyRangeReverseINS_9allocatorIN8nlohmann16json_abi_v3_11_310basic_jsonINS_3mapENS_6vectorENS_12basic_stringIcNS_11char_traitsIcEENS1_IcEEEEbxydS1_NS3_14adl_serializerENS6_IhNS1_IhEEEEvEEEENS_16reverse_iteratorIPSF_EEEclB8ue170006Ev, symObjAddr: 0x26954, symBinAddr: 0x100027744, symSize: 0xB4 }
  - { offsetInCU: 0x45B17, offset: 0x45B17, size: 0x8, addend: 0x0, symName: __ZNSt3__116reverse_iteratorINS0_IPN8nlohmann16json_abi_v3_11_310basic_jsonINS_3mapENS_6vectorENS_12basic_stringIcNS_11char_traitsIcEENS_9allocatorIcEEEEbxydS9_NS2_14adl_serializerENS5_IhNS9_IhEEEEvEEEEEC1B8ue170006ESH_, symObjAddr: 0x26A78, symBinAddr: 0x100027868, symSize: 0x3C }
  - { offsetInCU: 0x45B4F, offset: 0x45B4F, size: 0x8, addend: 0x0, symName: __ZNSt3__116allocator_traitsINS_9allocatorIN8nlohmann16json_abi_v3_11_310basic_jsonINS_3mapENS_6vectorENS_12basic_stringIcNS_11char_traitsIcEENS1_IcEEEEbxydS1_NS3_14adl_serializerENS6_IhNS1_IhEEEEvEEEEE7destroyB8ue170006ISF_vvEEvRSG_PT_, symObjAddr: 0x26B14, symBinAddr: 0x100027904, symSize: 0x28 }
  - { offsetInCU: 0x45B8A, offset: 0x45B8A, size: 0x8, addend: 0x0, symName: __ZNSt3__116reverse_iteratorINS0_IPN8nlohmann16json_abi_v3_11_310basic_jsonINS_3mapENS_6vectorENS_12basic_stringIcNS_11char_traitsIcEENS_9allocatorIcEEEEbxydS9_NS2_14adl_serializerENS5_IhNS9_IhEEEEvEEEEEppB8ue170006Ev, symObjAddr: 0x26B60, symBinAddr: 0x100027950, symSize: 0x30 }
  - { offsetInCU: 0x45BB0, offset: 0x45BB0, size: 0x8, addend: 0x0, symName: __ZNKSt3__116reverse_iteratorINS0_IPN8nlohmann16json_abi_v3_11_310basic_jsonINS_3mapENS_6vectorENS_12basic_stringIcNS_11char_traitsIcEENS_9allocatorIcEEEEbxydS9_NS2_14adl_serializerENS5_IhNS9_IhEEEEvEEEEE4baseB8ue170006Ev, symObjAddr: 0x26B90, symBinAddr: 0x100027980, symSize: 0x24 }
  - { offsetInCU: 0x45BDC, offset: 0x45BDC, size: 0x8, addend: 0x0, symName: __ZNSt3__119__to_address_helperINS_16reverse_iteratorINS1_IPN8nlohmann16json_abi_v3_11_310basic_jsonINS_3mapENS_6vectorENS_12basic_stringIcNS_11char_traitsIcEENS_9allocatorIcEEEEbxydSA_NS3_14adl_serializerENS6_IhNSA_IhEEEEvEEEEEEvE6__callB8ue170006ERKSJ_, symObjAddr: 0x26BFC, symBinAddr: 0x1000279EC, symSize: 0x38 }
  - { offsetInCU: 0x45BFF, offset: 0x45BFF, size: 0x8, addend: 0x0, symName: __ZNKSt3__116reverse_iteratorINS0_IPN8nlohmann16json_abi_v3_11_310basic_jsonINS_3mapENS_6vectorENS_12basic_stringIcNS_11char_traitsIcEENS_9allocatorIcEEEEbxydS9_NS2_14adl_serializerENS5_IhNS9_IhEEEEvEEEEEptB8ue170006Ev, symObjAddr: 0x26C34, symBinAddr: 0x100027A24, symSize: 0x4C }
  - { offsetInCU: 0x45C25, offset: 0x45C25, size: 0x8, addend: 0x0, symName: __ZNSt3__116reverse_iteratorIPN8nlohmann16json_abi_v3_11_310basic_jsonINS_3mapENS_6vectorENS_12basic_stringIcNS_11char_traitsIcEENS_9allocatorIcEEEEbxydS9_NS2_14adl_serializerENS5_IhNS9_IhEEEEvEEEpLB8ue170006El, symObjAddr: 0x26D30, symBinAddr: 0x100027B20, symSize: 0x30 }
  - { offsetInCU: 0x45C59, offset: 0x45C59, size: 0x8, addend: 0x0, symName: __ZNSt3__116reverse_iteratorIPN8nlohmann16json_abi_v3_11_310basic_jsonINS_3mapENS_6vectorENS_12basic_stringIcNS_11char_traitsIcEENS_9allocatorIcEEEEbxydS9_NS2_14adl_serializerENS5_IhNS9_IhEEEEvEEEmmB8ue170006Ev, symObjAddr: 0x26D60, symBinAddr: 0x100027B50, symSize: 0x20 }
  - { offsetInCU: 0x45C7F, offset: 0x45C7F, size: 0x8, addend: 0x0, symName: __ZNSt3__116reverse_iteratorINS0_IPN8nlohmann16json_abi_v3_11_310basic_jsonINS_3mapENS_6vectorENS_12basic_stringIcNS_11char_traitsIcEENS_9allocatorIcEEEEbxydS9_NS2_14adl_serializerENS5_IhNS9_IhEEEEvEEEEEC2B8ue170006ESH_, symObjAddr: 0x26D80, symBinAddr: 0x100027B70, symSize: 0x2C }
  - { offsetInCU: 0x45CB7, offset: 0x45CB7, size: 0x8, addend: 0x0, symName: __ZNSt3__116reverse_iteratorIPN8nlohmann16json_abi_v3_11_310basic_jsonINS_3mapENS_6vectorENS_12basic_stringIcNS_11char_traitsIcEENS_9allocatorIcEEEEbxydS9_NS2_14adl_serializerENS5_IhNS9_IhEEEEvEEEC2B8ue170006ESG_, symObjAddr: 0x26DAC, symBinAddr: 0x100027B9C, symSize: 0x28 }
  - { offsetInCU: 0x45CEF, offset: 0x45CEF, size: 0x8, addend: 0x0, symName: __ZNSt3__117__compressed_pairIPN8nlohmann16json_abi_v3_11_310basic_jsonINS_3mapENS_6vectorENS_12basic_stringIcNS_11char_traitsIcEENS_9allocatorIcEEEEbxydS9_NS2_14adl_serializerENS5_IhNS9_IhEEEEvEENS9_ISF_EEE5firstB8ue170006Ev, symObjAddr: 0x26DD4, symBinAddr: 0x100027BC4, symSize: 0x24 }
  - { offsetInCU: 0x45D15, offset: 0x45D15, size: 0x8, addend: 0x0, symName: __ZNSt3__114__split_bufferIN8nlohmann16json_abi_v3_11_310basic_jsonINS_3mapENS_6vectorENS_12basic_stringIcNS_11char_traitsIcEENS_9allocatorIcEEEEbxydS9_NS2_14adl_serializerENS5_IhNS9_IhEEEEvEERNS9_ISF_EEED2Ev, symObjAddr: 0x26DF8, symBinAddr: 0x100027BE8, symSize: 0x8C }
  - { offsetInCU: 0x45D41, offset: 0x45D41, size: 0x8, addend: 0x0, symName: __ZNSt3__114__split_bufferIN8nlohmann16json_abi_v3_11_310basic_jsonINS_3mapENS_6vectorENS_12basic_stringIcNS_11char_traitsIcEENS_9allocatorIcEEEEbxydS9_NS2_14adl_serializerENS5_IhNS9_IhEEEEvEERNS9_ISF_EEE5clearB8ue170006Ev, symObjAddr: 0x26E84, symBinAddr: 0x100027C74, symSize: 0x28 }
  - { offsetInCU: 0x45D67, offset: 0x45D67, size: 0x8, addend: 0x0, symName: __ZNSt3__116allocator_traitsINS_9allocatorIN8nlohmann16json_abi_v3_11_310basic_jsonINS_3mapENS_6vectorENS_12basic_stringIcNS_11char_traitsIcEENS1_IcEEEEbxydS1_NS3_14adl_serializerENS6_IhNS1_IhEEEEvEEEEE10deallocateB8ue170006ERSG_PSF_m, symObjAddr: 0x26EAC, symBinAddr: 0x100027C9C, symSize: 0x34 }
  - { offsetInCU: 0x45DA9, offset: 0x45DA9, size: 0x8, addend: 0x0, symName: __ZNKSt3__114__split_bufferIN8nlohmann16json_abi_v3_11_310basic_jsonINS_3mapENS_6vectorENS_12basic_stringIcNS_11char_traitsIcEENS_9allocatorIcEEEEbxydS9_NS2_14adl_serializerENS5_IhNS9_IhEEEEvEERNS9_ISF_EEE8capacityB8ue170006Ev, symObjAddr: 0x26EE0, symBinAddr: 0x100027CD0, symSize: 0x40 }
  - { offsetInCU: 0x45DCF, offset: 0x45DCF, size: 0x8, addend: 0x0, symName: __ZNSt3__114__split_bufferIN8nlohmann16json_abi_v3_11_310basic_jsonINS_3mapENS_6vectorENS_12basic_stringIcNS_11char_traitsIcEENS_9allocatorIcEEEEbxydS9_NS2_14adl_serializerENS5_IhNS9_IhEEEEvEERNS9_ISF_EEE17__destruct_at_endB8ue170006EPSF_, symObjAddr: 0x26F20, symBinAddr: 0x100027D10, symSize: 0x2C }
  - { offsetInCU: 0x45E03, offset: 0x45E03, size: 0x8, addend: 0x0, symName: __ZNSt3__114__split_bufferIN8nlohmann16json_abi_v3_11_310basic_jsonINS_3mapENS_6vectorENS_12basic_stringIcNS_11char_traitsIcEENS_9allocatorIcEEEEbxydS9_NS2_14adl_serializerENS5_IhNS9_IhEEEEvEERNS9_ISF_EEE17__destruct_at_endB8ue170006EPSF_NS_17integral_constantIbLb0EEE, symObjAddr: 0x26F4C, symBinAddr: 0x100027D3C, symSize: 0x80 }
  - { offsetInCU: 0x45E44, offset: 0x45E44, size: 0x8, addend: 0x0, symName: __ZNSt3__19allocatorIN8nlohmann16json_abi_v3_11_310basic_jsonINS_3mapENS_6vectorENS_12basic_stringIcNS_11char_traitsIcEENS0_IcEEEEbxydS0_NS2_14adl_serializerENS5_IhNS0_IhEEEEvEEE10deallocateB8ue170006EPSE_m, symObjAddr: 0x26FCC, symBinAddr: 0x100027DBC, symSize: 0x40 }
  - { offsetInCU: 0x45E86, offset: 0x45E86, size: 0x8, addend: 0x0, symName: __ZNKSt3__114__split_bufferIN8nlohmann16json_abi_v3_11_310basic_jsonINS_3mapENS_6vectorENS_12basic_stringIcNS_11char_traitsIcEENS_9allocatorIcEEEEbxydS9_NS2_14adl_serializerENS5_IhNS9_IhEEEEvEERNS9_ISF_EEE9__end_capB8ue170006Ev, symObjAddr: 0x2700C, symBinAddr: 0x100027DFC, symSize: 0x28 }
  - { offsetInCU: 0x45EAC, offset: 0x45EAC, size: 0x8, addend: 0x0, symName: __ZNKSt3__117__compressed_pairIPN8nlohmann16json_abi_v3_11_310basic_jsonINS_3mapENS_6vectorENS_12basic_stringIcNS_11char_traitsIcEENS_9allocatorIcEEEEbxydS9_NS2_14adl_serializerENS5_IhNS9_IhEEEEvEERNS9_ISF_EEE5firstB8ue170006Ev, symObjAddr: 0x27034, symBinAddr: 0x100027E24, symSize: 0x24 }
  - { offsetInCU: 0x45EFA, offset: 0x45EFA, size: 0x8, addend: 0x0, symName: __ZNKSt3__111__move_loopINS_17_ClassicAlgPolicyEEclB8ue170006IPN8nlohmann16json_abi_v3_11_310basic_jsonINS_3mapENS_6vectorENS_12basic_stringIcNS_11char_traitsIcEENS_9allocatorIcEEEEbxydSC_NS5_14adl_serializerENS8_IhNSC_IhEEEEvEESJ_NS_20back_insert_iteratorINS8_ISI_NSC_ISI_EEEEEEEENS_4pairIT_T1_EESP_T0_SQ_, symObjAddr: 0x27244, symBinAddr: 0x100028034, symSize: 0x98 }
  - { offsetInCU: 0x45F82, offset: 0x45F82, size: 0x8, addend: 0x0, symName: __ZNSt3__119__unwrap_range_implINS_11__wrap_iterIPN8nlohmann16json_abi_v3_11_310basic_jsonINS_3mapENS_6vectorENS_12basic_stringIcNS_11char_traitsIcEENS_9allocatorIcEEEEbxydSA_NS3_14adl_serializerENS6_IhNSA_IhEEEEvEEEESI_E8__unwrapB8ue170006ESI_SI_, symObjAddr: 0x273D8, symBinAddr: 0x1000281C8, symSize: 0x68 }
  - { offsetInCU: 0x45FB9, offset: 0x45FB9, size: 0x8, addend: 0x0, symName: __ZNSt3__14pairIPN8nlohmann16json_abi_v3_11_310basic_jsonINS_3mapENS_6vectorENS_12basic_stringIcNS_11char_traitsIcEENS_9allocatorIcEEEEbxydS9_NS2_14adl_serializerENS5_IhNS9_IhEEEEvEESG_EC1B8ue170006ISG_SG_LPv0EEEOT_OT0_, symObjAddr: 0x2746C, symBinAddr: 0x10002825C, symSize: 0x3C }
  - { offsetInCU: 0x46017, offset: 0x46017, size: 0x8, addend: 0x0, symName: __ZNSt3__118__unwrap_iter_implINS_11__wrap_iterIPN8nlohmann16json_abi_v3_11_310basic_jsonINS_3mapENS_6vectorENS_12basic_stringIcNS_11char_traitsIcEENS_9allocatorIcEEEEbxydSA_NS3_14adl_serializerENS6_IhNSA_IhEEEEvEEEELb1EE8__unwrapB8ue170006ESI_, symObjAddr: 0x274A8, symBinAddr: 0x100028298, symSize: 0x28 }
  - { offsetInCU: 0x46046, offset: 0x46046, size: 0x8, addend: 0x0, symName: __ZNSt3__119__to_address_helperINS_11__wrap_iterIPN8nlohmann16json_abi_v3_11_310basic_jsonINS_3mapENS_6vectorENS_12basic_stringIcNS_11char_traitsIcEENS_9allocatorIcEEEEbxydSA_NS3_14adl_serializerENS6_IhNSA_IhEEEEvEEEEvE6__callB8ue170006ERKSI_, symObjAddr: 0x274F4, symBinAddr: 0x1000282E4, symSize: 0x30 }
  - { offsetInCU: 0x46069, offset: 0x46069, size: 0x8, addend: 0x0, symName: __ZNSt3__114pointer_traitsINS_11__wrap_iterIPN8nlohmann16json_abi_v3_11_310basic_jsonINS_3mapENS_6vectorENS_12basic_stringIcNS_11char_traitsIcEENS_9allocatorIcEEEEbxydSA_NS3_14adl_serializerENS6_IhNSA_IhEEEEvEEEEE10to_addressB8ue170006ESI_, symObjAddr: 0x27524, symBinAddr: 0x100028314, symSize: 0x2C }
  - { offsetInCU: 0x4608C, offset: 0x4608C, size: 0x8, addend: 0x0, symName: __ZNKSt3__111__wrap_iterIPN8nlohmann16json_abi_v3_11_310basic_jsonINS_3mapENS_6vectorENS_12basic_stringIcNS_11char_traitsIcEENS_9allocatorIcEEEEbxydS9_NS2_14adl_serializerENS5_IhNS9_IhEEEEvEEE4baseB8ue170006Ev, symObjAddr: 0x27550, symBinAddr: 0x100028340, symSize: 0x18 }
  - { offsetInCU: 0x460B2, offset: 0x460B2, size: 0x8, addend: 0x0, symName: __ZNSt3__14pairIPN8nlohmann16json_abi_v3_11_310basic_jsonINS_3mapENS_6vectorENS_12basic_stringIcNS_11char_traitsIcEENS_9allocatorIcEEEEbxydS9_NS2_14adl_serializerENS5_IhNS9_IhEEEEvEESG_EC2B8ue170006ISG_SG_LPv0EEEOT_OT0_, symObjAddr: 0x27568, symBinAddr: 0x100028358, symSize: 0x34 }
  - { offsetInCU: 0x46110, offset: 0x46110, size: 0x8, addend: 0x0, symName: __ZNSt3__18_IterOpsINS_17_ClassicAlgPolicyEE11__iter_moveB8ue170006IRPN8nlohmann16json_abi_v3_11_310basic_jsonINS_3mapENS_6vectorENS_12basic_stringIcNS_11char_traitsIcEENS_9allocatorIcEEEEbxydSC_NS5_14adl_serializerENS8_IhNSC_IhEEEEvEEEENS_9enable_ifIXsr12is_referenceIDTdeclsr3stdE7declvalIRT_EEEEE5valueEDTclsr3stdE4movedeclsr3stdE7declvalISN_EEEEE4typeEOSM_, symObjAddr: 0x2759C, symBinAddr: 0x10002838C, symSize: 0x28 }
  - { offsetInCU: 0x4613C, offset: 0x4613C, size: 0x8, addend: 0x0, symName: __ZNSt3__120back_insert_iteratorINS_6vectorIN8nlohmann16json_abi_v3_11_310basic_jsonINS_3mapES1_NS_12basic_stringIcNS_11char_traitsIcEENS_9allocatorIcEEEEbxydS9_NS3_14adl_serializerENS1_IhNS9_IhEEEEvEENS9_ISF_EEEEEdeB8ue170006Ev, symObjAddr: 0x275C4, symBinAddr: 0x1000283B4, symSize: 0x14 }
  - { offsetInCU: 0x46162, offset: 0x46162, size: 0x8, addend: 0x0, symName: __ZNSt3__120back_insert_iteratorINS_6vectorIN8nlohmann16json_abi_v3_11_310basic_jsonINS_3mapES1_NS_12basic_stringIcNS_11char_traitsIcEENS_9allocatorIcEEEEbxydS9_NS3_14adl_serializerENS1_IhNS9_IhEEEEvEENS9_ISF_EEEEEaSB8ue170006EOSF_, symObjAddr: 0x275D8, symBinAddr: 0x1000283C8, symSize: 0x38 }
  - { offsetInCU: 0x46196, offset: 0x46196, size: 0x8, addend: 0x0, symName: __ZNSt3__120back_insert_iteratorINS_6vectorIN8nlohmann16json_abi_v3_11_310basic_jsonINS_3mapES1_NS_12basic_stringIcNS_11char_traitsIcEENS_9allocatorIcEEEEbxydS9_NS3_14adl_serializerENS1_IhNS9_IhEEEEvEENS9_ISF_EEEEEppB8ue170006Ev, symObjAddr: 0x27610, symBinAddr: 0x100028400, symSize: 0x14 }
  - { offsetInCU: 0x461BC, offset: 0x461BC, size: 0x8, addend: 0x0, symName: __ZNSt3__18_IterOpsINS_17_ClassicAlgPolicyEE25__validate_iter_referenceB8ue170006IRPN8nlohmann16json_abi_v3_11_310basic_jsonINS_3mapENS_6vectorENS_12basic_stringIcNS_11char_traitsIcEENS_9allocatorIcEEEEbxydSC_NS5_14adl_serializerENS8_IhNSC_IhEEEEvEEEEvv, symObjAddr: 0x2765C, symBinAddr: 0x10002844C, symSize: 0x4 }
  - { offsetInCU: 0x461E0, offset: 0x461E0, size: 0x8, addend: 0x0, symName: __ZNSt3__14pairIPN8nlohmann16json_abi_v3_11_310basic_jsonINS_3mapENS_6vectorENS_12basic_stringIcNS_11char_traitsIcEENS_9allocatorIcEEEEbxydS9_NS2_14adl_serializerENS5_IhNS9_IhEEEEvEENS_20back_insert_iteratorINS5_ISF_NS9_ISF_EEEEEEEC1B8ue170006ISG_SK_LPv0EEEOT_OT0_, symObjAddr: 0x27660, symBinAddr: 0x100028450, symSize: 0x3C }
  - { offsetInCU: 0x4623E, offset: 0x4623E, size: 0x8, addend: 0x0, symName: __ZNSt3__14pairIPN8nlohmann16json_abi_v3_11_310basic_jsonINS_3mapENS_6vectorENS_12basic_stringIcNS_11char_traitsIcEENS_9allocatorIcEEEEbxydS9_NS2_14adl_serializerENS5_IhNS9_IhEEEEvEENS_20back_insert_iteratorINS5_ISF_NS9_ISF_EEEEEEEC2B8ue170006ISG_SK_LPv0EEEOT_OT0_, symObjAddr: 0x2769C, symBinAddr: 0x10002848C, symSize: 0x34 }
  - { offsetInCU: 0x4629C, offset: 0x4629C, size: 0x8, addend: 0x0, symName: __ZNSt3__118__unwrap_iter_implINS_20back_insert_iteratorINS_6vectorIN8nlohmann16json_abi_v3_11_310basic_jsonINS_3mapES2_NS_12basic_stringIcNS_11char_traitsIcEENS_9allocatorIcEEEEbxydSA_NS4_14adl_serializerENS2_IhNSA_IhEEEEvEENSA_ISG_EEEEEELb0EE8__unwrapB8ue170006ESJ_, symObjAddr: 0x276D0, symBinAddr: 0x1000284C0, symSize: 0x1C }
  - { offsetInCU: 0x462E2, offset: 0x462E2, size: 0x8, addend: 0x0, symName: __ZNSt3__14pairINS_11__wrap_iterIPN8nlohmann16json_abi_v3_11_310basic_jsonINS_3mapENS_6vectorENS_12basic_stringIcNS_11char_traitsIcEENS_9allocatorIcEEEEbxydSA_NS3_14adl_serializerENS6_IhNSA_IhEEEEvEEEENS_20back_insert_iteratorINS6_ISG_NSA_ISG_EEEEEEEC1B8ue170006ISI_SM_LPv0EEEOT_OT0_, symObjAddr: 0x276EC, symBinAddr: 0x1000284DC, symSize: 0x3C }
  - { offsetInCU: 0x46340, offset: 0x46340, size: 0x8, addend: 0x0, symName: __ZNSt3__14pairINS_11__wrap_iterIPN8nlohmann16json_abi_v3_11_310basic_jsonINS_3mapENS_6vectorENS_12basic_stringIcNS_11char_traitsIcEENS_9allocatorIcEEEEbxydSA_NS3_14adl_serializerENS6_IhNSA_IhEEEEvEEEENS_20back_insert_iteratorINS6_ISG_NSA_ISG_EEEEEEEC2B8ue170006ISI_SM_LPv0EEEOT_OT0_, symObjAddr: 0x27728, symBinAddr: 0x100028518, symSize: 0x34 }
  - { offsetInCU: 0x4639E, offset: 0x4639E, size: 0x8, addend: 0x0, symName: __ZNSt3__119__unwrap_range_implINS_11__wrap_iterIPN8nlohmann16json_abi_v3_11_310basic_jsonINS_3mapENS_6vectorENS_12basic_stringIcNS_11char_traitsIcEENS_9allocatorIcEEEEbxydSA_NS3_14adl_serializerENS6_IhNSA_IhEEEEvEEEESI_E8__rewrapB8ue170006ESI_SH_, symObjAddr: 0x2775C, symBinAddr: 0x10002854C, symSize: 0x3C }
  - { offsetInCU: 0x463CF, offset: 0x463CF, size: 0x8, addend: 0x0, symName: __ZNSt3__118__unwrap_iter_implINS_11__wrap_iterIPN8nlohmann16json_abi_v3_11_310basic_jsonINS_3mapENS_6vectorENS_12basic_stringIcNS_11char_traitsIcEENS_9allocatorIcEEEEbxydSA_NS3_14adl_serializerENS6_IhNSA_IhEEEEvEEEELb1EE8__rewrapB8ue170006ESI_SH_, symObjAddr: 0x277E4, symBinAddr: 0x1000285D4, symSize: 0x5C }
  - { offsetInCU: 0x46400, offset: 0x46400, size: 0x8, addend: 0x0, symName: __ZNKSt3__111__wrap_iterIPN8nlohmann16json_abi_v3_11_310basic_jsonINS_3mapENS_6vectorENS_12basic_stringIcNS_11char_traitsIcEENS_9allocatorIcEEEEbxydS9_NS2_14adl_serializerENS5_IhNS9_IhEEEEvEEEplB8ue170006El, symObjAddr: 0x27840, symBinAddr: 0x100028630, symSize: 0x3C }
  - { offsetInCU: 0x46442, offset: 0x46442, size: 0x8, addend: 0x0, symName: __ZNSt3__111__wrap_iterIPN8nlohmann16json_abi_v3_11_310basic_jsonINS_3mapENS_6vectorENS_12basic_stringIcNS_11char_traitsIcEENS_9allocatorIcEEEEbxydS9_NS2_14adl_serializerENS5_IhNS9_IhEEEEvEEEpLB8ue170006El, symObjAddr: 0x2787C, symBinAddr: 0x10002866C, symSize: 0x28 }
  - { offsetInCU: 0x46476, offset: 0x46476, size: 0x8, addend: 0x0, symName: __ZNSt3__118__unwrap_iter_implINS_20back_insert_iteratorINS_6vectorIN8nlohmann16json_abi_v3_11_310basic_jsonINS_3mapES2_NS_12basic_stringIcNS_11char_traitsIcEENS_9allocatorIcEEEEbxydSA_NS4_14adl_serializerENS2_IhNSA_IhEEEEvEENSA_ISG_EEEEEELb0EE8__rewrapB8ue170006ESJ_SJ_, symObjAddr: 0x278A4, symBinAddr: 0x100028694, symSize: 0x20 }
  - { offsetInCU: 0x464A4, offset: 0x464A4, size: 0x8, addend: 0x0, symName: __ZNSt3__16vectorIN8nlohmann16json_abi_v3_11_310basic_jsonINS_3mapES0_NS_12basic_stringIcNS_11char_traitsIcEENS_9allocatorIcEEEEbxydS8_NS2_14adl_serializerENS0_IhNS8_IhEEEEvEENS8_ISE_EEE11__make_iterB8ue170006EPSE_, symObjAddr: 0x278C4, symBinAddr: 0x1000286B4, symSize: 0x30 }
  - { offsetInCU: 0x464D9, offset: 0x464D9, size: 0x8, addend: 0x0, symName: __ZNSt3__111__wrap_iterIPN8nlohmann16json_abi_v3_11_310basic_jsonINS_3mapENS_6vectorENS_12basic_stringIcNS_11char_traitsIcEENS_9allocatorIcEEEEbxydS9_NS2_14adl_serializerENS5_IhNS9_IhEEEEvEEEC1B8ue170006ESG_, symObjAddr: 0x278F4, symBinAddr: 0x1000286E4, symSize: 0x34 }
  - { offsetInCU: 0x46511, offset: 0x46511, size: 0x8, addend: 0x0, symName: __ZNSt3__111__wrap_iterIPN8nlohmann16json_abi_v3_11_310basic_jsonINS_3mapENS_6vectorENS_12basic_stringIcNS_11char_traitsIcEENS_9allocatorIcEEEEbxydS9_NS2_14adl_serializerENS5_IhNS9_IhEEEEvEEEC2B8ue170006ESG_, symObjAddr: 0x27928, symBinAddr: 0x100028718, symSize: 0x20 }
  - { offsetInCU: 0x46549, offset: 0x46549, size: 0x8, addend: 0x0, symName: __ZNSt3__120back_insert_iteratorINS_6vectorIN8nlohmann16json_abi_v3_11_310basic_jsonINS_3mapES1_NS_12basic_stringIcNS_11char_traitsIcEENS_9allocatorIcEEEEbxydS9_NS3_14adl_serializerENS1_IhNS9_IhEEEEvEENS9_ISF_EEEEEC1B8ue170006ERSH_, symObjAddr: 0x27948, symBinAddr: 0x100028738, symSize: 0x34 }
  - { offsetInCU: 0x46581, offset: 0x46581, size: 0x8, addend: 0x0, symName: __ZNSt3__120back_insert_iteratorINS_6vectorIN8nlohmann16json_abi_v3_11_310basic_jsonINS_3mapES1_NS_12basic_stringIcNS_11char_traitsIcEENS_9allocatorIcEEEEbxydS9_NS3_14adl_serializerENS1_IhNS9_IhEEEEvEENS9_ISF_EEEEEC2B8ue170006ERSH_, symObjAddr: 0x2797C, symBinAddr: 0x10002876C, symSize: 0x20 }
  - { offsetInCU: 0x465B9, offset: 0x465B9, size: 0x8, addend: 0x0, symName: __ZNKSt3__16__treeINS_12__value_typeINS_12basic_stringIcNS_11char_traitsIcEENS_9allocatorIcEEEEN8nlohmann16json_abi_v3_11_310basic_jsonINS_3mapENS_6vectorES7_bxydS5_NS9_14adl_serializerENSC_IhNS5_IhEEEEvEEEENS_19__map_value_compareIS7_SH_NS_4lessIvEELb1EEENS5_ISH_EEE4sizeB8ue170006Ev, symObjAddr: 0x2799C, symBinAddr: 0x10002878C, symSize: 0x28 }
  - { offsetInCU: 0x465DF, offset: 0x465DF, size: 0x8, addend: 0x0, symName: __ZNKSt3__117__compressed_pairImNS_19__map_value_compareINS_12basic_stringIcNS_11char_traitsIcEENS_9allocatorIcEEEENS_12__value_typeIS7_N8nlohmann16json_abi_v3_11_310basic_jsonINS_3mapENS_6vectorES7_bxydS5_NSA_14adl_serializerENSD_IhNS5_IhEEEEvEEEENS_4lessIvEELb1EEEE5firstB8ue170006Ev, symObjAddr: 0x279C4, symBinAddr: 0x1000287B4, symSize: 0x24 }
  - { offsetInCU: 0x46605, offset: 0x46605, size: 0x8, addend: 0x0, symName: __ZNSt3__16__treeINS_12__value_typeINS_12basic_stringIcNS_11char_traitsIcEENS_9allocatorIcEEEEN8nlohmann16json_abi_v3_11_310basic_jsonINS_3mapENS_6vectorES7_bxydS5_NS9_14adl_serializerENSC_IhNS5_IhEEEEvEEEENS_19__map_value_compareIS7_SH_NS_4lessIvEELb1EEENS5_ISH_EEE5beginB8ue170006Ev, symObjAddr: 0x279E8, symBinAddr: 0x1000287D8, symSize: 0x34 }
  - { offsetInCU: 0x4662B, offset: 0x4662B, size: 0x8, addend: 0x0, symName: __ZNSt3__114__map_iteratorINS_15__tree_iteratorINS_12__value_typeINS_12basic_stringIcNS_11char_traitsIcEENS_9allocatorIcEEEEN8nlohmann16json_abi_v3_11_310basic_jsonINS_3mapENS_6vectorES8_bxydS6_NSA_14adl_serializerENSD_IhNS6_IhEEEEvEEEEPNS_11__tree_nodeISI_PvEElEEEC1B8ue170006ESN_, symObjAddr: 0x27A1C, symBinAddr: 0x10002880C, symSize: 0x34 }
  - { offsetInCU: 0x46664, offset: 0x46664, size: 0x8, addend: 0x0, symName: __ZNSt3__16__treeINS_12__value_typeINS_12basic_stringIcNS_11char_traitsIcEENS_9allocatorIcEEEEN8nlohmann16json_abi_v3_11_310basic_jsonINS_3mapENS_6vectorES7_bxydS5_NS9_14adl_serializerENSC_IhNS5_IhEEEEvEEEENS_19__map_value_compareIS7_SH_NS_4lessIvEELb1EEENS5_ISH_EEE12__begin_nodeB8ue170006Ev, symObjAddr: 0x27A50, symBinAddr: 0x100028840, symSize: 0x14 }
  - { offsetInCU: 0x4668A, offset: 0x4668A, size: 0x8, addend: 0x0, symName: __ZNSt3__115__tree_iteratorINS_12__value_typeINS_12basic_stringIcNS_11char_traitsIcEENS_9allocatorIcEEEEN8nlohmann16json_abi_v3_11_310basic_jsonINS_3mapENS_6vectorES7_bxydS5_NS9_14adl_serializerENSC_IhNS5_IhEEEEvEEEEPNS_11__tree_nodeISH_PvEElEC1B8ue170006EPNS_15__tree_end_nodeIPNS_16__tree_node_baseISJ_EEEE, symObjAddr: 0x27A64, symBinAddr: 0x100028854, symSize: 0x34 }
  - { offsetInCU: 0x466C3, offset: 0x466C3, size: 0x8, addend: 0x0, symName: __ZNSt3__115__tree_iteratorINS_12__value_typeINS_12basic_stringIcNS_11char_traitsIcEENS_9allocatorIcEEEEN8nlohmann16json_abi_v3_11_310basic_jsonINS_3mapENS_6vectorES7_bxydS5_NS9_14adl_serializerENSC_IhNS5_IhEEEEvEEEEPNS_11__tree_nodeISH_PvEElEC2B8ue170006EPNS_15__tree_end_nodeIPNS_16__tree_node_baseISJ_EEEE, symObjAddr: 0x27A98, symBinAddr: 0x100028888, symSize: 0x20 }
  - { offsetInCU: 0x466FC, offset: 0x466FC, size: 0x8, addend: 0x0, symName: __ZNSt3__114__map_iteratorINS_15__tree_iteratorINS_12__value_typeINS_12basic_stringIcNS_11char_traitsIcEENS_9allocatorIcEEEEN8nlohmann16json_abi_v3_11_310basic_jsonINS_3mapENS_6vectorES8_bxydS6_NSA_14adl_serializerENSD_IhNS6_IhEEEEvEEEEPNS_11__tree_nodeISI_PvEElEEEC2B8ue170006ESN_, symObjAddr: 0x27AB8, symBinAddr: 0x1000288A8, symSize: 0x20 }
  - { offsetInCU: 0x46735, offset: 0x46735, size: 0x8, addend: 0x0, symName: __ZNSt3__16__treeINS_12__value_typeINS_12basic_stringIcNS_11char_traitsIcEENS_9allocatorIcEEEEN8nlohmann16json_abi_v3_11_310basic_jsonINS_3mapENS_6vectorES7_bxydS5_NS9_14adl_serializerENSC_IhNS5_IhEEEEvEEEENS_19__map_value_compareIS7_SH_NS_4lessIvEELb1EEENS5_ISH_EEE3endB8ue170006Ev, symObjAddr: 0x27AD8, symBinAddr: 0x1000288C8, symSize: 0x34 }
  - { offsetInCU: 0x4675B, offset: 0x4675B, size: 0x8, addend: 0x0, symName: __ZNSt3__16__treeINS_12__value_typeINS_12basic_stringIcNS_11char_traitsIcEENS_9allocatorIcEEEEN8nlohmann16json_abi_v3_11_310basic_jsonINS_3mapENS_6vectorES7_bxydS5_NS9_14adl_serializerENSC_IhNS5_IhEEEEvEEEENS_19__map_value_compareIS7_SH_NS_4lessIvEELb1EEENS5_ISH_EEE10__end_nodeB8ue170006Ev, symObjAddr: 0x27B0C, symBinAddr: 0x1000288FC, symSize: 0x2C }
  - { offsetInCU: 0x46781, offset: 0x46781, size: 0x8, addend: 0x0, symName: __ZNSt3__114pointer_traitsIPNS_15__tree_end_nodeIPNS_16__tree_node_baseIPvEEEEE10pointer_toB8ue170006ERS6_, symObjAddr: 0x27B38, symBinAddr: 0x100028928, symSize: 0x14 }
  - { offsetInCU: 0x467A4, offset: 0x467A4, size: 0x8, addend: 0x0, symName: __ZNSt3__117__compressed_pairINS_15__tree_end_nodeIPNS_16__tree_node_baseIPvEEEENS_9allocatorINS_11__tree_nodeINS_12__value_typeINS_12basic_stringIcNS_11char_traitsIcEENS7_IcEEEEN8nlohmann16json_abi_v3_11_310basic_jsonINS_3mapENS_6vectorESE_bxydS7_NSG_14adl_serializerENSJ_IhNS7_IhEEEEvEEEES3_EEEEE5firstB8ue170006Ev, symObjAddr: 0x27B4C, symBinAddr: 0x10002893C, symSize: 0x24 }
  - { offsetInCU: 0x467CA, offset: 0x467CA, size: 0x8, addend: 0x0, symName: __ZNSt3__122__compressed_pair_elemINS_15__tree_end_nodeIPNS_16__tree_node_baseIPvEEEELi0ELb0EE5__getB8ue170006Ev, symObjAddr: 0x27B70, symBinAddr: 0x100028960, symSize: 0x14 }
  - { offsetInCU: 0x467F0, offset: 0x467F0, size: 0x8, addend: 0x0, symName: __ZNKSt3__115__tree_iteratorINS_12__value_typeINS_12basic_stringIcNS_11char_traitsIcEENS_9allocatorIcEEEEN8nlohmann16json_abi_v3_11_310basic_jsonINS_3mapENS_6vectorES7_bxydS5_NS9_14adl_serializerENSC_IhNS5_IhEEEEvEEEEPNS_11__tree_nodeISH_PvEElEptB8ue170006Ev, symObjAddr: 0x27BE8, symBinAddr: 0x1000289D8, symSize: 0x2C }
  - { offsetInCU: 0x46816, offset: 0x46816, size: 0x8, addend: 0x0, symName: __ZNSt3__112__value_typeINS_12basic_stringIcNS_11char_traitsIcEENS_9allocatorIcEEEEN8nlohmann16json_abi_v3_11_310basic_jsonINS_3mapENS_6vectorES6_bxydS4_NS8_14adl_serializerENSB_IhNS4_IhEEEEvEEE11__get_valueB8ue170006Ev, symObjAddr: 0x27C14, symBinAddr: 0x100028A04, symSize: 0x24 }
  - { offsetInCU: 0x4683C, offset: 0x4683C, size: 0x8, addend: 0x0, symName: __ZNSt3__114pointer_traitsIPNS_12__value_typeINS_12basic_stringIcNS_11char_traitsIcEENS_9allocatorIcEEEEN8nlohmann16json_abi_v3_11_310basic_jsonINS_3mapENS_6vectorES7_bxydS5_NS9_14adl_serializerENSC_IhNS5_IhEEEEvEEEEE10pointer_toB8ue170006ERSH_, symObjAddr: 0x27C38, symBinAddr: 0x100028A28, symSize: 0x14 }
  - { offsetInCU: 0x4685F, offset: 0x4685F, size: 0x8, addend: 0x0, symName: __ZNKSt3__115__tree_iteratorINS_12__value_typeINS_12basic_stringIcNS_11char_traitsIcEENS_9allocatorIcEEEEN8nlohmann16json_abi_v3_11_310basic_jsonINS_3mapENS_6vectorES7_bxydS5_NS9_14adl_serializerENSC_IhNS5_IhEEEEvEEEEPNS_11__tree_nodeISH_PvEElE8__get_npB8ue170006Ev, symObjAddr: 0x27C4C, symBinAddr: 0x100028A3C, symSize: 0x18 }
  - { offsetInCU: 0x46885, offset: 0x46885, size: 0x8, addend: 0x0, symName: __ZNSt3__16vectorIN8nlohmann16json_abi_v3_11_310basic_jsonINS_3mapES0_NS_12basic_stringIcNS_11char_traitsIcEENS_9allocatorIcEEEEbxydS8_NS2_14adl_serializerENS0_IhNS8_IhEEEEvEENS8_ISE_EEE22__construct_one_at_endB8ue170006IJSE_EEEvDpOT_, symObjAddr: 0x27C9C, symBinAddr: 0x100028A8C, symSize: 0x90 }
  - { offsetInCU: 0x468D4, offset: 0x468D4, size: 0x8, addend: 0x0, symName: __ZNSt3__16vectorIN8nlohmann16json_abi_v3_11_310basic_jsonINS_3mapES0_NS_12basic_stringIcNS_11char_traitsIcEENS_9allocatorIcEEEEbxydS8_NS2_14adl_serializerENS0_IhNS8_IhEEEEvEENS8_ISE_EEE21__push_back_slow_pathISE_EEvOT_, symObjAddr: 0x27D2C, symBinAddr: 0x100028B1C, symSize: 0xD8 }
  - { offsetInCU: 0x4694E, offset: 0x4694E, size: 0x8, addend: 0x0, symName: __ZNSt3__16vectorIN8nlohmann16json_abi_v3_11_310basic_jsonINS_3mapES0_NS_12basic_stringIcNS_11char_traitsIcEENS_9allocatorIcEEEEbxydS8_NS2_14adl_serializerENS0_IhNS8_IhEEEEvEENS8_ISE_EEE21_ConstructTransactionC1B8ue170006ERSG_m, symObjAddr: 0x27E04, symBinAddr: 0x100028BF4, symSize: 0x3C }
  - { offsetInCU: 0x46996, offset: 0x46996, size: 0x8, addend: 0x0, symName: __ZNSt3__16vectorIN8nlohmann16json_abi_v3_11_310basic_jsonINS_3mapES0_NS_12basic_stringIcNS_11char_traitsIcEENS_9allocatorIcEEEEbxydS8_NS2_14adl_serializerENS0_IhNS8_IhEEEEvEENS8_ISE_EEE21_ConstructTransactionD1B8ue170006Ev, symObjAddr: 0x27E40, symBinAddr: 0x100028C30, symSize: 0x2C }
  - { offsetInCU: 0x469C0, offset: 0x469C0, size: 0x8, addend: 0x0, symName: __ZNSt3__16vectorIN8nlohmann16json_abi_v3_11_310basic_jsonINS_3mapES0_NS_12basic_stringIcNS_11char_traitsIcEENS_9allocatorIcEEEEbxydS8_NS2_14adl_serializerENS0_IhNS8_IhEEEEvEENS8_ISE_EEE21_ConstructTransactionC2B8ue170006ERSG_m, symObjAddr: 0x27E6C, symBinAddr: 0x100028C5C, symSize: 0x44 }
  - { offsetInCU: 0x46A08, offset: 0x46A08, size: 0x8, addend: 0x0, symName: __ZNSt3__16vectorIN8nlohmann16json_abi_v3_11_310basic_jsonINS_3mapES0_NS_12basic_stringIcNS_11char_traitsIcEENS_9allocatorIcEEEEbxydS8_NS2_14adl_serializerENS0_IhNS8_IhEEEEvEENS8_ISE_EEE21_ConstructTransactionD2B8ue170006Ev, symObjAddr: 0x27EB0, symBinAddr: 0x100028CA0, symSize: 0x20 }
  - { offsetInCU: 0x46A32, offset: 0x46A32, size: 0x8, addend: 0x0, symName: __ZNKSt3__16vectorIN8nlohmann16json_abi_v3_11_310basic_jsonINS_3mapES0_NS_12basic_stringIcNS_11char_traitsIcEENS_9allocatorIcEEEEbxydS8_NS2_14adl_serializerENS0_IhNS8_IhEEEEvEENS8_ISE_EEE11__recommendB8ue170006Em, symObjAddr: 0x27ED0, symBinAddr: 0x100028CC0, symSize: 0xB4 }
  - { offsetInCU: 0x46A87, offset: 0x46A87, size: 0x8, addend: 0x0, symName: __ZNSt3__115__tree_iteratorINS_12__value_typeINS_12basic_stringIcNS_11char_traitsIcEENS_9allocatorIcEEEEN8nlohmann16json_abi_v3_11_310basic_jsonINS_3mapENS_6vectorES7_bxydS5_NS9_14adl_serializerENSC_IhNS5_IhEEEEvEEEEPNS_11__tree_nodeISH_PvEElEppB8ue170006Ev, symObjAddr: 0x28004, symBinAddr: 0x100028DF4, symSize: 0x38 }
  - { offsetInCU: 0x46AAD, offset: 0x46AAD, size: 0x8, addend: 0x0, symName: __ZNKSt3__116__tree_node_baseIPvE15__parent_unsafeB8ue170006Ev, symObjAddr: 0x28138, symBinAddr: 0x100028F28, symSize: 0x18 }
  - { offsetInCU: 0x46AD3, offset: 0x46AD3, size: 0x8, addend: 0x0, symName: __ZN8nlohmann16json_abi_v3_11_310basic_jsonINSt3__13mapENS2_6vectorENS2_12basic_stringIcNS2_11char_traitsIcEENS2_9allocatorIcEEEEbxydS8_NS0_14adl_serializerENS4_IhNS8_IhEEEEvEC2EOSE_, symObjAddr: 0x28150, symBinAddr: 0x100028F40, symSize: 0x80 }
  - { offsetInCU: 0x46B0C, offset: 0x46B0C, size: 0x8, addend: 0x0, symName: __ZNSt3__16vectorIN8nlohmann16json_abi_v3_11_310basic_jsonINS_3mapES0_NS_12basic_stringIcNS_11char_traitsIcEENS_9allocatorIcEEEEbxydS8_NS2_14adl_serializerENS0_IhNS8_IhEEEEvEENS8_ISE_EEE17__destruct_at_endB8ue170006EPSE_, symObjAddr: 0x281D0, symBinAddr: 0x100028FC0, symSize: 0x4C }
  - { offsetInCU: 0x46B50, offset: 0x46B50, size: 0x8, addend: 0x0, symName: __ZNSt3__16vectorIN8nlohmann16json_abi_v3_11_310basic_jsonINS_3mapES0_NS_12basic_stringIcNS_11char_traitsIcEENS_9allocatorIcEEEEbxydS8_NS2_14adl_serializerENS0_IhNS8_IhEEEEvEENS8_ISE_EEE22__base_destruct_at_endB8ue170006EPSE_, symObjAddr: 0x2821C, symBinAddr: 0x10002900C, symSize: 0x8C }
  - { offsetInCU: 0x46B94, offset: 0x46B94, size: 0x8, addend: 0x0, symName: __ZNKSt3__16vectorIN8nlohmann16json_abi_v3_11_310basic_jsonINS_3mapES0_NS_12basic_stringIcNS_11char_traitsIcEENS_9allocatorIcEEEEbxydS8_NS2_14adl_serializerENS0_IhNS8_IhEEEEvEENS8_ISE_EEE17__annotate_shrinkB8ue170006Em, symObjAddr: 0x282A8, symBinAddr: 0x100029098, symSize: 0xB4 }
  - { offsetInCU: 0x46BC9, offset: 0x46BC9, size: 0x8, addend: 0x0, symName: __ZNSt3__16vectorIN8nlohmann16json_abi_v3_11_310basic_jsonINS_3mapES0_NS_12basic_stringIcNS_11char_traitsIcEENS_9allocatorIcEEEEbxydS8_NS2_14adl_serializerENS0_IhNS8_IhEEEEvEENS8_ISE_EEE7__clearB8ue170006Ev, symObjAddr: 0x2835C, symBinAddr: 0x10002914C, symSize: 0x28 }
  - { offsetInCU: 0x46BEF, offset: 0x46BEF, size: 0x8, addend: 0x0, symName: __ZNSt3__16__treeINS_12__value_typeINS_12basic_stringIcNS_11char_traitsIcEENS_9allocatorIcEEEEN8nlohmann16json_abi_v3_11_310basic_jsonINS_3mapENS_6vectorES7_bxydS5_NS9_14adl_serializerENSC_IhNS5_IhEEEEvEEEENS_19__map_value_compareIS7_SH_NS_4lessIvEELb1EEENS5_ISH_EEE5clearEv, symObjAddr: 0x28384, symBinAddr: 0x100029174, symSize: 0x74 }
  - { offsetInCU: 0x46C17, offset: 0x46C17, size: 0x8, addend: 0x0, symName: __ZNSt3__16__treeINS_12__value_typeINS_12basic_stringIcNS_11char_traitsIcEENS_9allocatorIcEEEEN8nlohmann16json_abi_v3_11_310basic_jsonINS_3mapENS_6vectorES7_bxydS5_NS9_14adl_serializerENSC_IhNS5_IhEEEEvEEEENS_19__map_value_compareIS7_SH_NS_4lessIvEELb1EEENS5_ISH_EEE7destroyEPNS_11__tree_nodeISH_PvEE, symObjAddr: 0x283F8, symBinAddr: 0x1000291E8, symSize: 0xAC }
  - { offsetInCU: 0x46C63, offset: 0x46C63, size: 0x8, addend: 0x0, symName: __ZNKSt3__16__treeINS_12__value_typeINS_12basic_stringIcNS_11char_traitsIcEENS_9allocatorIcEEEEN8nlohmann16json_abi_v3_11_310basic_jsonINS_3mapENS_6vectorES7_bxydS5_NS9_14adl_serializerENSC_IhNS5_IhEEEEvEEEENS_19__map_value_compareIS7_SH_NS_4lessIvEELb1EEENS5_ISH_EEE6__rootB8ue170006Ev, symObjAddr: 0x284A4, symBinAddr: 0x100029294, symSize: 0x28 }
  - { offsetInCU: 0x46C89, offset: 0x46C89, size: 0x8, addend: 0x0, symName: __ZNSt3__16__treeINS_12__value_typeINS_12basic_stringIcNS_11char_traitsIcEENS_9allocatorIcEEEEN8nlohmann16json_abi_v3_11_310basic_jsonINS_3mapENS_6vectorES7_bxydS5_NS9_14adl_serializerENSC_IhNS5_IhEEEEvEEEENS_19__map_value_compareIS7_SH_NS_4lessIvEELb1EEENS5_ISH_EEE4sizeB8ue170006Ev, symObjAddr: 0x284CC, symBinAddr: 0x1000292BC, symSize: 0x28 }
  - { offsetInCU: 0x46CAF, offset: 0x46CAF, size: 0x8, addend: 0x0, symName: __ZNSt3__16__treeINS_12__value_typeINS_12basic_stringIcNS_11char_traitsIcEENS_9allocatorIcEEEEN8nlohmann16json_abi_v3_11_310basic_jsonINS_3mapENS_6vectorES7_bxydS5_NS9_14adl_serializerENSC_IhNS5_IhEEEEvEEEENS_19__map_value_compareIS7_SH_NS_4lessIvEELb1EEENS5_ISH_EEE12__node_allocB8ue170006Ev, symObjAddr: 0x284F4, symBinAddr: 0x1000292E4, symSize: 0x28 }
  - { offsetInCU: 0x46CD5, offset: 0x46CD5, size: 0x8, addend: 0x0, symName: __ZNSt3__116allocator_traitsINS_9allocatorINS_11__tree_nodeINS_12__value_typeINS_12basic_stringIcNS_11char_traitsIcEENS1_IcEEEEN8nlohmann16json_abi_v3_11_310basic_jsonINS_3mapENS_6vectorES8_bxydS1_NSA_14adl_serializerENSD_IhNS1_IhEEEEvEEEEPvEEEEE7destroyB8ue170006INS_4pairIKS8_SH_EEvvEEvRSL_PT_, symObjAddr: 0x2851C, symBinAddr: 0x10002930C, symSize: 0x28 }
  - { offsetInCU: 0x46D10, offset: 0x46D10, size: 0x8, addend: 0x0, symName: __ZNSt3__122__tree_key_value_typesINS_12__value_typeINS_12basic_stringIcNS_11char_traitsIcEENS_9allocatorIcEEEEN8nlohmann16json_abi_v3_11_310basic_jsonINS_3mapENS_6vectorES7_bxydS5_NS9_14adl_serializerENSC_IhNS5_IhEEEEvEEEEE9__get_ptrB8ue170006ERSH_, symObjAddr: 0x28544, symBinAddr: 0x100029334, symSize: 0x24 }
  - { offsetInCU: 0x46D34, offset: 0x46D34, size: 0x8, addend: 0x0, symName: __ZNSt3__116allocator_traitsINS_9allocatorINS_11__tree_nodeINS_12__value_typeINS_12basic_stringIcNS_11char_traitsIcEENS1_IcEEEEN8nlohmann16json_abi_v3_11_310basic_jsonINS_3mapENS_6vectorES8_bxydS1_NSA_14adl_serializerENSD_IhNS1_IhEEEEvEEEEPvEEEEE10deallocateB8ue170006ERSL_PSK_m, symObjAddr: 0x28568, symBinAddr: 0x100029358, symSize: 0x34 }
  - { offsetInCU: 0x46D76, offset: 0x46D76, size: 0x8, addend: 0x0, symName: __ZNSt3__117__compressed_pairINS_15__tree_end_nodeIPNS_16__tree_node_baseIPvEEEENS_9allocatorINS_11__tree_nodeINS_12__value_typeINS_12basic_stringIcNS_11char_traitsIcEENS7_IcEEEEN8nlohmann16json_abi_v3_11_310basic_jsonINS_3mapENS_6vectorESE_bxydS7_NSG_14adl_serializerENSJ_IhNS7_IhEEEEvEEEES3_EEEEE6secondB8ue170006Ev, symObjAddr: 0x2859C, symBinAddr: 0x10002938C, symSize: 0x24 }
  - { offsetInCU: 0x46D9C, offset: 0x46D9C, size: 0x8, addend: 0x0, symName: __ZNSt3__122__compressed_pair_elemINS_9allocatorINS_11__tree_nodeINS_12__value_typeINS_12basic_stringIcNS_11char_traitsIcEENS1_IcEEEEN8nlohmann16json_abi_v3_11_310basic_jsonINS_3mapENS_6vectorES8_bxydS1_NSA_14adl_serializerENSD_IhNS1_IhEEEEvEEEEPvEEEELi1ELb1EE5__getB8ue170006Ev, symObjAddr: 0x285C0, symBinAddr: 0x1000293B0, symSize: 0x14 }
  - { offsetInCU: 0x46DC2, offset: 0x46DC2, size: 0x8, addend: 0x0, symName: __ZNSt3__14pairIKNS_12basic_stringIcNS_11char_traitsIcEENS_9allocatorIcEEEEN8nlohmann16json_abi_v3_11_310basic_jsonINS_3mapENS_6vectorES6_bxydS4_NS9_14adl_serializerENSC_IhNS4_IhEEEEvEEED1Ev, symObjAddr: 0x2861C, symBinAddr: 0x10002940C, symSize: 0x2C }
  - { offsetInCU: 0x46DEE, offset: 0x46DEE, size: 0x8, addend: 0x0, symName: __ZNSt3__14pairIKNS_12basic_stringIcNS_11char_traitsIcEENS_9allocatorIcEEEEN8nlohmann16json_abi_v3_11_310basic_jsonINS_3mapENS_6vectorES6_bxydS4_NS9_14adl_serializerENSC_IhNS4_IhEEEEvEEED2Ev, symObjAddr: 0x28648, symBinAddr: 0x100029438, symSize: 0x38 }
  - { offsetInCU: 0x46E1A, offset: 0x46E1A, size: 0x8, addend: 0x0, symName: __ZNSt3__19allocatorINS_11__tree_nodeINS_12__value_typeINS_12basic_stringIcNS_11char_traitsIcEENS0_IcEEEEN8nlohmann16json_abi_v3_11_310basic_jsonINS_3mapENS_6vectorES7_bxydS0_NS9_14adl_serializerENSC_IhNS0_IhEEEEvEEEEPvEEE10deallocateB8ue170006EPSJ_m, symObjAddr: 0x28680, symBinAddr: 0x100029470, symSize: 0x44 }
  - { offsetInCU: 0x46E5C, offset: 0x46E5C, size: 0x8, addend: 0x0, symName: __ZNKSt3__16__treeINS_12__value_typeINS_12basic_stringIcNS_11char_traitsIcEENS_9allocatorIcEEEEN8nlohmann16json_abi_v3_11_310basic_jsonINS_3mapENS_6vectorES7_bxydS5_NS9_14adl_serializerENSC_IhNS5_IhEEEEvEEEENS_19__map_value_compareIS7_SH_NS_4lessIvEELb1EEENS5_ISH_EEE10__end_nodeB8ue170006Ev, symObjAddr: 0x286C4, symBinAddr: 0x1000294B4, symSize: 0x2C }
  - { offsetInCU: 0x46E82, offset: 0x46E82, size: 0x8, addend: 0x0, symName: __ZNKSt3__117__compressed_pairINS_15__tree_end_nodeIPNS_16__tree_node_baseIPvEEEENS_9allocatorINS_11__tree_nodeINS_12__value_typeINS_12basic_stringIcNS_11char_traitsIcEENS7_IcEEEEN8nlohmann16json_abi_v3_11_310basic_jsonINS_3mapENS_6vectorESE_bxydS7_NSG_14adl_serializerENSJ_IhNS7_IhEEEEvEEEES3_EEEEE5firstB8ue170006Ev, symObjAddr: 0x286F0, symBinAddr: 0x1000294E0, symSize: 0x24 }
  - { offsetInCU: 0x46EA8, offset: 0x46EA8, size: 0x8, addend: 0x0, symName: __ZNKSt3__122__compressed_pair_elemINS_15__tree_end_nodeIPNS_16__tree_node_baseIPvEEEELi0ELb0EE5__getB8ue170006Ev, symObjAddr: 0x28714, symBinAddr: 0x100029504, symSize: 0x14 }
  - { offsetInCU: 0x46ECE, offset: 0x46ECE, size: 0x8, addend: 0x0, symName: __ZNSt3__117__compressed_pairImNS_19__map_value_compareINS_12basic_stringIcNS_11char_traitsIcEENS_9allocatorIcEEEENS_12__value_typeIS7_N8nlohmann16json_abi_v3_11_310basic_jsonINS_3mapENS_6vectorES7_bxydS5_NSA_14adl_serializerENSD_IhNS5_IhEEEEvEEEENS_4lessIvEELb1EEEE5firstB8ue170006Ev, symObjAddr: 0x28728, symBinAddr: 0x100029518, symSize: 0x24 }
  - { offsetInCU: 0x46EF4, offset: 0x46EF4, size: 0x8, addend: 0x0, symName: __ZNSt3__16vectorIN8nlohmann16json_abi_v3_11_310basic_jsonINS_3mapES0_NS_12basic_stringIcNS_11char_traitsIcEENS_9allocatorIcEEEEbxydS8_NS2_14adl_serializerENS0_IhNS8_IhEEEEvEENS8_ISE_EEED2B8ue170006Ev, symObjAddr: 0x2874C, symBinAddr: 0x10002953C, symSize: 0x44 }
  - { offsetInCU: 0x46F1E, offset: 0x46F1E, size: 0x8, addend: 0x0, symName: __ZNSt3__16vectorIN8nlohmann16json_abi_v3_11_310basic_jsonINS_3mapES0_NS_12basic_stringIcNS_11char_traitsIcEENS_9allocatorIcEEEEbxydS8_NS2_14adl_serializerENS0_IhNS8_IhEEEEvEENS8_ISE_EEE16__destroy_vectorC1B8ue170006ERSG_, symObjAddr: 0x28790, symBinAddr: 0x100029580, symSize: 0x34 }
  - { offsetInCU: 0x46F57, offset: 0x46F57, size: 0x8, addend: 0x0, symName: __ZNSt3__16vectorIN8nlohmann16json_abi_v3_11_310basic_jsonINS_3mapES0_NS_12basic_stringIcNS_11char_traitsIcEENS_9allocatorIcEEEEbxydS8_NS2_14adl_serializerENS0_IhNS8_IhEEEEvEENS8_ISE_EEE16__destroy_vectorclB8ue170006Ev, symObjAddr: 0x287C4, symBinAddr: 0x1000295B4, symSize: 0x90 }
  - { offsetInCU: 0x46F7D, offset: 0x46F7D, size: 0x8, addend: 0x0, symName: __ZNSt3__16vectorIN8nlohmann16json_abi_v3_11_310basic_jsonINS_3mapES0_NS_12basic_stringIcNS_11char_traitsIcEENS_9allocatorIcEEEEbxydS8_NS2_14adl_serializerENS0_IhNS8_IhEEEEvEENS8_ISE_EEE16__destroy_vectorC2B8ue170006ERSG_, symObjAddr: 0x28854, symBinAddr: 0x100029644, symSize: 0x20 }
  - { offsetInCU: 0x46FB6, offset: 0x46FB6, size: 0x8, addend: 0x0, symName: __ZNSt3__19allocatorINS_3mapINS_12basic_stringIcNS_11char_traitsIcEENS0_IcEEEEN8nlohmann16json_abi_v3_11_310basic_jsonIS1_NS_6vectorES6_bxydS0_NS8_14adl_serializerENSA_IhNS0_IhEEEEvEENS_4lessIvEENS0_INS_4pairIKS6_SE_EEEEEEEC2B8ue170006Ev, symObjAddr: 0x28874, symBinAddr: 0x100029664, symSize: 0x2C }
  - { offsetInCU: 0x46FE0, offset: 0x46FE0, size: 0x8, addend: 0x0, symName: __ZNSt3__116__non_trivial_ifILb1ENS_9allocatorINS_3mapINS_12basic_stringIcNS_11char_traitsIcEENS1_IcEEEEN8nlohmann16json_abi_v3_11_310basic_jsonIS2_NS_6vectorES7_bxydS1_NS9_14adl_serializerENSB_IhNS1_IhEEEEvEENS_4lessIvEENS1_INS_4pairIKS7_SF_EEEEEEEEEC2B8ue170006Ev, symObjAddr: 0x288A0, symBinAddr: 0x100029690, symSize: 0x14 }
  - { offsetInCU: 0x4700A, offset: 0x4700A, size: 0x8, addend: 0x0, symName: __ZNSt3__13mapINS_12basic_stringIcNS_11char_traitsIcEENS_9allocatorIcEEEEN8nlohmann16json_abi_v3_11_310basic_jsonIS0_NS_6vectorES6_bxydS4_NS8_14adl_serializerENSA_IhNS4_IhEEEEvEENS_4lessIvEENS4_INS_4pairIKS6_SE_EEEEED1B8ue170006Ev, symObjAddr: 0x288FC, symBinAddr: 0x1000296EC, symSize: 0x2C }
  - { offsetInCU: 0x47034, offset: 0x47034, size: 0x8, addend: 0x0, symName: __ZNSt3__13mapINS_12basic_stringIcNS_11char_traitsIcEENS_9allocatorIcEEEEN8nlohmann16json_abi_v3_11_310basic_jsonIS0_NS_6vectorES6_bxydS4_NS8_14adl_serializerENSA_IhNS4_IhEEEEvEENS_4lessIvEENS4_INS_4pairIKS6_SE_EEEEED2B8ue170006Ev, symObjAddr: 0x28928, symBinAddr: 0x100029718, symSize: 0x2C }
  - { offsetInCU: 0x4705E, offset: 0x4705E, size: 0x8, addend: 0x0, symName: __ZNSt3__16__treeINS_12__value_typeINS_12basic_stringIcNS_11char_traitsIcEENS_9allocatorIcEEEEN8nlohmann16json_abi_v3_11_310basic_jsonINS_3mapENS_6vectorES7_bxydS5_NS9_14adl_serializerENSC_IhNS5_IhEEEEvEEEENS_19__map_value_compareIS7_SH_NS_4lessIvEELb1EEENS5_ISH_EEED1Ev, symObjAddr: 0x28954, symBinAddr: 0x100029744, symSize: 0x2C }
  - { offsetInCU: 0x4708A, offset: 0x4708A, size: 0x8, addend: 0x0, symName: __ZNSt3__16__treeINS_12__value_typeINS_12basic_stringIcNS_11char_traitsIcEENS_9allocatorIcEEEEN8nlohmann16json_abi_v3_11_310basic_jsonINS_3mapENS_6vectorES7_bxydS5_NS9_14adl_serializerENSC_IhNS5_IhEEEEvEEEENS_19__map_value_compareIS7_SH_NS_4lessIvEELb1EEENS5_ISH_EEED2Ev, symObjAddr: 0x28980, symBinAddr: 0x100029770, symSize: 0x38 }
  - { offsetInCU: 0x470B6, offset: 0x470B6, size: 0x8, addend: 0x0, symName: __ZNSt3__19allocatorINS_3mapINS_12basic_stringIcNS_11char_traitsIcEENS0_IcEEEEN8nlohmann16json_abi_v3_11_310basic_jsonIS1_NS_6vectorES6_bxydS0_NS8_14adl_serializerENSA_IhNS0_IhEEEEvEENS_4lessIvEENS0_INS_4pairIKS6_SE_EEEEEEE10deallocateB8ue170006EPSL_m, symObjAddr: 0x289B8, symBinAddr: 0x1000297A8, symSize: 0x44 }
  - { offsetInCU: 0x470F8, offset: 0x470F8, size: 0x8, addend: 0x0, symName: __ZNSt3__19allocatorINS_6vectorIN8nlohmann16json_abi_v3_11_310basic_jsonINS_3mapES1_NS_12basic_stringIcNS_11char_traitsIcEENS0_IcEEEEbxydS0_NS3_14adl_serializerENS1_IhNS0_IhEEEEvEENS0_ISE_EEEEEC2B8ue170006Ev, symObjAddr: 0x289FC, symBinAddr: 0x1000297EC, symSize: 0x2C }
  - { offsetInCU: 0x47122, offset: 0x47122, size: 0x8, addend: 0x0, symName: __ZNSt3__116__non_trivial_ifILb1ENS_9allocatorINS_6vectorIN8nlohmann16json_abi_v3_11_310basic_jsonINS_3mapES2_NS_12basic_stringIcNS_11char_traitsIcEENS1_IcEEEEbxydS1_NS4_14adl_serializerENS2_IhNS1_IhEEEEvEENS1_ISF_EEEEEEEC2B8ue170006Ev, symObjAddr: 0x28A28, symBinAddr: 0x100029818, symSize: 0x14 }
  - { offsetInCU: 0x4714C, offset: 0x4714C, size: 0x8, addend: 0x0, symName: __ZNSt3__19allocatorINS_6vectorIN8nlohmann16json_abi_v3_11_310basic_jsonINS_3mapES1_NS_12basic_stringIcNS_11char_traitsIcEENS0_IcEEEEbxydS0_NS3_14adl_serializerENS1_IhNS0_IhEEEEvEENS0_ISE_EEEEE10deallocateB8ue170006EPSG_m, symObjAddr: 0x28A84, symBinAddr: 0x100029874, symSize: 0x44 }
  - { offsetInCU: 0x4718E, offset: 0x4718E, size: 0x8, addend: 0x0, symName: __ZNSt3__19allocatorINS_12basic_stringIcNS_11char_traitsIcEENS0_IcEEEEEC2B8ue170006Ev, symObjAddr: 0x28AC8, symBinAddr: 0x1000298B8, symSize: 0x2C }
  - { offsetInCU: 0x471B8, offset: 0x471B8, size: 0x8, addend: 0x0, symName: __ZNSt3__116__non_trivial_ifILb1ENS_9allocatorINS_12basic_stringIcNS_11char_traitsIcEENS1_IcEEEEEEEC2B8ue170006Ev, symObjAddr: 0x28AF4, symBinAddr: 0x1000298E4, symSize: 0x14 }
  - { offsetInCU: 0x471E2, offset: 0x471E2, size: 0x8, addend: 0x0, symName: __ZNSt3__19allocatorINS_12basic_stringIcNS_11char_traitsIcEENS0_IcEEEEE10deallocateB8ue170006EPS5_m, symObjAddr: 0x28B08, symBinAddr: 0x1000298F8, symSize: 0x44 }
  - { offsetInCU: 0x47224, offset: 0x47224, size: 0x8, addend: 0x0, symName: __ZNSt3__19allocatorIN8nlohmann16json_abi_v3_11_327byte_container_with_subtypeINS_6vectorIhNS0_IhEEEEEEEC2B8ue170006Ev, symObjAddr: 0x28B4C, symBinAddr: 0x10002993C, symSize: 0x2C }
  - { offsetInCU: 0x4724E, offset: 0x4724E, size: 0x8, addend: 0x0, symName: __ZNSt3__116__non_trivial_ifILb1ENS_9allocatorIN8nlohmann16json_abi_v3_11_327byte_container_with_subtypeINS_6vectorIhNS1_IhEEEEEEEEEC2B8ue170006Ev, symObjAddr: 0x28B78, symBinAddr: 0x100029968, symSize: 0x14 }
  - { offsetInCU: 0x47278, offset: 0x47278, size: 0x8, addend: 0x0, symName: __ZN8nlohmann16json_abi_v3_11_327byte_container_with_subtypeINSt3__16vectorIhNS2_9allocatorIhEEEEED1Ev, symObjAddr: 0x28BD4, symBinAddr: 0x1000299C4, symSize: 0x2C }
  - { offsetInCU: 0x472A5, offset: 0x472A5, size: 0x8, addend: 0x0, symName: __ZN8nlohmann16json_abi_v3_11_327byte_container_with_subtypeINSt3__16vectorIhNS2_9allocatorIhEEEEED2Ev, symObjAddr: 0x28C00, symBinAddr: 0x1000299F0, symSize: 0x2C }
  - { offsetInCU: 0x472D2, offset: 0x472D2, size: 0x8, addend: 0x0, symName: __ZNSt3__16vectorIhNS_9allocatorIhEEED2B8ue170006Ev, symObjAddr: 0x28C2C, symBinAddr: 0x100029A1C, symSize: 0x44 }
  - { offsetInCU: 0x472FC, offset: 0x472FC, size: 0x8, addend: 0x0, symName: __ZNSt3__16vectorIhNS_9allocatorIhEEE16__destroy_vectorC1B8ue170006ERS3_, symObjAddr: 0x28C70, symBinAddr: 0x100029A60, symSize: 0x34 }
  - { offsetInCU: 0x47335, offset: 0x47335, size: 0x8, addend: 0x0, symName: __ZNSt3__16vectorIhNS_9allocatorIhEEE16__destroy_vectorclB8ue170006Ev, symObjAddr: 0x28CA4, symBinAddr: 0x100029A94, symSize: 0x90 }
  - { offsetInCU: 0x4735B, offset: 0x4735B, size: 0x8, addend: 0x0, symName: __ZNSt3__16vectorIhNS_9allocatorIhEEE16__destroy_vectorC2B8ue170006ERS3_, symObjAddr: 0x28D34, symBinAddr: 0x100029B24, symSize: 0x20 }
  - { offsetInCU: 0x47394, offset: 0x47394, size: 0x8, addend: 0x0, symName: __ZNSt3__16vectorIhNS_9allocatorIhEEE7__clearB8ue170006Ev, symObjAddr: 0x28D54, symBinAddr: 0x100029B44, symSize: 0x28 }
  - { offsetInCU: 0x473BA, offset: 0x473BA, size: 0x8, addend: 0x0, symName: __ZNKSt3__16vectorIhNS_9allocatorIhEEE17__annotate_deleteB8ue170006Ev, symObjAddr: 0x28D7C, symBinAddr: 0x100029B6C, symSize: 0xB8 }
  - { offsetInCU: 0x473E0, offset: 0x473E0, size: 0x8, addend: 0x0, symName: __ZNSt3__116allocator_traitsINS_9allocatorIhEEE10deallocateB8ue170006ERS2_Phm, symObjAddr: 0x28E34, symBinAddr: 0x100029C24, symSize: 0x34 }
  - { offsetInCU: 0x47422, offset: 0x47422, size: 0x8, addend: 0x0, symName: __ZNSt3__16vectorIhNS_9allocatorIhEEE7__allocB8ue170006Ev, symObjAddr: 0x28E68, symBinAddr: 0x100029C58, symSize: 0x28 }
  - { offsetInCU: 0x47448, offset: 0x47448, size: 0x8, addend: 0x0, symName: __ZNKSt3__16vectorIhNS_9allocatorIhEEE8capacityB8ue170006Ev, symObjAddr: 0x28E90, symBinAddr: 0x100029C80, symSize: 0x38 }
  - { offsetInCU: 0x4746E, offset: 0x4746E, size: 0x8, addend: 0x0, symName: __ZNSt3__16vectorIhNS_9allocatorIhEEE22__base_destruct_at_endB8ue170006EPh, symObjAddr: 0x28EC8, symBinAddr: 0x100029CB8, symSize: 0x8C }
  - { offsetInCU: 0x474B2, offset: 0x474B2, size: 0x8, addend: 0x0, symName: __ZNSt3__116allocator_traitsINS_9allocatorIhEEE7destroyB8ue170006IhvvEEvRS2_PT_, symObjAddr: 0x28F54, symBinAddr: 0x100029D44, symSize: 0x28 }
  - { offsetInCU: 0x474ED, offset: 0x474ED, size: 0x8, addend: 0x0, symName: __ZNKSt3__16vectorIhNS_9allocatorIhEEE31__annotate_contiguous_containerB8ue170006EPKvS5_S5_S5_, symObjAddr: 0x28FC4, symBinAddr: 0x100029DB4, symSize: 0x20 }
  - { offsetInCU: 0x47543, offset: 0x47543, size: 0x8, addend: 0x0, symName: __ZNKSt3__16vectorIhNS_9allocatorIhEEE4dataB8ue170006Ev, symObjAddr: 0x28FE4, symBinAddr: 0x100029DD4, symSize: 0x28 }
  - { offsetInCU: 0x47569, offset: 0x47569, size: 0x8, addend: 0x0, symName: __ZNKSt3__16vectorIhNS_9allocatorIhEEE4sizeB8ue170006Ev, symObjAddr: 0x2900C, symBinAddr: 0x100029DFC, symSize: 0x20 }
  - { offsetInCU: 0x4758F, offset: 0x4758F, size: 0x8, addend: 0x0, symName: __ZNSt3__19allocatorIhE10deallocateB8ue170006EPhm, symObjAddr: 0x2902C, symBinAddr: 0x100029E1C, symSize: 0x40 }
  - { offsetInCU: 0x475D1, offset: 0x475D1, size: 0x8, addend: 0x0, symName: __ZNSt3__117__compressed_pairIPhNS_9allocatorIhEEE6secondB8ue170006Ev, symObjAddr: 0x2906C, symBinAddr: 0x100029E5C, symSize: 0x24 }
  - { offsetInCU: 0x475F7, offset: 0x475F7, size: 0x8, addend: 0x0, symName: __ZNSt3__122__compressed_pair_elemINS_9allocatorIhEELi1ELb1EE5__getB8ue170006Ev, symObjAddr: 0x29090, symBinAddr: 0x100029E80, symSize: 0x14 }
  - { offsetInCU: 0x4761D, offset: 0x4761D, size: 0x8, addend: 0x0, symName: __ZNKSt3__16vectorIhNS_9allocatorIhEEE9__end_capB8ue170006Ev, symObjAddr: 0x290A4, symBinAddr: 0x100029E94, symSize: 0x28 }
  - { offsetInCU: 0x47643, offset: 0x47643, size: 0x8, addend: 0x0, symName: __ZNKSt3__117__compressed_pairIPhNS_9allocatorIhEEE5firstB8ue170006Ev, symObjAddr: 0x290CC, symBinAddr: 0x100029EBC, symSize: 0x24 }
  - { offsetInCU: 0x47669, offset: 0x47669, size: 0x8, addend: 0x0, symName: __ZNKSt3__122__compressed_pair_elemIPhLi0ELb0EE5__getB8ue170006Ev, symObjAddr: 0x290F0, symBinAddr: 0x100029EE0, symSize: 0x14 }
  - { offsetInCU: 0x4768F, offset: 0x4768F, size: 0x8, addend: 0x0, symName: __ZNSt3__19allocatorIN8nlohmann16json_abi_v3_11_327byte_container_with_subtypeINS_6vectorIhNS0_IhEEEEEEE10deallocateB8ue170006EPS7_m, symObjAddr: 0x29104, symBinAddr: 0x100029EF4, symSize: 0x44 }
  - { offsetInCU: 0x476D1, offset: 0x476D1, size: 0x8, addend: 0x0, symName: __ZNSt3__116allocator_traitsINS_9allocatorINS_12basic_stringIcNS_11char_traitsIcEENS1_IcEEEEEEE8allocateB8ue170006ERS7_m, symObjAddr: 0x29148, symBinAddr: 0x100029F38, symSize: 0x2C }
  - { offsetInCU: 0x47777, offset: 0x47777, size: 0x8, addend: 0x0, symName: __ZNSt3__110unique_ptrINS_12basic_stringIcNS_11char_traitsIcEENS_9allocatorIcEEEEZN8nlohmann16json_abi_v3_11_310basic_jsonINS_3mapENS_6vectorES6_bxydS4_NS8_14adl_serializerENSB_IhNS4_IhEEEEvE6createIS6_JRA3_KcEEEPT_DpOT0_EUlPS6_E_EC1B8ue170006ILb1EvEESP_NS_16__dependent_typeINS_27__unique_ptr_deleter_sfinaeISQ_EEXT_EE15__lval_ref_typeE, symObjAddr: 0x29174, symBinAddr: 0x100029F64, symSize: 0x3C }
  - { offsetInCU: 0x477C8, offset: 0x477C8, size: 0x8, addend: 0x0, symName: __ZNSt3__116allocator_traitsINS_9allocatorINS_12basic_stringIcNS_11char_traitsIcEENS1_IcEEEEEEE9constructB8ue170006IS6_JRA3_KcEvvEEvRS7_PT_DpOT0_, symObjAddr: 0x291B0, symBinAddr: 0x100029FA0, symSize: 0x30 }
  - { offsetInCU: 0x4781D, offset: 0x4781D, size: 0x8, addend: 0x0, symName: __ZNKSt3__110unique_ptrINS_12basic_stringIcNS_11char_traitsIcEENS_9allocatorIcEEEEZN8nlohmann16json_abi_v3_11_310basic_jsonINS_3mapENS_6vectorES6_bxydS4_NS8_14adl_serializerENSB_IhNS4_IhEEEEvE6createIS6_JRA3_KcEEEPT_DpOT0_EUlPS6_E_E3getB8ue170006Ev, symObjAddr: 0x291E0, symBinAddr: 0x100029FD0, symSize: 0x28 }
  - { offsetInCU: 0x47843, offset: 0x47843, size: 0x8, addend: 0x0, symName: __ZNSt3__110unique_ptrINS_12basic_stringIcNS_11char_traitsIcEENS_9allocatorIcEEEEZN8nlohmann16json_abi_v3_11_310basic_jsonINS_3mapENS_6vectorES6_bxydS4_NS8_14adl_serializerENSB_IhNS4_IhEEEEvE6createIS6_JRA3_KcEEEPT_DpOT0_EUlPS6_E_E7releaseB8ue170006Ev, symObjAddr: 0x29238, symBinAddr: 0x10002A028, symSize: 0x44 }
  - { offsetInCU: 0x47878, offset: 0x47878, size: 0x8, addend: 0x0, symName: __ZNSt3__110unique_ptrINS_12basic_stringIcNS_11char_traitsIcEENS_9allocatorIcEEEEZN8nlohmann16json_abi_v3_11_310basic_jsonINS_3mapENS_6vectorES6_bxydS4_NS8_14adl_serializerENSB_IhNS4_IhEEEEvE6createIS6_JRA3_KcEEEPT_DpOT0_EUlPS6_E_ED1B8ue170006Ev, symObjAddr: 0x2927C, symBinAddr: 0x10002A06C, symSize: 0x2C }
  - { offsetInCU: 0x478A2, offset: 0x478A2, size: 0x8, addend: 0x0, symName: __ZNSt3__19allocatorINS_12basic_stringIcNS_11char_traitsIcEENS0_IcEEEEE8allocateB8ue170006Em, symObjAddr: 0x292A8, symBinAddr: 0x10002A098, symSize: 0x5C }
  - { offsetInCU: 0x478E1, offset: 0x478E1, size: 0x8, addend: 0x0, symName: __ZNSt3__116allocator_traitsINS_9allocatorINS_12basic_stringIcNS_11char_traitsIcEENS1_IcEEEEEEE8max_sizeB8ue170006IS7_vvEEmRKS7_, symObjAddr: 0x29304, symBinAddr: 0x10002A0F4, symSize: 0x28 }
  - { offsetInCU: 0x4790D, offset: 0x4790D, size: 0x8, addend: 0x0, symName: __ZNSt3__110unique_ptrINS_12basic_stringIcNS_11char_traitsIcEENS_9allocatorIcEEEEZN8nlohmann16json_abi_v3_11_310basic_jsonINS_3mapENS_6vectorES6_bxydS4_NS8_14adl_serializerENSB_IhNS4_IhEEEEvE6createIS6_JRA3_KcEEEPT_DpOT0_EUlPS6_E_EC2B8ue170006ILb1EvEESP_NS_16__dependent_typeINS_27__unique_ptr_deleter_sfinaeISQ_EEXT_EE15__lval_ref_typeE, symObjAddr: 0x2932C, symBinAddr: 0x10002A11C, symSize: 0x48 }
  - { offsetInCU: 0x47964, offset: 0x47964, size: 0x8, addend: 0x0, symName: __ZNSt3__117__compressed_pairIPNS_12basic_stringIcNS_11char_traitsIcEENS_9allocatorIcEEEEZN8nlohmann16json_abi_v3_11_310basic_jsonINS_3mapENS_6vectorES6_bxydS4_NS9_14adl_serializerENSC_IhNS4_IhEEEEvE6createIS6_JRA3_KcEEEPT_DpOT0_EUlS7_E_EC1B8ue170006IRS7_RKSQ_EEOSL_OT0_, symObjAddr: 0x29374, symBinAddr: 0x10002A164, symSize: 0x3C }
  - { offsetInCU: 0x479BC, offset: 0x479BC, size: 0x8, addend: 0x0, symName: __ZNSt3__117__compressed_pairIPNS_12basic_stringIcNS_11char_traitsIcEENS_9allocatorIcEEEEZN8nlohmann16json_abi_v3_11_310basic_jsonINS_3mapENS_6vectorES6_bxydS4_NS9_14adl_serializerENSC_IhNS4_IhEEEEvE6createIS6_JRA3_KcEEEPT_DpOT0_EUlS7_E_EC2B8ue170006IRS7_RKSQ_EEOSL_OT0_, symObjAddr: 0x293B0, symBinAddr: 0x10002A1A0, symSize: 0x48 }
  - { offsetInCU: 0x47A14, offset: 0x47A14, size: 0x8, addend: 0x0, symName: __ZNSt3__122__compressed_pair_elemIPNS_12basic_stringIcNS_11char_traitsIcEENS_9allocatorIcEEEELi0ELb0EEC2B8ue170006IRS7_vEEOT_, symObjAddr: 0x293F8, symBinAddr: 0x10002A1E8, symSize: 0x24 }
  - { offsetInCU: 0x47A56, offset: 0x47A56, size: 0x8, addend: 0x0, symName: __ZNSt3__122__compressed_pair_elemIZN8nlohmann16json_abi_v3_11_310basic_jsonINS_3mapENS_6vectorENS_12basic_stringIcNS_11char_traitsIcEENS_9allocatorIcEEEEbxydS9_NS2_14adl_serializerENS5_IhNS9_IhEEEEvE6createISB_JRA3_KcEEEPT_DpOT0_EUlPSB_E_Li1ELb0EEC2B8ue170006IRKSQ_vEEOSK_, symObjAddr: 0x2941C, symBinAddr: 0x10002A20C, symSize: 0x24 }
  - { offsetInCU: 0x47A98, offset: 0x47A98, size: 0x8, addend: 0x0, symName: __ZNKSt3__117__compressed_pairIPNS_12basic_stringIcNS_11char_traitsIcEENS_9allocatorIcEEEEZN8nlohmann16json_abi_v3_11_310basic_jsonINS_3mapENS_6vectorES6_bxydS4_NS9_14adl_serializerENSC_IhNS4_IhEEEEvE6createIS6_JRA3_KcEEEPT_DpOT0_EUlS7_E_E5firstB8ue170006Ev, symObjAddr: 0x2947C, symBinAddr: 0x10002A26C, symSize: 0x24 }
  - { offsetInCU: 0x47ABE, offset: 0x47ABE, size: 0x8, addend: 0x0, symName: __ZNKSt3__122__compressed_pair_elemIPNS_12basic_stringIcNS_11char_traitsIcEENS_9allocatorIcEEEELi0ELb0EE5__getB8ue170006Ev, symObjAddr: 0x294A0, symBinAddr: 0x10002A290, symSize: 0x14 }
  - { offsetInCU: 0x47AE4, offset: 0x47AE4, size: 0x8, addend: 0x0, symName: __ZNKSt3__110unique_ptrINS_12basic_stringIcNS_11char_traitsIcEENS_9allocatorIcEEEEZN8nlohmann16json_abi_v3_11_310basic_jsonINS_3mapENS_6vectorES6_bxydS4_NS8_14adl_serializerENSB_IhNS4_IhEEEEvE6createIS6_JRA3_KcEEEPT_DpOT0_EUlPS6_E_EcvbB8ue170006Ev, symObjAddr: 0x294B4, symBinAddr: 0x10002A2A4, symSize: 0x34 }
  - { offsetInCU: 0x47B0A, offset: 0x47B0A, size: 0x8, addend: 0x0, symName: __ZNSt3__117__compressed_pairIPNS_12basic_stringIcNS_11char_traitsIcEENS_9allocatorIcEEEEZN8nlohmann16json_abi_v3_11_310basic_jsonINS_3mapENS_6vectorES6_bxydS4_NS9_14adl_serializerENSC_IhNS4_IhEEEEvE6createIS6_JRA3_KcEEEPT_DpOT0_EUlS7_E_E5firstB8ue170006Ev, symObjAddr: 0x294E8, symBinAddr: 0x10002A2D8, symSize: 0x24 }
  - { offsetInCU: 0x47B30, offset: 0x47B30, size: 0x8, addend: 0x0, symName: __ZNSt3__122__compressed_pair_elemIPNS_12basic_stringIcNS_11char_traitsIcEENS_9allocatorIcEEEELi0ELb0EE5__getB8ue170006Ev, symObjAddr: 0x2950C, symBinAddr: 0x10002A2FC, symSize: 0x14 }
  - { offsetInCU: 0x47B56, offset: 0x47B56, size: 0x8, addend: 0x0, symName: __ZNSt3__110unique_ptrINS_12basic_stringIcNS_11char_traitsIcEENS_9allocatorIcEEEEZN8nlohmann16json_abi_v3_11_310basic_jsonINS_3mapENS_6vectorES6_bxydS4_NS8_14adl_serializerENSB_IhNS4_IhEEEEvE6createIS6_JRA3_KcEEEPT_DpOT0_EUlPS6_E_ED2B8ue170006Ev, symObjAddr: 0x29520, symBinAddr: 0x10002A310, symSize: 0x30 }
  - { offsetInCU: 0x47B80, offset: 0x47B80, size: 0x8, addend: 0x0, symName: __ZNSt3__110unique_ptrINS_12basic_stringIcNS_11char_traitsIcEENS_9allocatorIcEEEEZN8nlohmann16json_abi_v3_11_310basic_jsonINS_3mapENS_6vectorES6_bxydS4_NS8_14adl_serializerENSB_IhNS4_IhEEEEvE6createIS6_JRA3_KcEEEPT_DpOT0_EUlPS6_E_E5resetB8ue170006ESP_, symObjAddr: 0x29550, symBinAddr: 0x10002A340, symSize: 0x80 }
  - { offsetInCU: 0x47BC4, offset: 0x47BC4, size: 0x8, addend: 0x0, symName: __ZNSt3__117__compressed_pairIPNS_12basic_stringIcNS_11char_traitsIcEENS_9allocatorIcEEEEZN8nlohmann16json_abi_v3_11_310basic_jsonINS_3mapENS_6vectorES6_bxydS4_NS9_14adl_serializerENSC_IhNS4_IhEEEEvE6createIS6_JRA3_KcEEEPT_DpOT0_EUlS7_E_E6secondB8ue170006Ev, symObjAddr: 0x295D0, symBinAddr: 0x10002A3C0, symSize: 0x28 }
  - { offsetInCU: 0x47BF0, offset: 0x47BF0, size: 0x8, addend: 0x0, symName: __ZZN8nlohmann16json_abi_v3_11_310basic_jsonINSt3__13mapENS2_6vectorENS2_12basic_stringIcNS2_11char_traitsIcEENS2_9allocatorIcEEEEbxydS8_NS0_14adl_serializerENS4_IhNS8_IhEEEEvE6createISA_JRA3_KcEEEPT_DpOT0_ENKUlPSA_E_clESO_, symObjAddr: 0x295F8, symBinAddr: 0x10002A3E8, symSize: 0x34 }
  - { offsetInCU: 0x47C29, offset: 0x47C29, size: 0x8, addend: 0x0, symName: __ZNSt3__122__compressed_pair_elemIZN8nlohmann16json_abi_v3_11_310basic_jsonINS_3mapENS_6vectorENS_12basic_stringIcNS_11char_traitsIcEENS_9allocatorIcEEEEbxydS9_NS2_14adl_serializerENS5_IhNS9_IhEEEEvE6createISB_JRA3_KcEEEPT_DpOT0_EUlPSB_E_Li1ELb0EE5__getB8ue170006Ev, symObjAddr: 0x2962C, symBinAddr: 0x10002A41C, symSize: 0x14 }
  - { offsetInCU: 0x47C4F, offset: 0x47C4F, size: 0x8, addend: 0x0, symName: __ZN8nlohmann16json_abi_v3_11_310basic_jsonINSt3__13mapENS2_6vectorENS2_12basic_stringIcNS2_11char_traitsIcEENS2_9allocatorIcEEEEbxydS8_NS0_14adl_serializerENS4_IhNS8_IhEEEEvE4dataD2Ev, symObjAddr: 0x29640, symBinAddr: 0x10002A430, symSize: 0x3C }
  - { offsetInCU: 0x47C79, offset: 0x47C79, size: 0x8, addend: 0x0, symName: __ZN8nlohmann16json_abi_v3_11_36detail8json_refINS0_10basic_jsonINSt3__13mapENS4_6vectorENS4_12basic_stringIcNS4_11char_traitsIcEENS4_9allocatorIcEEEEbxydSA_NS0_14adl_serializerENS6_IhNSA_IhEEEEvEEEC2IJRKiELi0EEEDpOT_, symObjAddr: 0x2967C, symBinAddr: 0x10002A46C, symSize: 0x38 }
  - { offsetInCU: 0x47CC3, offset: 0x47CC3, size: 0x8, addend: 0x0, symName: __ZN8nlohmann16json_abi_v3_11_310basic_jsonINSt3__13mapENS2_6vectorENS2_12basic_stringIcNS2_11char_traitsIcEENS2_9allocatorIcEEEEbxydS8_NS0_14adl_serializerENS4_IhNS8_IhEEEEvEC1IRKiiLi0EEEOT_, symObjAddr: 0x296B4, symBinAddr: 0x10002A4A4, symSize: 0x34 }
  - { offsetInCU: 0x47D14, offset: 0x47D14, size: 0x8, addend: 0x0, symName: __ZN8nlohmann16json_abi_v3_11_310basic_jsonINSt3__13mapENS2_6vectorENS2_12basic_stringIcNS2_11char_traitsIcEENS2_9allocatorIcEEEEbxydS8_NS0_14adl_serializerENS4_IhNS8_IhEEEEvEC2IRKiiLi0EEEOT_, symObjAddr: 0x296E8, symBinAddr: 0x10002A4D8, symSize: 0x5C }
  - { offsetInCU: 0x47D65, offset: 0x47D65, size: 0x8, addend: 0x0, symName: __ZN8nlohmann16json_abi_v3_11_314adl_serializerIivE7to_jsonINS0_10basic_jsonINSt3__13mapENS5_6vectorENS5_12basic_stringIcNS5_11char_traitsIcEENS5_9allocatorIcEEEEbxydSB_S1_NS7_IhNSB_IhEEEEvEERKiEEDTcmclL_ZNS0_7to_jsonEEfp_clsr3stdE7forwardIT0_Efp0_EEcvv_EERT_OSJ_, symObjAddr: 0x29744, symBinAddr: 0x10002A534, symSize: 0x34 }
  - { offsetInCU: 0x47DAA, offset: 0x47DAA, size: 0x8, addend: 0x0, symName: __ZNK8nlohmann16json_abi_v3_11_36detail10to_json_fnclINS0_10basic_jsonINSt3__13mapENS5_6vectorENS5_12basic_stringIcNS5_11char_traitsIcEENS5_9allocatorIcEEEEbxydSB_NS0_14adl_serializerENS7_IhNSB_IhEEEEvEERKiEEDTcmcl7to_jsonfp_clsr3stdE7forwardIT0_Efp0_EEcvv_EERT_OSK_, symObjAddr: 0x29778, symBinAddr: 0x10002A568, symSize: 0x34 }
  - { offsetInCU: 0x47E00, offset: 0x47E00, size: 0x8, addend: 0x0, symName: __ZN8nlohmann16json_abi_v3_11_36detail20external_constructorILNS1_7value_tE5EE9constructINS0_10basic_jsonINSt3__13mapENS7_6vectorENS7_12basic_stringIcNS7_11char_traitsIcEENS7_9allocatorIcEEEEbxydSD_NS0_14adl_serializerENS9_IhNSD_IhEEEEvEEEEvRT_NSK_16number_integer_tE, symObjAddr: 0x297D8, symBinAddr: 0x10002A5C8, symSize: 0x70 }
  - { offsetInCU: 0x47E3C, offset: 0x47E3C, size: 0x8, addend: 0x0, symName: __ZN8nlohmann16json_abi_v3_11_310basic_jsonINSt3__13mapENS2_6vectorENS2_12basic_stringIcNS2_11char_traitsIcEENS2_9allocatorIcEEEEbxydS8_NS0_14adl_serializerENS4_IhNS8_IhEEEEvE10json_valueC1Ex, symObjAddr: 0x29848, symBinAddr: 0x10002A638, symSize: 0x34 }
  - { offsetInCU: 0x47E75, offset: 0x47E75, size: 0x8, addend: 0x0, symName: __ZN8nlohmann16json_abi_v3_11_310basic_jsonINSt3__13mapENS2_6vectorENS2_12basic_stringIcNS2_11char_traitsIcEENS2_9allocatorIcEEEEbxydS8_NS0_14adl_serializerENS4_IhNS8_IhEEEEvE10json_valueC2Ex, symObjAddr: 0x2987C, symBinAddr: 0x10002A66C, symSize: 0x20 }
  - { offsetInCU: 0x47EAE, offset: 0x47EAE, size: 0x8, addend: 0x0, symName: __ZN8nlohmann16json_abi_v3_11_36detail8json_refINS0_10basic_jsonINSt3__13mapENS4_6vectorENS4_12basic_stringIcNS4_11char_traitsIcEENS4_9allocatorIcEEEEbxydSA_NS0_14adl_serializerENS6_IhNSA_IhEEEEvEEEC2IJRA8_KcELi0EEEDpOT_, symObjAddr: 0x2989C, symBinAddr: 0x10002A68C, symSize: 0x38 }
  - { offsetInCU: 0x47EF8, offset: 0x47EF8, size: 0x8, addend: 0x0, symName: __ZN8nlohmann16json_abi_v3_11_310basic_jsonINSt3__13mapENS2_6vectorENS2_12basic_stringIcNS2_11char_traitsIcEENS2_9allocatorIcEEEEbxydS8_NS0_14adl_serializerENS4_IhNS8_IhEEEEvEC1IRA8_KcA8_cLi0EEEOT_, symObjAddr: 0x298D4, symBinAddr: 0x10002A6C4, symSize: 0x34 }
  - { offsetInCU: 0x47F49, offset: 0x47F49, size: 0x8, addend: 0x0, symName: __ZN8nlohmann16json_abi_v3_11_310basic_jsonINSt3__13mapENS2_6vectorENS2_12basic_stringIcNS2_11char_traitsIcEENS2_9allocatorIcEEEEbxydS8_NS0_14adl_serializerENS4_IhNS8_IhEEEEvEC2IRA8_KcA8_cLi0EEEOT_, symObjAddr: 0x29908, symBinAddr: 0x10002A6F8, symSize: 0x84 }
  - { offsetInCU: 0x47F9A, offset: 0x47F9A, size: 0x8, addend: 0x0, symName: __ZN8nlohmann16json_abi_v3_11_314adl_serializerIA8_cvE7to_jsonINS0_10basic_jsonINSt3__13mapENS6_6vectorENS6_12basic_stringIcNS6_11char_traitsIcEENS6_9allocatorIcEEEEbxydSC_S1_NS8_IhNSC_IhEEEEvEERA8_KcEEDTcmclL_ZNS0_7to_jsonEEfp_clsr3stdE7forwardIT0_Efp0_EEcvv_EERT_OSL_, symObjAddr: 0x2998C, symBinAddr: 0x10002A77C, symSize: 0x34 }
  - { offsetInCU: 0x47FDF, offset: 0x47FDF, size: 0x8, addend: 0x0, symName: __ZNK8nlohmann16json_abi_v3_11_36detail10to_json_fnclINS0_10basic_jsonINSt3__13mapENS5_6vectorENS5_12basic_stringIcNS5_11char_traitsIcEENS5_9allocatorIcEEEEbxydSB_NS0_14adl_serializerENS7_IhNSB_IhEEEEvEERA8_KcEEDTcmcl7to_jsonfp_clsr3stdE7forwardIT0_Efp0_EEcvv_EERT_OSL_, symObjAddr: 0x299C0, symBinAddr: 0x10002A7B0, symSize: 0x30 }
  - { offsetInCU: 0x48035, offset: 0x48035, size: 0x8, addend: 0x0, symName: __ZN8nlohmann16json_abi_v3_11_36detail20external_constructorILNS1_7value_tE3EE9constructINS0_10basic_jsonINSt3__13mapENS7_6vectorENS7_12basic_stringIcNS7_11char_traitsIcEENS7_9allocatorIcEEEEbxydSD_NS0_14adl_serializerENS9_IhNSD_IhEEEEvEEA8_cLi0EEEvRT_RKT0_, symObjAddr: 0x29A1C, symBinAddr: 0x10002A80C, symSize: 0x60 }
  - { offsetInCU: 0x48080, offset: 0x48080, size: 0x8, addend: 0x0, symName: __ZN8nlohmann16json_abi_v3_11_310basic_jsonINSt3__13mapENS2_6vectorENS2_12basic_stringIcNS2_11char_traitsIcEENS2_9allocatorIcEEEEbxydS8_NS0_14adl_serializerENS4_IhNS8_IhEEEEvE6createISA_JRA8_KcEEEPT_DpOT0_, symObjAddr: 0x29A7C, symBinAddr: 0x10002A86C, symSize: 0xF4 }
  - { offsetInCU: 0x48181, offset: 0x48181, size: 0x8, addend: 0x0, symName: __ZNSt3__110unique_ptrINS_12basic_stringIcNS_11char_traitsIcEENS_9allocatorIcEEEEZN8nlohmann16json_abi_v3_11_310basic_jsonINS_3mapENS_6vectorES6_bxydS4_NS8_14adl_serializerENSB_IhNS4_IhEEEEvE6createIS6_JRA8_KcEEEPT_DpOT0_EUlPS6_E_EC1B8ue170006ILb1EvEESP_NS_16__dependent_typeINS_27__unique_ptr_deleter_sfinaeISQ_EEXT_EE15__lval_ref_typeE, symObjAddr: 0x29B70, symBinAddr: 0x10002A960, symSize: 0x3C }
  - { offsetInCU: 0x481D2, offset: 0x481D2, size: 0x8, addend: 0x0, symName: __ZNSt3__116allocator_traitsINS_9allocatorINS_12basic_stringIcNS_11char_traitsIcEENS1_IcEEEEEEE9constructB8ue170006IS6_JRA8_KcEvvEEvRS7_PT_DpOT0_, symObjAddr: 0x29BAC, symBinAddr: 0x10002A99C, symSize: 0x30 }
  - { offsetInCU: 0x48227, offset: 0x48227, size: 0x8, addend: 0x0, symName: __ZNKSt3__110unique_ptrINS_12basic_stringIcNS_11char_traitsIcEENS_9allocatorIcEEEEZN8nlohmann16json_abi_v3_11_310basic_jsonINS_3mapENS_6vectorES6_bxydS4_NS8_14adl_serializerENSB_IhNS4_IhEEEEvE6createIS6_JRA8_KcEEEPT_DpOT0_EUlPS6_E_E3getB8ue170006Ev, symObjAddr: 0x29BDC, symBinAddr: 0x10002A9CC, symSize: 0x28 }
  - { offsetInCU: 0x4824D, offset: 0x4824D, size: 0x8, addend: 0x0, symName: __ZNSt3__110unique_ptrINS_12basic_stringIcNS_11char_traitsIcEENS_9allocatorIcEEEEZN8nlohmann16json_abi_v3_11_310basic_jsonINS_3mapENS_6vectorES6_bxydS4_NS8_14adl_serializerENSB_IhNS4_IhEEEEvE6createIS6_JRA8_KcEEEPT_DpOT0_EUlPS6_E_E7releaseB8ue170006Ev, symObjAddr: 0x29C34, symBinAddr: 0x10002AA24, symSize: 0x44 }
  - { offsetInCU: 0x48282, offset: 0x48282, size: 0x8, addend: 0x0, symName: __ZNSt3__110unique_ptrINS_12basic_stringIcNS_11char_traitsIcEENS_9allocatorIcEEEEZN8nlohmann16json_abi_v3_11_310basic_jsonINS_3mapENS_6vectorES6_bxydS4_NS8_14adl_serializerENSB_IhNS4_IhEEEEvE6createIS6_JRA8_KcEEEPT_DpOT0_EUlPS6_E_ED1B8ue170006Ev, symObjAddr: 0x29C78, symBinAddr: 0x10002AA68, symSize: 0x2C }
  - { offsetInCU: 0x482AC, offset: 0x482AC, size: 0x8, addend: 0x0, symName: __ZNSt3__110unique_ptrINS_12basic_stringIcNS_11char_traitsIcEENS_9allocatorIcEEEEZN8nlohmann16json_abi_v3_11_310basic_jsonINS_3mapENS_6vectorES6_bxydS4_NS8_14adl_serializerENSB_IhNS4_IhEEEEvE6createIS6_JRA8_KcEEEPT_DpOT0_EUlPS6_E_EC2B8ue170006ILb1EvEESP_NS_16__dependent_typeINS_27__unique_ptr_deleter_sfinaeISQ_EEXT_EE15__lval_ref_typeE, symObjAddr: 0x29CA4, symBinAddr: 0x10002AA94, symSize: 0x48 }
  - { offsetInCU: 0x482FD, offset: 0x482FD, size: 0x8, addend: 0x0, symName: __ZNSt3__117__compressed_pairIPNS_12basic_stringIcNS_11char_traitsIcEENS_9allocatorIcEEEEZN8nlohmann16json_abi_v3_11_310basic_jsonINS_3mapENS_6vectorES6_bxydS4_NS9_14adl_serializerENSC_IhNS4_IhEEEEvE6createIS6_JRA8_KcEEEPT_DpOT0_EUlS7_E_EC1B8ue170006IRS7_RKSQ_EEOSL_OT0_, symObjAddr: 0x29CEC, symBinAddr: 0x10002AADC, symSize: 0x3C }
  - { offsetInCU: 0x48355, offset: 0x48355, size: 0x8, addend: 0x0, symName: __ZNSt3__117__compressed_pairIPNS_12basic_stringIcNS_11char_traitsIcEENS_9allocatorIcEEEEZN8nlohmann16json_abi_v3_11_310basic_jsonINS_3mapENS_6vectorES6_bxydS4_NS9_14adl_serializerENSC_IhNS4_IhEEEEvE6createIS6_JRA8_KcEEEPT_DpOT0_EUlS7_E_EC2B8ue170006IRS7_RKSQ_EEOSL_OT0_, symObjAddr: 0x29D28, symBinAddr: 0x10002AB18, symSize: 0x48 }
  - { offsetInCU: 0x483AD, offset: 0x483AD, size: 0x8, addend: 0x0, symName: __ZNSt3__122__compressed_pair_elemIZN8nlohmann16json_abi_v3_11_310basic_jsonINS_3mapENS_6vectorENS_12basic_stringIcNS_11char_traitsIcEENS_9allocatorIcEEEEbxydS9_NS2_14adl_serializerENS5_IhNS9_IhEEEEvE6createISB_JRA8_KcEEEPT_DpOT0_EUlPSB_E_Li1ELb0EEC2B8ue170006IRKSQ_vEEOSK_, symObjAddr: 0x29D70, symBinAddr: 0x10002AB60, symSize: 0x24 }
  - { offsetInCU: 0x483EF, offset: 0x483EF, size: 0x8, addend: 0x0, symName: __ZNKSt3__117__compressed_pairIPNS_12basic_stringIcNS_11char_traitsIcEENS_9allocatorIcEEEEZN8nlohmann16json_abi_v3_11_310basic_jsonINS_3mapENS_6vectorES6_bxydS4_NS9_14adl_serializerENSC_IhNS4_IhEEEEvE6createIS6_JRA8_KcEEEPT_DpOT0_EUlS7_E_E5firstB8ue170006Ev, symObjAddr: 0x29DD0, symBinAddr: 0x10002ABC0, symSize: 0x24 }
  - { offsetInCU: 0x48415, offset: 0x48415, size: 0x8, addend: 0x0, symName: __ZNKSt3__110unique_ptrINS_12basic_stringIcNS_11char_traitsIcEENS_9allocatorIcEEEEZN8nlohmann16json_abi_v3_11_310basic_jsonINS_3mapENS_6vectorES6_bxydS4_NS8_14adl_serializerENSB_IhNS4_IhEEEEvE6createIS6_JRA8_KcEEEPT_DpOT0_EUlPS6_E_EcvbB8ue170006Ev, symObjAddr: 0x29DF4, symBinAddr: 0x10002ABE4, symSize: 0x34 }
  - { offsetInCU: 0x4843B, offset: 0x4843B, size: 0x8, addend: 0x0, symName: __ZNSt3__117__compressed_pairIPNS_12basic_stringIcNS_11char_traitsIcEENS_9allocatorIcEEEEZN8nlohmann16json_abi_v3_11_310basic_jsonINS_3mapENS_6vectorES6_bxydS4_NS9_14adl_serializerENSC_IhNS4_IhEEEEvE6createIS6_JRA8_KcEEEPT_DpOT0_EUlS7_E_E5firstB8ue170006Ev, symObjAddr: 0x29E28, symBinAddr: 0x10002AC18, symSize: 0x24 }
  - { offsetInCU: 0x48461, offset: 0x48461, size: 0x8, addend: 0x0, symName: __ZNSt3__110unique_ptrINS_12basic_stringIcNS_11char_traitsIcEENS_9allocatorIcEEEEZN8nlohmann16json_abi_v3_11_310basic_jsonINS_3mapENS_6vectorES6_bxydS4_NS8_14adl_serializerENSB_IhNS4_IhEEEEvE6createIS6_JRA8_KcEEEPT_DpOT0_EUlPS6_E_ED2B8ue170006Ev, symObjAddr: 0x29E4C, symBinAddr: 0x10002AC3C, symSize: 0x30 }
  - { offsetInCU: 0x4848B, offset: 0x4848B, size: 0x8, addend: 0x0, symName: __ZNSt3__110unique_ptrINS_12basic_stringIcNS_11char_traitsIcEENS_9allocatorIcEEEEZN8nlohmann16json_abi_v3_11_310basic_jsonINS_3mapENS_6vectorES6_bxydS4_NS8_14adl_serializerENSB_IhNS4_IhEEEEvE6createIS6_JRA8_KcEEEPT_DpOT0_EUlPS6_E_E5resetB8ue170006ESP_, symObjAddr: 0x29E7C, symBinAddr: 0x10002AC6C, symSize: 0x80 }
  - { offsetInCU: 0x484CF, offset: 0x484CF, size: 0x8, addend: 0x0, symName: __ZNSt3__117__compressed_pairIPNS_12basic_stringIcNS_11char_traitsIcEENS_9allocatorIcEEEEZN8nlohmann16json_abi_v3_11_310basic_jsonINS_3mapENS_6vectorES6_bxydS4_NS9_14adl_serializerENSC_IhNS4_IhEEEEvE6createIS6_JRA8_KcEEEPT_DpOT0_EUlS7_E_E6secondB8ue170006Ev, symObjAddr: 0x29EFC, symBinAddr: 0x10002ACEC, symSize: 0x28 }
  - { offsetInCU: 0x484FB, offset: 0x484FB, size: 0x8, addend: 0x0, symName: __ZZN8nlohmann16json_abi_v3_11_310basic_jsonINSt3__13mapENS2_6vectorENS2_12basic_stringIcNS2_11char_traitsIcEENS2_9allocatorIcEEEEbxydS8_NS0_14adl_serializerENS4_IhNS8_IhEEEEvE6createISA_JRA8_KcEEEPT_DpOT0_ENKUlPSA_E_clESO_, symObjAddr: 0x29F24, symBinAddr: 0x10002AD14, symSize: 0x34 }
  - { offsetInCU: 0x48534, offset: 0x48534, size: 0x8, addend: 0x0, symName: __ZNSt3__122__compressed_pair_elemIZN8nlohmann16json_abi_v3_11_310basic_jsonINS_3mapENS_6vectorENS_12basic_stringIcNS_11char_traitsIcEENS_9allocatorIcEEEEbxydS9_NS2_14adl_serializerENS5_IhNS9_IhEEEEvE6createISB_JRA8_KcEEEPT_DpOT0_EUlPSB_E_Li1ELb0EE5__getB8ue170006Ev, symObjAddr: 0x29F58, symBinAddr: 0x10002AD48, symSize: 0x14 }
  - { offsetInCU: 0x4855A, offset: 0x4855A, size: 0x8, addend: 0x0, symName: __ZN8nlohmann16json_abi_v3_11_36detail8json_refINS0_10basic_jsonINSt3__13mapENS4_6vectorENS4_12basic_stringIcNS4_11char_traitsIcEENS4_9allocatorIcEEEEbxydSA_NS0_14adl_serializerENS6_IhNSA_IhEEEEvEEEC2IJRKdELi0EEEDpOT_, symObjAddr: 0x29F6C, symBinAddr: 0x10002AD5C, symSize: 0x38 }
  - { offsetInCU: 0x485A4, offset: 0x485A4, size: 0x8, addend: 0x0, symName: __ZN8nlohmann16json_abi_v3_11_310basic_jsonINSt3__13mapENS2_6vectorENS2_12basic_stringIcNS2_11char_traitsIcEENS2_9allocatorIcEEEEbxydS8_NS0_14adl_serializerENS4_IhNS8_IhEEEEvEC1IRKddLi0EEEOT_, symObjAddr: 0x29FA4, symBinAddr: 0x10002AD94, symSize: 0x34 }
  - { offsetInCU: 0x485F5, offset: 0x485F5, size: 0x8, addend: 0x0, symName: __ZN8nlohmann16json_abi_v3_11_310basic_jsonINSt3__13mapENS2_6vectorENS2_12basic_stringIcNS2_11char_traitsIcEENS2_9allocatorIcEEEEbxydS8_NS0_14adl_serializerENS4_IhNS8_IhEEEEvEC2IRKddLi0EEEOT_, symObjAddr: 0x29FD8, symBinAddr: 0x10002ADC8, symSize: 0x5C }
  - { offsetInCU: 0x48646, offset: 0x48646, size: 0x8, addend: 0x0, symName: __ZN8nlohmann16json_abi_v3_11_314adl_serializerIdvE7to_jsonINS0_10basic_jsonINSt3__13mapENS5_6vectorENS5_12basic_stringIcNS5_11char_traitsIcEENS5_9allocatorIcEEEEbxydSB_S1_NS7_IhNSB_IhEEEEvEERKdEEDTcmclL_ZNS0_7to_jsonEEfp_clsr3stdE7forwardIT0_Efp0_EEcvv_EERT_OSJ_, symObjAddr: 0x2A034, symBinAddr: 0x10002AE24, symSize: 0x34 }
  - { offsetInCU: 0x4868B, offset: 0x4868B, size: 0x8, addend: 0x0, symName: __ZNK8nlohmann16json_abi_v3_11_36detail10to_json_fnclINS0_10basic_jsonINSt3__13mapENS5_6vectorENS5_12basic_stringIcNS5_11char_traitsIcEENS5_9allocatorIcEEEEbxydSB_NS0_14adl_serializerENS7_IhNSB_IhEEEEvEERKdEEDTcmcl7to_jsonfp_clsr3stdE7forwardIT0_Efp0_EEcvv_EERT_OSK_, symObjAddr: 0x2A068, symBinAddr: 0x10002AE58, symSize: 0x34 }
  - { offsetInCU: 0x486E1, offset: 0x486E1, size: 0x8, addend: 0x0, symName: __ZN8nlohmann16json_abi_v3_11_36detail20external_constructorILNS1_7value_tE7EE9constructINS0_10basic_jsonINSt3__13mapENS7_6vectorENS7_12basic_stringIcNS7_11char_traitsIcEENS7_9allocatorIcEEEEbxydSD_NS0_14adl_serializerENS9_IhNSD_IhEEEEvEEEEvRT_NSK_14number_float_tE, symObjAddr: 0x2A0C8, symBinAddr: 0x10002AEB8, symSize: 0x70 }
  - { offsetInCU: 0x4871D, offset: 0x4871D, size: 0x8, addend: 0x0, symName: __ZN8nlohmann16json_abi_v3_11_310basic_jsonINSt3__13mapENS2_6vectorENS2_12basic_stringIcNS2_11char_traitsIcEENS2_9allocatorIcEEEEbxydS8_NS0_14adl_serializerENS4_IhNS8_IhEEEEvE10json_valueC1Ed, symObjAddr: 0x2A138, symBinAddr: 0x10002AF28, symSize: 0x34 }
  - { offsetInCU: 0x48756, offset: 0x48756, size: 0x8, addend: 0x0, symName: __ZN8nlohmann16json_abi_v3_11_310basic_jsonINSt3__13mapENS2_6vectorENS2_12basic_stringIcNS2_11char_traitsIcEENS2_9allocatorIcEEEEbxydS8_NS0_14adl_serializerENS4_IhNS8_IhEEEEvE10json_valueC2Ed, symObjAddr: 0x2A16C, symBinAddr: 0x10002AF5C, symSize: 0x20 }
  - { offsetInCU: 0x4878F, offset: 0x4878F, size: 0x8, addend: 0x0, symName: __ZN8nlohmann16json_abi_v3_11_36detail8json_refINS0_10basic_jsonINSt3__13mapENS4_6vectorENS4_12basic_stringIcNS4_11char_traitsIcEENS4_9allocatorIcEEEEbxydSA_NS0_14adl_serializerENS6_IhNSA_IhEEEEvEEEC2IJRA5_KcELi0EEEDpOT_, symObjAddr: 0x2A18C, symBinAddr: 0x10002AF7C, symSize: 0x38 }
  - { offsetInCU: 0x487D9, offset: 0x487D9, size: 0x8, addend: 0x0, symName: __ZN8nlohmann16json_abi_v3_11_310basic_jsonINSt3__13mapENS2_6vectorENS2_12basic_stringIcNS2_11char_traitsIcEENS2_9allocatorIcEEEEbxydS8_NS0_14adl_serializerENS4_IhNS8_IhEEEEvEC1IRA5_KcA5_cLi0EEEOT_, symObjAddr: 0x2A1C4, symBinAddr: 0x10002AFB4, symSize: 0x34 }
  - { offsetInCU: 0x4882A, offset: 0x4882A, size: 0x8, addend: 0x0, symName: __ZN8nlohmann16json_abi_v3_11_310basic_jsonINSt3__13mapENS2_6vectorENS2_12basic_stringIcNS2_11char_traitsIcEENS2_9allocatorIcEEEEbxydS8_NS0_14adl_serializerENS4_IhNS8_IhEEEEvEC2IRA5_KcA5_cLi0EEEOT_, symObjAddr: 0x2A1F8, symBinAddr: 0x10002AFE8, symSize: 0x84 }
  - { offsetInCU: 0x4887B, offset: 0x4887B, size: 0x8, addend: 0x0, symName: __ZN8nlohmann16json_abi_v3_11_314adl_serializerIA5_cvE7to_jsonINS0_10basic_jsonINSt3__13mapENS6_6vectorENS6_12basic_stringIcNS6_11char_traitsIcEENS6_9allocatorIcEEEEbxydSC_S1_NS8_IhNSC_IhEEEEvEERA5_KcEEDTcmclL_ZNS0_7to_jsonEEfp_clsr3stdE7forwardIT0_Efp0_EEcvv_EERT_OSL_, symObjAddr: 0x2A27C, symBinAddr: 0x10002B06C, symSize: 0x34 }
  - { offsetInCU: 0x488C0, offset: 0x488C0, size: 0x8, addend: 0x0, symName: __ZNK8nlohmann16json_abi_v3_11_36detail10to_json_fnclINS0_10basic_jsonINSt3__13mapENS5_6vectorENS5_12basic_stringIcNS5_11char_traitsIcEENS5_9allocatorIcEEEEbxydSB_NS0_14adl_serializerENS7_IhNSB_IhEEEEvEERA5_KcEEDTcmcl7to_jsonfp_clsr3stdE7forwardIT0_Efp0_EEcvv_EERT_OSL_, symObjAddr: 0x2A2B0, symBinAddr: 0x10002B0A0, symSize: 0x30 }
  - { offsetInCU: 0x48916, offset: 0x48916, size: 0x8, addend: 0x0, symName: __ZN8nlohmann16json_abi_v3_11_36detail20external_constructorILNS1_7value_tE3EE9constructINS0_10basic_jsonINSt3__13mapENS7_6vectorENS7_12basic_stringIcNS7_11char_traitsIcEENS7_9allocatorIcEEEEbxydSD_NS0_14adl_serializerENS9_IhNSD_IhEEEEvEEA5_cLi0EEEvRT_RKT0_, symObjAddr: 0x2A30C, symBinAddr: 0x10002B0FC, symSize: 0x60 }
  - { offsetInCU: 0x48961, offset: 0x48961, size: 0x8, addend: 0x0, symName: __ZN8nlohmann16json_abi_v3_11_310basic_jsonINSt3__13mapENS2_6vectorENS2_12basic_stringIcNS2_11char_traitsIcEENS2_9allocatorIcEEEEbxydS8_NS0_14adl_serializerENS4_IhNS8_IhEEEEvE6createISA_JRA5_KcEEEPT_DpOT0_, symObjAddr: 0x2A36C, symBinAddr: 0x10002B15C, symSize: 0xF4 }
  - { offsetInCU: 0x48A62, offset: 0x48A62, size: 0x8, addend: 0x0, symName: __ZNSt3__110unique_ptrINS_12basic_stringIcNS_11char_traitsIcEENS_9allocatorIcEEEEZN8nlohmann16json_abi_v3_11_310basic_jsonINS_3mapENS_6vectorES6_bxydS4_NS8_14adl_serializerENSB_IhNS4_IhEEEEvE6createIS6_JRA5_KcEEEPT_DpOT0_EUlPS6_E_EC1B8ue170006ILb1EvEESP_NS_16__dependent_typeINS_27__unique_ptr_deleter_sfinaeISQ_EEXT_EE15__lval_ref_typeE, symObjAddr: 0x2A460, symBinAddr: 0x10002B250, symSize: 0x3C }
  - { offsetInCU: 0x48AB3, offset: 0x48AB3, size: 0x8, addend: 0x0, symName: __ZNSt3__116allocator_traitsINS_9allocatorINS_12basic_stringIcNS_11char_traitsIcEENS1_IcEEEEEEE9constructB8ue170006IS6_JRA5_KcEvvEEvRS7_PT_DpOT0_, symObjAddr: 0x2A49C, symBinAddr: 0x10002B28C, symSize: 0x30 }
  - { offsetInCU: 0x48B08, offset: 0x48B08, size: 0x8, addend: 0x0, symName: __ZNKSt3__110unique_ptrINS_12basic_stringIcNS_11char_traitsIcEENS_9allocatorIcEEEEZN8nlohmann16json_abi_v3_11_310basic_jsonINS_3mapENS_6vectorES6_bxydS4_NS8_14adl_serializerENSB_IhNS4_IhEEEEvE6createIS6_JRA5_KcEEEPT_DpOT0_EUlPS6_E_E3getB8ue170006Ev, symObjAddr: 0x2A4CC, symBinAddr: 0x10002B2BC, symSize: 0x28 }
  - { offsetInCU: 0x48B2E, offset: 0x48B2E, size: 0x8, addend: 0x0, symName: __ZNSt3__110unique_ptrINS_12basic_stringIcNS_11char_traitsIcEENS_9allocatorIcEEEEZN8nlohmann16json_abi_v3_11_310basic_jsonINS_3mapENS_6vectorES6_bxydS4_NS8_14adl_serializerENSB_IhNS4_IhEEEEvE6createIS6_JRA5_KcEEEPT_DpOT0_EUlPS6_E_E7releaseB8ue170006Ev, symObjAddr: 0x2A524, symBinAddr: 0x10002B314, symSize: 0x44 }
  - { offsetInCU: 0x48B63, offset: 0x48B63, size: 0x8, addend: 0x0, symName: __ZNSt3__110unique_ptrINS_12basic_stringIcNS_11char_traitsIcEENS_9allocatorIcEEEEZN8nlohmann16json_abi_v3_11_310basic_jsonINS_3mapENS_6vectorES6_bxydS4_NS8_14adl_serializerENSB_IhNS4_IhEEEEvE6createIS6_JRA5_KcEEEPT_DpOT0_EUlPS6_E_ED1B8ue170006Ev, symObjAddr: 0x2A568, symBinAddr: 0x10002B358, symSize: 0x2C }
  - { offsetInCU: 0x48B8D, offset: 0x48B8D, size: 0x8, addend: 0x0, symName: __ZNSt3__110unique_ptrINS_12basic_stringIcNS_11char_traitsIcEENS_9allocatorIcEEEEZN8nlohmann16json_abi_v3_11_310basic_jsonINS_3mapENS_6vectorES6_bxydS4_NS8_14adl_serializerENSB_IhNS4_IhEEEEvE6createIS6_JRA5_KcEEEPT_DpOT0_EUlPS6_E_EC2B8ue170006ILb1EvEESP_NS_16__dependent_typeINS_27__unique_ptr_deleter_sfinaeISQ_EEXT_EE15__lval_ref_typeE, symObjAddr: 0x2A594, symBinAddr: 0x10002B384, symSize: 0x48 }
  - { offsetInCU: 0x48BDE, offset: 0x48BDE, size: 0x8, addend: 0x0, symName: __ZNSt3__117__compressed_pairIPNS_12basic_stringIcNS_11char_traitsIcEENS_9allocatorIcEEEEZN8nlohmann16json_abi_v3_11_310basic_jsonINS_3mapENS_6vectorES6_bxydS4_NS9_14adl_serializerENSC_IhNS4_IhEEEEvE6createIS6_JRA5_KcEEEPT_DpOT0_EUlS7_E_EC1B8ue170006IRS7_RKSQ_EEOSL_OT0_, symObjAddr: 0x2A5DC, symBinAddr: 0x10002B3CC, symSize: 0x3C }
  - { offsetInCU: 0x48C36, offset: 0x48C36, size: 0x8, addend: 0x0, symName: __ZNSt3__117__compressed_pairIPNS_12basic_stringIcNS_11char_traitsIcEENS_9allocatorIcEEEEZN8nlohmann16json_abi_v3_11_310basic_jsonINS_3mapENS_6vectorES6_bxydS4_NS9_14adl_serializerENSC_IhNS4_IhEEEEvE6createIS6_JRA5_KcEEEPT_DpOT0_EUlS7_E_EC2B8ue170006IRS7_RKSQ_EEOSL_OT0_, symObjAddr: 0x2A618, symBinAddr: 0x10002B408, symSize: 0x48 }
  - { offsetInCU: 0x48C8E, offset: 0x48C8E, size: 0x8, addend: 0x0, symName: __ZNSt3__122__compressed_pair_elemIZN8nlohmann16json_abi_v3_11_310basic_jsonINS_3mapENS_6vectorENS_12basic_stringIcNS_11char_traitsIcEENS_9allocatorIcEEEEbxydS9_NS2_14adl_serializerENS5_IhNS9_IhEEEEvE6createISB_JRA5_KcEEEPT_DpOT0_EUlPSB_E_Li1ELb0EEC2B8ue170006IRKSQ_vEEOSK_, symObjAddr: 0x2A660, symBinAddr: 0x10002B450, symSize: 0x24 }
  - { offsetInCU: 0x48CD0, offset: 0x48CD0, size: 0x8, addend: 0x0, symName: __ZNKSt3__117__compressed_pairIPNS_12basic_stringIcNS_11char_traitsIcEENS_9allocatorIcEEEEZN8nlohmann16json_abi_v3_11_310basic_jsonINS_3mapENS_6vectorES6_bxydS4_NS9_14adl_serializerENSC_IhNS4_IhEEEEvE6createIS6_JRA5_KcEEEPT_DpOT0_EUlS7_E_E5firstB8ue170006Ev, symObjAddr: 0x2A6C0, symBinAddr: 0x10002B4B0, symSize: 0x24 }
  - { offsetInCU: 0x48CF6, offset: 0x48CF6, size: 0x8, addend: 0x0, symName: __ZNKSt3__110unique_ptrINS_12basic_stringIcNS_11char_traitsIcEENS_9allocatorIcEEEEZN8nlohmann16json_abi_v3_11_310basic_jsonINS_3mapENS_6vectorES6_bxydS4_NS8_14adl_serializerENSB_IhNS4_IhEEEEvE6createIS6_JRA5_KcEEEPT_DpOT0_EUlPS6_E_EcvbB8ue170006Ev, symObjAddr: 0x2A6E4, symBinAddr: 0x10002B4D4, symSize: 0x34 }
  - { offsetInCU: 0x48D1C, offset: 0x48D1C, size: 0x8, addend: 0x0, symName: __ZNSt3__117__compressed_pairIPNS_12basic_stringIcNS_11char_traitsIcEENS_9allocatorIcEEEEZN8nlohmann16json_abi_v3_11_310basic_jsonINS_3mapENS_6vectorES6_bxydS4_NS9_14adl_serializerENSC_IhNS4_IhEEEEvE6createIS6_JRA5_KcEEEPT_DpOT0_EUlS7_E_E5firstB8ue170006Ev, symObjAddr: 0x2A718, symBinAddr: 0x10002B508, symSize: 0x24 }
  - { offsetInCU: 0x48D42, offset: 0x48D42, size: 0x8, addend: 0x0, symName: __ZNSt3__110unique_ptrINS_12basic_stringIcNS_11char_traitsIcEENS_9allocatorIcEEEEZN8nlohmann16json_abi_v3_11_310basic_jsonINS_3mapENS_6vectorES6_bxydS4_NS8_14adl_serializerENSB_IhNS4_IhEEEEvE6createIS6_JRA5_KcEEEPT_DpOT0_EUlPS6_E_ED2B8ue170006Ev, symObjAddr: 0x2A73C, symBinAddr: 0x10002B52C, symSize: 0x30 }
  - { offsetInCU: 0x48D6C, offset: 0x48D6C, size: 0x8, addend: 0x0, symName: __ZNSt3__110unique_ptrINS_12basic_stringIcNS_11char_traitsIcEENS_9allocatorIcEEEEZN8nlohmann16json_abi_v3_11_310basic_jsonINS_3mapENS_6vectorES6_bxydS4_NS8_14adl_serializerENSB_IhNS4_IhEEEEvE6createIS6_JRA5_KcEEEPT_DpOT0_EUlPS6_E_E5resetB8ue170006ESP_, symObjAddr: 0x2A76C, symBinAddr: 0x10002B55C, symSize: 0x80 }
  - { offsetInCU: 0x48DB0, offset: 0x48DB0, size: 0x8, addend: 0x0, symName: __ZNSt3__117__compressed_pairIPNS_12basic_stringIcNS_11char_traitsIcEENS_9allocatorIcEEEEZN8nlohmann16json_abi_v3_11_310basic_jsonINS_3mapENS_6vectorES6_bxydS4_NS9_14adl_serializerENSC_IhNS4_IhEEEEvE6createIS6_JRA5_KcEEEPT_DpOT0_EUlS7_E_E6secondB8ue170006Ev, symObjAddr: 0x2A7EC, symBinAddr: 0x10002B5DC, symSize: 0x28 }
  - { offsetInCU: 0x48DDC, offset: 0x48DDC, size: 0x8, addend: 0x0, symName: __ZZN8nlohmann16json_abi_v3_11_310basic_jsonINSt3__13mapENS2_6vectorENS2_12basic_stringIcNS2_11char_traitsIcEENS2_9allocatorIcEEEEbxydS8_NS0_14adl_serializerENS4_IhNS8_IhEEEEvE6createISA_JRA5_KcEEEPT_DpOT0_ENKUlPSA_E_clESO_, symObjAddr: 0x2A814, symBinAddr: 0x10002B604, symSize: 0x34 }
  - { offsetInCU: 0x48E15, offset: 0x48E15, size: 0x8, addend: 0x0, symName: __ZNSt3__122__compressed_pair_elemIZN8nlohmann16json_abi_v3_11_310basic_jsonINS_3mapENS_6vectorENS_12basic_stringIcNS_11char_traitsIcEENS_9allocatorIcEEEEbxydS9_NS2_14adl_serializerENS5_IhNS9_IhEEEEvE6createISB_JRA5_KcEEEPT_DpOT0_EUlPSB_E_Li1ELb0EE5__getB8ue170006Ev, symObjAddr: 0x2A848, symBinAddr: 0x10002B638, symSize: 0x14 }
  - { offsetInCU: 0x48E3B, offset: 0x48E3B, size: 0x8, addend: 0x0, symName: __ZN8nlohmann16json_abi_v3_11_36detail8json_refINS0_10basic_jsonINSt3__13mapENS4_6vectorENS4_12basic_stringIcNS4_11char_traitsIcEENS4_9allocatorIcEEEEbxydSA_NS0_14adl_serializerENS6_IhNSA_IhEEEEvEEEC2IJRKSC_ELi0EEEDpOT_, symObjAddr: 0x2A85C, symBinAddr: 0x10002B64C, symSize: 0x38 }
  - { offsetInCU: 0x48E85, offset: 0x48E85, size: 0x8, addend: 0x0, symName: __ZN8nlohmann16json_abi_v3_11_310basic_jsonINSt3__13mapENS2_6vectorENS2_12basic_stringIcNS2_11char_traitsIcEENS2_9allocatorIcEEEEbxydS8_NS0_14adl_serializerENS4_IhNS8_IhEEEEvEC1IRKSA_SA_Li0EEEOT_, symObjAddr: 0x2A894, symBinAddr: 0x10002B684, symSize: 0x34 }
  - { offsetInCU: 0x48ED6, offset: 0x48ED6, size: 0x8, addend: 0x0, symName: __ZN8nlohmann16json_abi_v3_11_310basic_jsonINSt3__13mapENS2_6vectorENS2_12basic_stringIcNS2_11char_traitsIcEENS2_9allocatorIcEEEEbxydS8_NS0_14adl_serializerENS4_IhNS8_IhEEEEvEC2IRKSA_SA_Li0EEEOT_, symObjAddr: 0x2A8C8, symBinAddr: 0x10002B6B8, symSize: 0x84 }
  - { offsetInCU: 0x48F27, offset: 0x48F27, size: 0x8, addend: 0x0, symName: __ZN8nlohmann16json_abi_v3_11_314adl_serializerINSt3__112basic_stringIcNS2_11char_traitsIcEENS2_9allocatorIcEEEEvE7to_jsonINS0_10basic_jsonINS2_3mapENS2_6vectorES8_bxydS6_S1_NSD_IhNS6_IhEEEEvEERKS8_EEDTcmclL_ZNS0_7to_jsonEEfp_clsr3stdE7forwardIT0_Efp0_EEcvv_EERT_OSJ_, symObjAddr: 0x2A94C, symBinAddr: 0x10002B73C, symSize: 0x34 }
  - { offsetInCU: 0x48F6C, offset: 0x48F6C, size: 0x8, addend: 0x0, symName: __ZNK8nlohmann16json_abi_v3_11_36detail10to_json_fnclINS0_10basic_jsonINSt3__13mapENS5_6vectorENS5_12basic_stringIcNS5_11char_traitsIcEENS5_9allocatorIcEEEEbxydSB_NS0_14adl_serializerENS7_IhNSB_IhEEEEvEERKSD_EEDTcmcl7to_jsonfp_clsr3stdE7forwardIT0_Efp0_EEcvv_EERT_OSK_, symObjAddr: 0x2A980, symBinAddr: 0x10002B770, symSize: 0x30 }
  - { offsetInCU: 0x48FC2, offset: 0x48FC2, size: 0x8, addend: 0x0, symName: __ZN8nlohmann16json_abi_v3_11_36detail20external_constructorILNS1_7value_tE3EE9constructINS0_10basic_jsonINSt3__13mapENS7_6vectorENS7_12basic_stringIcNS7_11char_traitsIcEENS7_9allocatorIcEEEEbxydSD_NS0_14adl_serializerENS9_IhNSD_IhEEEEvEEEEvRT_RKNSK_8string_tE, symObjAddr: 0x2A9DC, symBinAddr: 0x10002B7CC, symSize: 0x68 }
  - { offsetInCU: 0x48FFE, offset: 0x48FFE, size: 0x8, addend: 0x0, symName: __ZN8nlohmann16json_abi_v3_11_310basic_jsonINSt3__13mapENS2_6vectorENS2_12basic_stringIcNS2_11char_traitsIcEENS2_9allocatorIcEEEEbxydS8_NS0_14adl_serializerENS4_IhNS8_IhEEEEvE10json_valueC1ERKSA_, symObjAddr: 0x2AA44, symBinAddr: 0x10002B834, symSize: 0x34 }
  - { offsetInCU: 0x49037, offset: 0x49037, size: 0x8, addend: 0x0, symName: __ZN8nlohmann16json_abi_v3_11_310basic_jsonINSt3__13mapENS2_6vectorENS2_12basic_stringIcNS2_11char_traitsIcEENS2_9allocatorIcEEEEbxydS8_NS0_14adl_serializerENS4_IhNS8_IhEEEEvE10json_valueC2ERKSA_, symObjAddr: 0x2AA78, symBinAddr: 0x10002B868, symSize: 0x3C }
  - { offsetInCU: 0x49070, offset: 0x49070, size: 0x8, addend: 0x0, symName: __ZN8nlohmann16json_abi_v3_11_310basic_jsonINSt3__13mapENS2_6vectorENS2_12basic_stringIcNS2_11char_traitsIcEENS2_9allocatorIcEEEEbxydS8_NS0_14adl_serializerENS4_IhNS8_IhEEEEvE6createISA_JRKSA_EEEPT_DpOT0_, symObjAddr: 0x2AAB4, symBinAddr: 0x10002B8A4, symSize: 0xF4 }
  - { offsetInCU: 0x49171, offset: 0x49171, size: 0x8, addend: 0x0, symName: __ZNSt3__110unique_ptrINS_12basic_stringIcNS_11char_traitsIcEENS_9allocatorIcEEEEZN8nlohmann16json_abi_v3_11_310basic_jsonINS_3mapENS_6vectorES6_bxydS4_NS8_14adl_serializerENSB_IhNS4_IhEEEEvE6createIS6_JRKS6_EEEPT_DpOT0_EUlPS6_E_EC1B8ue170006ILb1EvEESO_NS_16__dependent_typeINS_27__unique_ptr_deleter_sfinaeISP_EEXT_EE15__lval_ref_typeE, symObjAddr: 0x2ABA8, symBinAddr: 0x10002B998, symSize: 0x3C }
  - { offsetInCU: 0x491C2, offset: 0x491C2, size: 0x8, addend: 0x0, symName: __ZNSt3__116allocator_traitsINS_9allocatorINS_12basic_stringIcNS_11char_traitsIcEENS1_IcEEEEEEE9constructB8ue170006IS6_JRKS6_EvvEEvRS7_PT_DpOT0_, symObjAddr: 0x2ABE4, symBinAddr: 0x10002B9D4, symSize: 0x30 }
  - { offsetInCU: 0x49217, offset: 0x49217, size: 0x8, addend: 0x0, symName: __ZNKSt3__110unique_ptrINS_12basic_stringIcNS_11char_traitsIcEENS_9allocatorIcEEEEZN8nlohmann16json_abi_v3_11_310basic_jsonINS_3mapENS_6vectorES6_bxydS4_NS8_14adl_serializerENSB_IhNS4_IhEEEEvE6createIS6_JRKS6_EEEPT_DpOT0_EUlPS6_E_E3getB8ue170006Ev, symObjAddr: 0x2AC14, symBinAddr: 0x10002BA04, symSize: 0x28 }
  - { offsetInCU: 0x4923D, offset: 0x4923D, size: 0x8, addend: 0x0, symName: __ZNSt3__110unique_ptrINS_12basic_stringIcNS_11char_traitsIcEENS_9allocatorIcEEEEZN8nlohmann16json_abi_v3_11_310basic_jsonINS_3mapENS_6vectorES6_bxydS4_NS8_14adl_serializerENSB_IhNS4_IhEEEEvE6createIS6_JRKS6_EEEPT_DpOT0_EUlPS6_E_E7releaseB8ue170006Ev, symObjAddr: 0x2AC6C, symBinAddr: 0x10002BA5C, symSize: 0x44 }
  - { offsetInCU: 0x49272, offset: 0x49272, size: 0x8, addend: 0x0, symName: __ZNSt3__110unique_ptrINS_12basic_stringIcNS_11char_traitsIcEENS_9allocatorIcEEEEZN8nlohmann16json_abi_v3_11_310basic_jsonINS_3mapENS_6vectorES6_bxydS4_NS8_14adl_serializerENSB_IhNS4_IhEEEEvE6createIS6_JRKS6_EEEPT_DpOT0_EUlPS6_E_ED1B8ue170006Ev, symObjAddr: 0x2ACB0, symBinAddr: 0x10002BAA0, symSize: 0x2C }
  - { offsetInCU: 0x4929C, offset: 0x4929C, size: 0x8, addend: 0x0, symName: __ZNSt3__110unique_ptrINS_12basic_stringIcNS_11char_traitsIcEENS_9allocatorIcEEEEZN8nlohmann16json_abi_v3_11_310basic_jsonINS_3mapENS_6vectorES6_bxydS4_NS8_14adl_serializerENSB_IhNS4_IhEEEEvE6createIS6_JRKS6_EEEPT_DpOT0_EUlPS6_E_EC2B8ue170006ILb1EvEESO_NS_16__dependent_typeINS_27__unique_ptr_deleter_sfinaeISP_EEXT_EE15__lval_ref_typeE, symObjAddr: 0x2ACDC, symBinAddr: 0x10002BACC, symSize: 0x48 }
  - { offsetInCU: 0x492ED, offset: 0x492ED, size: 0x8, addend: 0x0, symName: __ZNSt3__117__compressed_pairIPNS_12basic_stringIcNS_11char_traitsIcEENS_9allocatorIcEEEEZN8nlohmann16json_abi_v3_11_310basic_jsonINS_3mapENS_6vectorES6_bxydS4_NS9_14adl_serializerENSC_IhNS4_IhEEEEvE6createIS6_JRKS6_EEEPT_DpOT0_EUlS7_E_EC1B8ue170006IRS7_RKSP_EEOSK_OT0_, symObjAddr: 0x2AD24, symBinAddr: 0x10002BB14, symSize: 0x3C }
  - { offsetInCU: 0x49345, offset: 0x49345, size: 0x8, addend: 0x0, symName: __ZNSt3__117__compressed_pairIPNS_12basic_stringIcNS_11char_traitsIcEENS_9allocatorIcEEEEZN8nlohmann16json_abi_v3_11_310basic_jsonINS_3mapENS_6vectorES6_bxydS4_NS9_14adl_serializerENSC_IhNS4_IhEEEEvE6createIS6_JRKS6_EEEPT_DpOT0_EUlS7_E_EC2B8ue170006IRS7_RKSP_EEOSK_OT0_, symObjAddr: 0x2AD60, symBinAddr: 0x10002BB50, symSize: 0x48 }
  - { offsetInCU: 0x4939D, offset: 0x4939D, size: 0x8, addend: 0x0, symName: __ZNSt3__122__compressed_pair_elemIZN8nlohmann16json_abi_v3_11_310basic_jsonINS_3mapENS_6vectorENS_12basic_stringIcNS_11char_traitsIcEENS_9allocatorIcEEEEbxydS9_NS2_14adl_serializerENS5_IhNS9_IhEEEEvE6createISB_JRKSB_EEEPT_DpOT0_EUlPSB_E_Li1ELb0EEC2B8ue170006IRKSP_vEEOSJ_, symObjAddr: 0x2ADA8, symBinAddr: 0x10002BB98, symSize: 0x24 }
  - { offsetInCU: 0x493DF, offset: 0x493DF, size: 0x8, addend: 0x0, symName: __ZNKSt3__117__compressed_pairIPNS_12basic_stringIcNS_11char_traitsIcEENS_9allocatorIcEEEEZN8nlohmann16json_abi_v3_11_310basic_jsonINS_3mapENS_6vectorES6_bxydS4_NS9_14adl_serializerENSC_IhNS4_IhEEEEvE6createIS6_JRKS6_EEEPT_DpOT0_EUlS7_E_E5firstB8ue170006Ev, symObjAddr: 0x2AE08, symBinAddr: 0x10002BBF8, symSize: 0x24 }
  - { offsetInCU: 0x49405, offset: 0x49405, size: 0x8, addend: 0x0, symName: __ZNKSt3__110unique_ptrINS_12basic_stringIcNS_11char_traitsIcEENS_9allocatorIcEEEEZN8nlohmann16json_abi_v3_11_310basic_jsonINS_3mapENS_6vectorES6_bxydS4_NS8_14adl_serializerENSB_IhNS4_IhEEEEvE6createIS6_JRKS6_EEEPT_DpOT0_EUlPS6_E_EcvbB8ue170006Ev, symObjAddr: 0x2AE2C, symBinAddr: 0x10002BC1C, symSize: 0x34 }
  - { offsetInCU: 0x4942B, offset: 0x4942B, size: 0x8, addend: 0x0, symName: __ZNSt3__117__compressed_pairIPNS_12basic_stringIcNS_11char_traitsIcEENS_9allocatorIcEEEEZN8nlohmann16json_abi_v3_11_310basic_jsonINS_3mapENS_6vectorES6_bxydS4_NS9_14adl_serializerENSC_IhNS4_IhEEEEvE6createIS6_JRKS6_EEEPT_DpOT0_EUlS7_E_E5firstB8ue170006Ev, symObjAddr: 0x2AE60, symBinAddr: 0x10002BC50, symSize: 0x24 }
  - { offsetInCU: 0x49451, offset: 0x49451, size: 0x8, addend: 0x0, symName: __ZNSt3__110unique_ptrINS_12basic_stringIcNS_11char_traitsIcEENS_9allocatorIcEEEEZN8nlohmann16json_abi_v3_11_310basic_jsonINS_3mapENS_6vectorES6_bxydS4_NS8_14adl_serializerENSB_IhNS4_IhEEEEvE6createIS6_JRKS6_EEEPT_DpOT0_EUlPS6_E_ED2B8ue170006Ev, symObjAddr: 0x2AE84, symBinAddr: 0x10002BC74, symSize: 0x30 }
  - { offsetInCU: 0x4947B, offset: 0x4947B, size: 0x8, addend: 0x0, symName: __ZNSt3__110unique_ptrINS_12basic_stringIcNS_11char_traitsIcEENS_9allocatorIcEEEEZN8nlohmann16json_abi_v3_11_310basic_jsonINS_3mapENS_6vectorES6_bxydS4_NS8_14adl_serializerENSB_IhNS4_IhEEEEvE6createIS6_JRKS6_EEEPT_DpOT0_EUlPS6_E_E5resetB8ue170006ESO_, symObjAddr: 0x2AEB4, symBinAddr: 0x10002BCA4, symSize: 0x80 }
  - { offsetInCU: 0x494BF, offset: 0x494BF, size: 0x8, addend: 0x0, symName: __ZNSt3__117__compressed_pairIPNS_12basic_stringIcNS_11char_traitsIcEENS_9allocatorIcEEEEZN8nlohmann16json_abi_v3_11_310basic_jsonINS_3mapENS_6vectorES6_bxydS4_NS9_14adl_serializerENSC_IhNS4_IhEEEEvE6createIS6_JRKS6_EEEPT_DpOT0_EUlS7_E_E6secondB8ue170006Ev, symObjAddr: 0x2AF34, symBinAddr: 0x10002BD24, symSize: 0x28 }
  - { offsetInCU: 0x494EB, offset: 0x494EB, size: 0x8, addend: 0x0, symName: __ZZN8nlohmann16json_abi_v3_11_310basic_jsonINSt3__13mapENS2_6vectorENS2_12basic_stringIcNS2_11char_traitsIcEENS2_9allocatorIcEEEEbxydS8_NS0_14adl_serializerENS4_IhNS8_IhEEEEvE6createISA_JRKSA_EEEPT_DpOT0_ENKUlPSA_E_clESN_, symObjAddr: 0x2AF5C, symBinAddr: 0x10002BD4C, symSize: 0x34 }
  - { offsetInCU: 0x49524, offset: 0x49524, size: 0x8, addend: 0x0, symName: __ZNSt3__122__compressed_pair_elemIZN8nlohmann16json_abi_v3_11_310basic_jsonINS_3mapENS_6vectorENS_12basic_stringIcNS_11char_traitsIcEENS_9allocatorIcEEEEbxydS9_NS2_14adl_serializerENS5_IhNS9_IhEEEEvE6createISB_JRKSB_EEEPT_DpOT0_EUlPSB_E_Li1ELb0EE5__getB8ue170006Ev, symObjAddr: 0x2AF90, symBinAddr: 0x10002BD80, symSize: 0x14 }
  - { offsetInCU: 0x4954A, offset: 0x4954A, size: 0x8, addend: 0x0, symName: __ZN8nlohmann16json_abi_v3_11_36detail8json_refINS0_10basic_jsonINSt3__13mapENS4_6vectorENS4_12basic_stringIcNS4_11char_traitsIcEENS4_9allocatorIcEEEEbxydSA_NS0_14adl_serializerENS6_IhNSA_IhEEEEvEEEC2IJRA10_KcELi0EEEDpOT_, symObjAddr: 0x2AFA4, symBinAddr: 0x10002BD94, symSize: 0x38 }
  - { offsetInCU: 0x49594, offset: 0x49594, size: 0x8, addend: 0x0, symName: __ZN8nlohmann16json_abi_v3_11_310basic_jsonINSt3__13mapENS2_6vectorENS2_12basic_stringIcNS2_11char_traitsIcEENS2_9allocatorIcEEEEbxydS8_NS0_14adl_serializerENS4_IhNS8_IhEEEEvEC1IRA10_KcA10_cLi0EEEOT_, symObjAddr: 0x2AFDC, symBinAddr: 0x10002BDCC, symSize: 0x34 }
  - { offsetInCU: 0x495E5, offset: 0x495E5, size: 0x8, addend: 0x0, symName: __ZN8nlohmann16json_abi_v3_11_310basic_jsonINSt3__13mapENS2_6vectorENS2_12basic_stringIcNS2_11char_traitsIcEENS2_9allocatorIcEEEEbxydS8_NS0_14adl_serializerENS4_IhNS8_IhEEEEvEC2IRA10_KcA10_cLi0EEEOT_, symObjAddr: 0x2B010, symBinAddr: 0x10002BE00, symSize: 0x84 }
  - { offsetInCU: 0x49636, offset: 0x49636, size: 0x8, addend: 0x0, symName: __ZN8nlohmann16json_abi_v3_11_314adl_serializerIA10_cvE7to_jsonINS0_10basic_jsonINSt3__13mapENS6_6vectorENS6_12basic_stringIcNS6_11char_traitsIcEENS6_9allocatorIcEEEEbxydSC_S1_NS8_IhNSC_IhEEEEvEERA10_KcEEDTcmclL_ZNS0_7to_jsonEEfp_clsr3stdE7forwardIT0_Efp0_EEcvv_EERT_OSL_, symObjAddr: 0x2B094, symBinAddr: 0x10002BE84, symSize: 0x34 }
  - { offsetInCU: 0x4967B, offset: 0x4967B, size: 0x8, addend: 0x0, symName: __ZNK8nlohmann16json_abi_v3_11_36detail10to_json_fnclINS0_10basic_jsonINSt3__13mapENS5_6vectorENS5_12basic_stringIcNS5_11char_traitsIcEENS5_9allocatorIcEEEEbxydSB_NS0_14adl_serializerENS7_IhNSB_IhEEEEvEERA10_KcEEDTcmcl7to_jsonfp_clsr3stdE7forwardIT0_Efp0_EEcvv_EERT_OSL_, symObjAddr: 0x2B0C8, symBinAddr: 0x10002BEB8, symSize: 0x30 }
  - { offsetInCU: 0x496D1, offset: 0x496D1, size: 0x8, addend: 0x0, symName: __ZN8nlohmann16json_abi_v3_11_36detail20external_constructorILNS1_7value_tE3EE9constructINS0_10basic_jsonINSt3__13mapENS7_6vectorENS7_12basic_stringIcNS7_11char_traitsIcEENS7_9allocatorIcEEEEbxydSD_NS0_14adl_serializerENS9_IhNSD_IhEEEEvEEA10_cLi0EEEvRT_RKT0_, symObjAddr: 0x2B124, symBinAddr: 0x10002BF14, symSize: 0x60 }
  - { offsetInCU: 0x4971C, offset: 0x4971C, size: 0x8, addend: 0x0, symName: __ZN8nlohmann16json_abi_v3_11_310basic_jsonINSt3__13mapENS2_6vectorENS2_12basic_stringIcNS2_11char_traitsIcEENS2_9allocatorIcEEEEbxydS8_NS0_14adl_serializerENS4_IhNS8_IhEEEEvE6createISA_JRA10_KcEEEPT_DpOT0_, symObjAddr: 0x2B184, symBinAddr: 0x10002BF74, symSize: 0xF4 }
  - { offsetInCU: 0x4981D, offset: 0x4981D, size: 0x8, addend: 0x0, symName: __ZNSt3__110unique_ptrINS_12basic_stringIcNS_11char_traitsIcEENS_9allocatorIcEEEEZN8nlohmann16json_abi_v3_11_310basic_jsonINS_3mapENS_6vectorES6_bxydS4_NS8_14adl_serializerENSB_IhNS4_IhEEEEvE6createIS6_JRA10_KcEEEPT_DpOT0_EUlPS6_E_EC1B8ue170006ILb1EvEESP_NS_16__dependent_typeINS_27__unique_ptr_deleter_sfinaeISQ_EEXT_EE15__lval_ref_typeE, symObjAddr: 0x2B278, symBinAddr: 0x10002C068, symSize: 0x3C }
  - { offsetInCU: 0x4986E, offset: 0x4986E, size: 0x8, addend: 0x0, symName: __ZNSt3__116allocator_traitsINS_9allocatorINS_12basic_stringIcNS_11char_traitsIcEENS1_IcEEEEEEE9constructB8ue170006IS6_JRA10_KcEvvEEvRS7_PT_DpOT0_, symObjAddr: 0x2B2B4, symBinAddr: 0x10002C0A4, symSize: 0x30 }
  - { offsetInCU: 0x498C3, offset: 0x498C3, size: 0x8, addend: 0x0, symName: __ZNKSt3__110unique_ptrINS_12basic_stringIcNS_11char_traitsIcEENS_9allocatorIcEEEEZN8nlohmann16json_abi_v3_11_310basic_jsonINS_3mapENS_6vectorES6_bxydS4_NS8_14adl_serializerENSB_IhNS4_IhEEEEvE6createIS6_JRA10_KcEEEPT_DpOT0_EUlPS6_E_E3getB8ue170006Ev, symObjAddr: 0x2B2E4, symBinAddr: 0x10002C0D4, symSize: 0x28 }
  - { offsetInCU: 0x498E9, offset: 0x498E9, size: 0x8, addend: 0x0, symName: __ZNSt3__110unique_ptrINS_12basic_stringIcNS_11char_traitsIcEENS_9allocatorIcEEEEZN8nlohmann16json_abi_v3_11_310basic_jsonINS_3mapENS_6vectorES6_bxydS4_NS8_14adl_serializerENSB_IhNS4_IhEEEEvE6createIS6_JRA10_KcEEEPT_DpOT0_EUlPS6_E_E7releaseB8ue170006Ev, symObjAddr: 0x2B33C, symBinAddr: 0x10002C12C, symSize: 0x44 }
  - { offsetInCU: 0x4991E, offset: 0x4991E, size: 0x8, addend: 0x0, symName: __ZNSt3__110unique_ptrINS_12basic_stringIcNS_11char_traitsIcEENS_9allocatorIcEEEEZN8nlohmann16json_abi_v3_11_310basic_jsonINS_3mapENS_6vectorES6_bxydS4_NS8_14adl_serializerENSB_IhNS4_IhEEEEvE6createIS6_JRA10_KcEEEPT_DpOT0_EUlPS6_E_ED1B8ue170006Ev, symObjAddr: 0x2B380, symBinAddr: 0x10002C170, symSize: 0x2C }
  - { offsetInCU: 0x49948, offset: 0x49948, size: 0x8, addend: 0x0, symName: __ZNSt3__110unique_ptrINS_12basic_stringIcNS_11char_traitsIcEENS_9allocatorIcEEEEZN8nlohmann16json_abi_v3_11_310basic_jsonINS_3mapENS_6vectorES6_bxydS4_NS8_14adl_serializerENSB_IhNS4_IhEEEEvE6createIS6_JRA10_KcEEEPT_DpOT0_EUlPS6_E_EC2B8ue170006ILb1EvEESP_NS_16__dependent_typeINS_27__unique_ptr_deleter_sfinaeISQ_EEXT_EE15__lval_ref_typeE, symObjAddr: 0x2B3AC, symBinAddr: 0x10002C19C, symSize: 0x48 }
  - { offsetInCU: 0x49999, offset: 0x49999, size: 0x8, addend: 0x0, symName: __ZNSt3__117__compressed_pairIPNS_12basic_stringIcNS_11char_traitsIcEENS_9allocatorIcEEEEZN8nlohmann16json_abi_v3_11_310basic_jsonINS_3mapENS_6vectorES6_bxydS4_NS9_14adl_serializerENSC_IhNS4_IhEEEEvE6createIS6_JRA10_KcEEEPT_DpOT0_EUlS7_E_EC1B8ue170006IRS7_RKSQ_EEOSL_OT0_, symObjAddr: 0x2B3F4, symBinAddr: 0x10002C1E4, symSize: 0x3C }
  - { offsetInCU: 0x499F1, offset: 0x499F1, size: 0x8, addend: 0x0, symName: __ZNSt3__117__compressed_pairIPNS_12basic_stringIcNS_11char_traitsIcEENS_9allocatorIcEEEEZN8nlohmann16json_abi_v3_11_310basic_jsonINS_3mapENS_6vectorES6_bxydS4_NS9_14adl_serializerENSC_IhNS4_IhEEEEvE6createIS6_JRA10_KcEEEPT_DpOT0_EUlS7_E_EC2B8ue170006IRS7_RKSQ_EEOSL_OT0_, symObjAddr: 0x2B430, symBinAddr: 0x10002C220, symSize: 0x48 }
  - { offsetInCU: 0x49A49, offset: 0x49A49, size: 0x8, addend: 0x0, symName: __ZNSt3__122__compressed_pair_elemIZN8nlohmann16json_abi_v3_11_310basic_jsonINS_3mapENS_6vectorENS_12basic_stringIcNS_11char_traitsIcEENS_9allocatorIcEEEEbxydS9_NS2_14adl_serializerENS5_IhNS9_IhEEEEvE6createISB_JRA10_KcEEEPT_DpOT0_EUlPSB_E_Li1ELb0EEC2B8ue170006IRKSQ_vEEOSK_, symObjAddr: 0x2B478, symBinAddr: 0x10002C268, symSize: 0x24 }
  - { offsetInCU: 0x49A8B, offset: 0x49A8B, size: 0x8, addend: 0x0, symName: __ZNKSt3__117__compressed_pairIPNS_12basic_stringIcNS_11char_traitsIcEENS_9allocatorIcEEEEZN8nlohmann16json_abi_v3_11_310basic_jsonINS_3mapENS_6vectorES6_bxydS4_NS9_14adl_serializerENSC_IhNS4_IhEEEEvE6createIS6_JRA10_KcEEEPT_DpOT0_EUlS7_E_E5firstB8ue170006Ev, symObjAddr: 0x2B4D8, symBinAddr: 0x10002C2C8, symSize: 0x24 }
  - { offsetInCU: 0x49AB1, offset: 0x49AB1, size: 0x8, addend: 0x0, symName: __ZNKSt3__110unique_ptrINS_12basic_stringIcNS_11char_traitsIcEENS_9allocatorIcEEEEZN8nlohmann16json_abi_v3_11_310basic_jsonINS_3mapENS_6vectorES6_bxydS4_NS8_14adl_serializerENSB_IhNS4_IhEEEEvE6createIS6_JRA10_KcEEEPT_DpOT0_EUlPS6_E_EcvbB8ue170006Ev, symObjAddr: 0x2B4FC, symBinAddr: 0x10002C2EC, symSize: 0x34 }
  - { offsetInCU: 0x49AD7, offset: 0x49AD7, size: 0x8, addend: 0x0, symName: __ZNSt3__117__compressed_pairIPNS_12basic_stringIcNS_11char_traitsIcEENS_9allocatorIcEEEEZN8nlohmann16json_abi_v3_11_310basic_jsonINS_3mapENS_6vectorES6_bxydS4_NS9_14adl_serializerENSC_IhNS4_IhEEEEvE6createIS6_JRA10_KcEEEPT_DpOT0_EUlS7_E_E5firstB8ue170006Ev, symObjAddr: 0x2B530, symBinAddr: 0x10002C320, symSize: 0x24 }
  - { offsetInCU: 0x49AFD, offset: 0x49AFD, size: 0x8, addend: 0x0, symName: __ZNSt3__110unique_ptrINS_12basic_stringIcNS_11char_traitsIcEENS_9allocatorIcEEEEZN8nlohmann16json_abi_v3_11_310basic_jsonINS_3mapENS_6vectorES6_bxydS4_NS8_14adl_serializerENSB_IhNS4_IhEEEEvE6createIS6_JRA10_KcEEEPT_DpOT0_EUlPS6_E_ED2B8ue170006Ev, symObjAddr: 0x2B554, symBinAddr: 0x10002C344, symSize: 0x30 }
  - { offsetInCU: 0x49B27, offset: 0x49B27, size: 0x8, addend: 0x0, symName: __ZNSt3__110unique_ptrINS_12basic_stringIcNS_11char_traitsIcEENS_9allocatorIcEEEEZN8nlohmann16json_abi_v3_11_310basic_jsonINS_3mapENS_6vectorES6_bxydS4_NS8_14adl_serializerENSB_IhNS4_IhEEEEvE6createIS6_JRA10_KcEEEPT_DpOT0_EUlPS6_E_E5resetB8ue170006ESP_, symObjAddr: 0x2B584, symBinAddr: 0x10002C374, symSize: 0x80 }
  - { offsetInCU: 0x49B6B, offset: 0x49B6B, size: 0x8, addend: 0x0, symName: __ZNSt3__117__compressed_pairIPNS_12basic_stringIcNS_11char_traitsIcEENS_9allocatorIcEEEEZN8nlohmann16json_abi_v3_11_310basic_jsonINS_3mapENS_6vectorES6_bxydS4_NS9_14adl_serializerENSC_IhNS4_IhEEEEvE6createIS6_JRA10_KcEEEPT_DpOT0_EUlS7_E_E6secondB8ue170006Ev, symObjAddr: 0x2B604, symBinAddr: 0x10002C3F4, symSize: 0x28 }
  - { offsetInCU: 0x49B97, offset: 0x49B97, size: 0x8, addend: 0x0, symName: __ZZN8nlohmann16json_abi_v3_11_310basic_jsonINSt3__13mapENS2_6vectorENS2_12basic_stringIcNS2_11char_traitsIcEENS2_9allocatorIcEEEEbxydS8_NS0_14adl_serializerENS4_IhNS8_IhEEEEvE6createISA_JRA10_KcEEEPT_DpOT0_ENKUlPSA_E_clESO_, symObjAddr: 0x2B62C, symBinAddr: 0x10002C41C, symSize: 0x34 }
  - { offsetInCU: 0x49BD0, offset: 0x49BD0, size: 0x8, addend: 0x0, symName: __ZNSt3__122__compressed_pair_elemIZN8nlohmann16json_abi_v3_11_310basic_jsonINS_3mapENS_6vectorENS_12basic_stringIcNS_11char_traitsIcEENS_9allocatorIcEEEEbxydS9_NS2_14adl_serializerENS5_IhNS9_IhEEEEvE6createISB_JRA10_KcEEEPT_DpOT0_EUlPSB_E_Li1ELb0EE5__getB8ue170006Ev, symObjAddr: 0x2B660, symBinAddr: 0x10002C450, symSize: 0x14 }
  - { offsetInCU: 0x49BF6, offset: 0x49BF6, size: 0x8, addend: 0x0, symName: __ZN8nlohmann16json_abi_v3_11_36detail8json_refINS0_10basic_jsonINSt3__13mapENS4_6vectorENS4_12basic_stringIcNS4_11char_traitsIcEENS4_9allocatorIcEEEEbxydSA_NS0_14adl_serializerENS6_IhNSA_IhEEEEvEEEC2IJRA9_KcELi0EEEDpOT_, symObjAddr: 0x2B674, symBinAddr: 0x10002C464, symSize: 0x38 }
  - { offsetInCU: 0x49C40, offset: 0x49C40, size: 0x8, addend: 0x0, symName: __ZN8nlohmann16json_abi_v3_11_310basic_jsonINSt3__13mapENS2_6vectorENS2_12basic_stringIcNS2_11char_traitsIcEENS2_9allocatorIcEEEEbxydS8_NS0_14adl_serializerENS4_IhNS8_IhEEEEvEC1IRA9_KcA9_cLi0EEEOT_, symObjAddr: 0x2B6AC, symBinAddr: 0x10002C49C, symSize: 0x34 }
  - { offsetInCU: 0x49C91, offset: 0x49C91, size: 0x8, addend: 0x0, symName: __ZN8nlohmann16json_abi_v3_11_310basic_jsonINSt3__13mapENS2_6vectorENS2_12basic_stringIcNS2_11char_traitsIcEENS2_9allocatorIcEEEEbxydS8_NS0_14adl_serializerENS4_IhNS8_IhEEEEvEC2IRA9_KcA9_cLi0EEEOT_, symObjAddr: 0x2B6E0, symBinAddr: 0x10002C4D0, symSize: 0x84 }
  - { offsetInCU: 0x49CE2, offset: 0x49CE2, size: 0x8, addend: 0x0, symName: __ZN8nlohmann16json_abi_v3_11_314adl_serializerIA9_cvE7to_jsonINS0_10basic_jsonINSt3__13mapENS6_6vectorENS6_12basic_stringIcNS6_11char_traitsIcEENS6_9allocatorIcEEEEbxydSC_S1_NS8_IhNSC_IhEEEEvEERA9_KcEEDTcmclL_ZNS0_7to_jsonEEfp_clsr3stdE7forwardIT0_Efp0_EEcvv_EERT_OSL_, symObjAddr: 0x2B764, symBinAddr: 0x10002C554, symSize: 0x34 }
  - { offsetInCU: 0x49D27, offset: 0x49D27, size: 0x8, addend: 0x0, symName: __ZNK8nlohmann16json_abi_v3_11_36detail10to_json_fnclINS0_10basic_jsonINSt3__13mapENS5_6vectorENS5_12basic_stringIcNS5_11char_traitsIcEENS5_9allocatorIcEEEEbxydSB_NS0_14adl_serializerENS7_IhNSB_IhEEEEvEERA9_KcEEDTcmcl7to_jsonfp_clsr3stdE7forwardIT0_Efp0_EEcvv_EERT_OSL_, symObjAddr: 0x2B798, symBinAddr: 0x10002C588, symSize: 0x30 }
  - { offsetInCU: 0x49D7D, offset: 0x49D7D, size: 0x8, addend: 0x0, symName: __ZN8nlohmann16json_abi_v3_11_36detail20external_constructorILNS1_7value_tE3EE9constructINS0_10basic_jsonINSt3__13mapENS7_6vectorENS7_12basic_stringIcNS7_11char_traitsIcEENS7_9allocatorIcEEEEbxydSD_NS0_14adl_serializerENS9_IhNSD_IhEEEEvEEA9_cLi0EEEvRT_RKT0_, symObjAddr: 0x2B7F4, symBinAddr: 0x10002C5E4, symSize: 0x60 }
  - { offsetInCU: 0x49DC8, offset: 0x49DC8, size: 0x8, addend: 0x0, symName: __ZN8nlohmann16json_abi_v3_11_310basic_jsonINSt3__13mapENS2_6vectorENS2_12basic_stringIcNS2_11char_traitsIcEENS2_9allocatorIcEEEEbxydS8_NS0_14adl_serializerENS4_IhNS8_IhEEEEvE6createISA_JRA9_KcEEEPT_DpOT0_, symObjAddr: 0x2B854, symBinAddr: 0x10002C644, symSize: 0xF4 }
  - { offsetInCU: 0x49EC9, offset: 0x49EC9, size: 0x8, addend: 0x0, symName: __ZNSt3__110unique_ptrINS_12basic_stringIcNS_11char_traitsIcEENS_9allocatorIcEEEEZN8nlohmann16json_abi_v3_11_310basic_jsonINS_3mapENS_6vectorES6_bxydS4_NS8_14adl_serializerENSB_IhNS4_IhEEEEvE6createIS6_JRA9_KcEEEPT_DpOT0_EUlPS6_E_EC1B8ue170006ILb1EvEESP_NS_16__dependent_typeINS_27__unique_ptr_deleter_sfinaeISQ_EEXT_EE15__lval_ref_typeE, symObjAddr: 0x2B948, symBinAddr: 0x10002C738, symSize: 0x3C }
  - { offsetInCU: 0x49F1A, offset: 0x49F1A, size: 0x8, addend: 0x0, symName: __ZNSt3__116allocator_traitsINS_9allocatorINS_12basic_stringIcNS_11char_traitsIcEENS1_IcEEEEEEE9constructB8ue170006IS6_JRA9_KcEvvEEvRS7_PT_DpOT0_, symObjAddr: 0x2B984, symBinAddr: 0x10002C774, symSize: 0x30 }
  - { offsetInCU: 0x49F6F, offset: 0x49F6F, size: 0x8, addend: 0x0, symName: __ZNKSt3__110unique_ptrINS_12basic_stringIcNS_11char_traitsIcEENS_9allocatorIcEEEEZN8nlohmann16json_abi_v3_11_310basic_jsonINS_3mapENS_6vectorES6_bxydS4_NS8_14adl_serializerENSB_IhNS4_IhEEEEvE6createIS6_JRA9_KcEEEPT_DpOT0_EUlPS6_E_E3getB8ue170006Ev, symObjAddr: 0x2B9B4, symBinAddr: 0x10002C7A4, symSize: 0x28 }
  - { offsetInCU: 0x49F95, offset: 0x49F95, size: 0x8, addend: 0x0, symName: __ZNSt3__110unique_ptrINS_12basic_stringIcNS_11char_traitsIcEENS_9allocatorIcEEEEZN8nlohmann16json_abi_v3_11_310basic_jsonINS_3mapENS_6vectorES6_bxydS4_NS8_14adl_serializerENSB_IhNS4_IhEEEEvE6createIS6_JRA9_KcEEEPT_DpOT0_EUlPS6_E_E7releaseB8ue170006Ev, symObjAddr: 0x2BA0C, symBinAddr: 0x10002C7FC, symSize: 0x44 }
  - { offsetInCU: 0x49FCA, offset: 0x49FCA, size: 0x8, addend: 0x0, symName: __ZNSt3__110unique_ptrINS_12basic_stringIcNS_11char_traitsIcEENS_9allocatorIcEEEEZN8nlohmann16json_abi_v3_11_310basic_jsonINS_3mapENS_6vectorES6_bxydS4_NS8_14adl_serializerENSB_IhNS4_IhEEEEvE6createIS6_JRA9_KcEEEPT_DpOT0_EUlPS6_E_ED1B8ue170006Ev, symObjAddr: 0x2BA50, symBinAddr: 0x10002C840, symSize: 0x2C }
  - { offsetInCU: 0x49FF4, offset: 0x49FF4, size: 0x8, addend: 0x0, symName: __ZNSt3__110unique_ptrINS_12basic_stringIcNS_11char_traitsIcEENS_9allocatorIcEEEEZN8nlohmann16json_abi_v3_11_310basic_jsonINS_3mapENS_6vectorES6_bxydS4_NS8_14adl_serializerENSB_IhNS4_IhEEEEvE6createIS6_JRA9_KcEEEPT_DpOT0_EUlPS6_E_EC2B8ue170006ILb1EvEESP_NS_16__dependent_typeINS_27__unique_ptr_deleter_sfinaeISQ_EEXT_EE15__lval_ref_typeE, symObjAddr: 0x2BA7C, symBinAddr: 0x10002C86C, symSize: 0x48 }
  - { offsetInCU: 0x4A045, offset: 0x4A045, size: 0x8, addend: 0x0, symName: __ZNSt3__117__compressed_pairIPNS_12basic_stringIcNS_11char_traitsIcEENS_9allocatorIcEEEEZN8nlohmann16json_abi_v3_11_310basic_jsonINS_3mapENS_6vectorES6_bxydS4_NS9_14adl_serializerENSC_IhNS4_IhEEEEvE6createIS6_JRA9_KcEEEPT_DpOT0_EUlS7_E_EC1B8ue170006IRS7_RKSQ_EEOSL_OT0_, symObjAddr: 0x2BAC4, symBinAddr: 0x10002C8B4, symSize: 0x3C }
  - { offsetInCU: 0x4A09D, offset: 0x4A09D, size: 0x8, addend: 0x0, symName: __ZNSt3__117__compressed_pairIPNS_12basic_stringIcNS_11char_traitsIcEENS_9allocatorIcEEEEZN8nlohmann16json_abi_v3_11_310basic_jsonINS_3mapENS_6vectorES6_bxydS4_NS9_14adl_serializerENSC_IhNS4_IhEEEEvE6createIS6_JRA9_KcEEEPT_DpOT0_EUlS7_E_EC2B8ue170006IRS7_RKSQ_EEOSL_OT0_, symObjAddr: 0x2BB00, symBinAddr: 0x10002C8F0, symSize: 0x48 }
  - { offsetInCU: 0x4A0F5, offset: 0x4A0F5, size: 0x8, addend: 0x0, symName: __ZNSt3__122__compressed_pair_elemIZN8nlohmann16json_abi_v3_11_310basic_jsonINS_3mapENS_6vectorENS_12basic_stringIcNS_11char_traitsIcEENS_9allocatorIcEEEEbxydS9_NS2_14adl_serializerENS5_IhNS9_IhEEEEvE6createISB_JRA9_KcEEEPT_DpOT0_EUlPSB_E_Li1ELb0EEC2B8ue170006IRKSQ_vEEOSK_, symObjAddr: 0x2BB48, symBinAddr: 0x10002C938, symSize: 0x24 }
  - { offsetInCU: 0x4A137, offset: 0x4A137, size: 0x8, addend: 0x0, symName: __ZNKSt3__117__compressed_pairIPNS_12basic_stringIcNS_11char_traitsIcEENS_9allocatorIcEEEEZN8nlohmann16json_abi_v3_11_310basic_jsonINS_3mapENS_6vectorES6_bxydS4_NS9_14adl_serializerENSC_IhNS4_IhEEEEvE6createIS6_JRA9_KcEEEPT_DpOT0_EUlS7_E_E5firstB8ue170006Ev, symObjAddr: 0x2BBA8, symBinAddr: 0x10002C998, symSize: 0x24 }
  - { offsetInCU: 0x4A15D, offset: 0x4A15D, size: 0x8, addend: 0x0, symName: __ZNKSt3__110unique_ptrINS_12basic_stringIcNS_11char_traitsIcEENS_9allocatorIcEEEEZN8nlohmann16json_abi_v3_11_310basic_jsonINS_3mapENS_6vectorES6_bxydS4_NS8_14adl_serializerENSB_IhNS4_IhEEEEvE6createIS6_JRA9_KcEEEPT_DpOT0_EUlPS6_E_EcvbB8ue170006Ev, symObjAddr: 0x2BBCC, symBinAddr: 0x10002C9BC, symSize: 0x34 }
  - { offsetInCU: 0x4A183, offset: 0x4A183, size: 0x8, addend: 0x0, symName: __ZNSt3__117__compressed_pairIPNS_12basic_stringIcNS_11char_traitsIcEENS_9allocatorIcEEEEZN8nlohmann16json_abi_v3_11_310basic_jsonINS_3mapENS_6vectorES6_bxydS4_NS9_14adl_serializerENSC_IhNS4_IhEEEEvE6createIS6_JRA9_KcEEEPT_DpOT0_EUlS7_E_E5firstB8ue170006Ev, symObjAddr: 0x2BC00, symBinAddr: 0x10002C9F0, symSize: 0x24 }
  - { offsetInCU: 0x4A1A9, offset: 0x4A1A9, size: 0x8, addend: 0x0, symName: __ZNSt3__110unique_ptrINS_12basic_stringIcNS_11char_traitsIcEENS_9allocatorIcEEEEZN8nlohmann16json_abi_v3_11_310basic_jsonINS_3mapENS_6vectorES6_bxydS4_NS8_14adl_serializerENSB_IhNS4_IhEEEEvE6createIS6_JRA9_KcEEEPT_DpOT0_EUlPS6_E_ED2B8ue170006Ev, symObjAddr: 0x2BC24, symBinAddr: 0x10002CA14, symSize: 0x30 }
  - { offsetInCU: 0x4A1D3, offset: 0x4A1D3, size: 0x8, addend: 0x0, symName: __ZNSt3__110unique_ptrINS_12basic_stringIcNS_11char_traitsIcEENS_9allocatorIcEEEEZN8nlohmann16json_abi_v3_11_310basic_jsonINS_3mapENS_6vectorES6_bxydS4_NS8_14adl_serializerENSB_IhNS4_IhEEEEvE6createIS6_JRA9_KcEEEPT_DpOT0_EUlPS6_E_E5resetB8ue170006ESP_, symObjAddr: 0x2BC54, symBinAddr: 0x10002CA44, symSize: 0x80 }
  - { offsetInCU: 0x4A217, offset: 0x4A217, size: 0x8, addend: 0x0, symName: __ZNSt3__117__compressed_pairIPNS_12basic_stringIcNS_11char_traitsIcEENS_9allocatorIcEEEEZN8nlohmann16json_abi_v3_11_310basic_jsonINS_3mapENS_6vectorES6_bxydS4_NS9_14adl_serializerENSC_IhNS4_IhEEEEvE6createIS6_JRA9_KcEEEPT_DpOT0_EUlS7_E_E6secondB8ue170006Ev, symObjAddr: 0x2BCD4, symBinAddr: 0x10002CAC4, symSize: 0x28 }
  - { offsetInCU: 0x4A243, offset: 0x4A243, size: 0x8, addend: 0x0, symName: __ZZN8nlohmann16json_abi_v3_11_310basic_jsonINSt3__13mapENS2_6vectorENS2_12basic_stringIcNS2_11char_traitsIcEENS2_9allocatorIcEEEEbxydS8_NS0_14adl_serializerENS4_IhNS8_IhEEEEvE6createISA_JRA9_KcEEEPT_DpOT0_ENKUlPSA_E_clESO_, symObjAddr: 0x2BCFC, symBinAddr: 0x10002CAEC, symSize: 0x34 }
  - { offsetInCU: 0x4A27C, offset: 0x4A27C, size: 0x8, addend: 0x0, symName: __ZNSt3__122__compressed_pair_elemIZN8nlohmann16json_abi_v3_11_310basic_jsonINS_3mapENS_6vectorENS_12basic_stringIcNS_11char_traitsIcEENS_9allocatorIcEEEEbxydS9_NS2_14adl_serializerENS5_IhNS9_IhEEEEvE6createISB_JRA9_KcEEEPT_DpOT0_EUlPSB_E_Li1ELb0EE5__getB8ue170006Ev, symObjAddr: 0x2BD30, symBinAddr: 0x10002CB20, symSize: 0x14 }
  - { offsetInCU: 0x4A2A2, offset: 0x4A2A2, size: 0x8, addend: 0x0, symName: __ZN8nlohmann16json_abi_v3_11_36detail8json_refINS0_10basic_jsonINSt3__13mapENS4_6vectorENS4_12basic_stringIcNS4_11char_traitsIcEENS4_9allocatorIcEEEEbxydSA_NS0_14adl_serializerENS6_IhNSA_IhEEEEvEEEC2IJRA6_KcELi0EEEDpOT_, symObjAddr: 0x2BD44, symBinAddr: 0x10002CB34, symSize: 0x38 }
  - { offsetInCU: 0x4A2EC, offset: 0x4A2EC, size: 0x8, addend: 0x0, symName: __ZN8nlohmann16json_abi_v3_11_310basic_jsonINSt3__13mapENS2_6vectorENS2_12basic_stringIcNS2_11char_traitsIcEENS2_9allocatorIcEEEEbxydS8_NS0_14adl_serializerENS4_IhNS8_IhEEEEvEC1IRA6_KcA6_cLi0EEEOT_, symObjAddr: 0x2BD7C, symBinAddr: 0x10002CB6C, symSize: 0x34 }
  - { offsetInCU: 0x4A33D, offset: 0x4A33D, size: 0x8, addend: 0x0, symName: __ZN8nlohmann16json_abi_v3_11_310basic_jsonINSt3__13mapENS2_6vectorENS2_12basic_stringIcNS2_11char_traitsIcEENS2_9allocatorIcEEEEbxydS8_NS0_14adl_serializerENS4_IhNS8_IhEEEEvEC2IRA6_KcA6_cLi0EEEOT_, symObjAddr: 0x2BDB0, symBinAddr: 0x10002CBA0, symSize: 0x84 }
  - { offsetInCU: 0x4A38E, offset: 0x4A38E, size: 0x8, addend: 0x0, symName: __ZN8nlohmann16json_abi_v3_11_314adl_serializerIA6_cvE7to_jsonINS0_10basic_jsonINSt3__13mapENS6_6vectorENS6_12basic_stringIcNS6_11char_traitsIcEENS6_9allocatorIcEEEEbxydSC_S1_NS8_IhNSC_IhEEEEvEERA6_KcEEDTcmclL_ZNS0_7to_jsonEEfp_clsr3stdE7forwardIT0_Efp0_EEcvv_EERT_OSL_, symObjAddr: 0x2BE34, symBinAddr: 0x10002CC24, symSize: 0x34 }
  - { offsetInCU: 0x4A3D3, offset: 0x4A3D3, size: 0x8, addend: 0x0, symName: __ZNK8nlohmann16json_abi_v3_11_36detail10to_json_fnclINS0_10basic_jsonINSt3__13mapENS5_6vectorENS5_12basic_stringIcNS5_11char_traitsIcEENS5_9allocatorIcEEEEbxydSB_NS0_14adl_serializerENS7_IhNSB_IhEEEEvEERA6_KcEEDTcmcl7to_jsonfp_clsr3stdE7forwardIT0_Efp0_EEcvv_EERT_OSL_, symObjAddr: 0x2BE68, symBinAddr: 0x10002CC58, symSize: 0x30 }
  - { offsetInCU: 0x4A429, offset: 0x4A429, size: 0x8, addend: 0x0, symName: __ZN8nlohmann16json_abi_v3_11_36detail20external_constructorILNS1_7value_tE3EE9constructINS0_10basic_jsonINSt3__13mapENS7_6vectorENS7_12basic_stringIcNS7_11char_traitsIcEENS7_9allocatorIcEEEEbxydSD_NS0_14adl_serializerENS9_IhNSD_IhEEEEvEEA6_cLi0EEEvRT_RKT0_, symObjAddr: 0x2BEC4, symBinAddr: 0x10002CCB4, symSize: 0x60 }
  - { offsetInCU: 0x4A474, offset: 0x4A474, size: 0x8, addend: 0x0, symName: __ZN8nlohmann16json_abi_v3_11_310basic_jsonINSt3__13mapENS2_6vectorENS2_12basic_stringIcNS2_11char_traitsIcEENS2_9allocatorIcEEEEbxydS8_NS0_14adl_serializerENS4_IhNS8_IhEEEEvE6createISA_JRA6_KcEEEPT_DpOT0_, symObjAddr: 0x2BF24, symBinAddr: 0x10002CD14, symSize: 0xF4 }
  - { offsetInCU: 0x4A575, offset: 0x4A575, size: 0x8, addend: 0x0, symName: __ZNSt3__110unique_ptrINS_12basic_stringIcNS_11char_traitsIcEENS_9allocatorIcEEEEZN8nlohmann16json_abi_v3_11_310basic_jsonINS_3mapENS_6vectorES6_bxydS4_NS8_14adl_serializerENSB_IhNS4_IhEEEEvE6createIS6_JRA6_KcEEEPT_DpOT0_EUlPS6_E_EC1B8ue170006ILb1EvEESP_NS_16__dependent_typeINS_27__unique_ptr_deleter_sfinaeISQ_EEXT_EE15__lval_ref_typeE, symObjAddr: 0x2C018, symBinAddr: 0x10002CE08, symSize: 0x3C }
  - { offsetInCU: 0x4A5C6, offset: 0x4A5C6, size: 0x8, addend: 0x0, symName: __ZNSt3__116allocator_traitsINS_9allocatorINS_12basic_stringIcNS_11char_traitsIcEENS1_IcEEEEEEE9constructB8ue170006IS6_JRA6_KcEvvEEvRS7_PT_DpOT0_, symObjAddr: 0x2C054, symBinAddr: 0x10002CE44, symSize: 0x30 }
  - { offsetInCU: 0x4A61B, offset: 0x4A61B, size: 0x8, addend: 0x0, symName: __ZNKSt3__110unique_ptrINS_12basic_stringIcNS_11char_traitsIcEENS_9allocatorIcEEEEZN8nlohmann16json_abi_v3_11_310basic_jsonINS_3mapENS_6vectorES6_bxydS4_NS8_14adl_serializerENSB_IhNS4_IhEEEEvE6createIS6_JRA6_KcEEEPT_DpOT0_EUlPS6_E_E3getB8ue170006Ev, symObjAddr: 0x2C084, symBinAddr: 0x10002CE74, symSize: 0x28 }
  - { offsetInCU: 0x4A641, offset: 0x4A641, size: 0x8, addend: 0x0, symName: __ZNSt3__110unique_ptrINS_12basic_stringIcNS_11char_traitsIcEENS_9allocatorIcEEEEZN8nlohmann16json_abi_v3_11_310basic_jsonINS_3mapENS_6vectorES6_bxydS4_NS8_14adl_serializerENSB_IhNS4_IhEEEEvE6createIS6_JRA6_KcEEEPT_DpOT0_EUlPS6_E_E7releaseB8ue170006Ev, symObjAddr: 0x2C0DC, symBinAddr: 0x10002CECC, symSize: 0x44 }
  - { offsetInCU: 0x4A676, offset: 0x4A676, size: 0x8, addend: 0x0, symName: __ZNSt3__110unique_ptrINS_12basic_stringIcNS_11char_traitsIcEENS_9allocatorIcEEEEZN8nlohmann16json_abi_v3_11_310basic_jsonINS_3mapENS_6vectorES6_bxydS4_NS8_14adl_serializerENSB_IhNS4_IhEEEEvE6createIS6_JRA6_KcEEEPT_DpOT0_EUlPS6_E_ED1B8ue170006Ev, symObjAddr: 0x2C120, symBinAddr: 0x10002CF10, symSize: 0x2C }
  - { offsetInCU: 0x4A6A0, offset: 0x4A6A0, size: 0x8, addend: 0x0, symName: __ZNSt3__110unique_ptrINS_12basic_stringIcNS_11char_traitsIcEENS_9allocatorIcEEEEZN8nlohmann16json_abi_v3_11_310basic_jsonINS_3mapENS_6vectorES6_bxydS4_NS8_14adl_serializerENSB_IhNS4_IhEEEEvE6createIS6_JRA6_KcEEEPT_DpOT0_EUlPS6_E_EC2B8ue170006ILb1EvEESP_NS_16__dependent_typeINS_27__unique_ptr_deleter_sfinaeISQ_EEXT_EE15__lval_ref_typeE, symObjAddr: 0x2C14C, symBinAddr: 0x10002CF3C, symSize: 0x48 }
  - { offsetInCU: 0x4A6F1, offset: 0x4A6F1, size: 0x8, addend: 0x0, symName: __ZNSt3__117__compressed_pairIPNS_12basic_stringIcNS_11char_traitsIcEENS_9allocatorIcEEEEZN8nlohmann16json_abi_v3_11_310basic_jsonINS_3mapENS_6vectorES6_bxydS4_NS9_14adl_serializerENSC_IhNS4_IhEEEEvE6createIS6_JRA6_KcEEEPT_DpOT0_EUlS7_E_EC1B8ue170006IRS7_RKSQ_EEOSL_OT0_, symObjAddr: 0x2C194, symBinAddr: 0x10002CF84, symSize: 0x3C }
  - { offsetInCU: 0x4A749, offset: 0x4A749, size: 0x8, addend: 0x0, symName: __ZNSt3__117__compressed_pairIPNS_12basic_stringIcNS_11char_traitsIcEENS_9allocatorIcEEEEZN8nlohmann16json_abi_v3_11_310basic_jsonINS_3mapENS_6vectorES6_bxydS4_NS9_14adl_serializerENSC_IhNS4_IhEEEEvE6createIS6_JRA6_KcEEEPT_DpOT0_EUlS7_E_EC2B8ue170006IRS7_RKSQ_EEOSL_OT0_, symObjAddr: 0x2C1D0, symBinAddr: 0x10002CFC0, symSize: 0x48 }
  - { offsetInCU: 0x4A7A1, offset: 0x4A7A1, size: 0x8, addend: 0x0, symName: __ZNSt3__122__compressed_pair_elemIZN8nlohmann16json_abi_v3_11_310basic_jsonINS_3mapENS_6vectorENS_12basic_stringIcNS_11char_traitsIcEENS_9allocatorIcEEEEbxydS9_NS2_14adl_serializerENS5_IhNS9_IhEEEEvE6createISB_JRA6_KcEEEPT_DpOT0_EUlPSB_E_Li1ELb0EEC2B8ue170006IRKSQ_vEEOSK_, symObjAddr: 0x2C218, symBinAddr: 0x10002D008, symSize: 0x24 }
  - { offsetInCU: 0x4A7E3, offset: 0x4A7E3, size: 0x8, addend: 0x0, symName: __ZNKSt3__117__compressed_pairIPNS_12basic_stringIcNS_11char_traitsIcEENS_9allocatorIcEEEEZN8nlohmann16json_abi_v3_11_310basic_jsonINS_3mapENS_6vectorES6_bxydS4_NS9_14adl_serializerENSC_IhNS4_IhEEEEvE6createIS6_JRA6_KcEEEPT_DpOT0_EUlS7_E_E5firstB8ue170006Ev, symObjAddr: 0x2C278, symBinAddr: 0x10002D068, symSize: 0x24 }
  - { offsetInCU: 0x4A809, offset: 0x4A809, size: 0x8, addend: 0x0, symName: __ZNKSt3__110unique_ptrINS_12basic_stringIcNS_11char_traitsIcEENS_9allocatorIcEEEEZN8nlohmann16json_abi_v3_11_310basic_jsonINS_3mapENS_6vectorES6_bxydS4_NS8_14adl_serializerENSB_IhNS4_IhEEEEvE6createIS6_JRA6_KcEEEPT_DpOT0_EUlPS6_E_EcvbB8ue170006Ev, symObjAddr: 0x2C29C, symBinAddr: 0x10002D08C, symSize: 0x34 }
  - { offsetInCU: 0x4A82F, offset: 0x4A82F, size: 0x8, addend: 0x0, symName: __ZNSt3__117__compressed_pairIPNS_12basic_stringIcNS_11char_traitsIcEENS_9allocatorIcEEEEZN8nlohmann16json_abi_v3_11_310basic_jsonINS_3mapENS_6vectorES6_bxydS4_NS9_14adl_serializerENSC_IhNS4_IhEEEEvE6createIS6_JRA6_KcEEEPT_DpOT0_EUlS7_E_E5firstB8ue170006Ev, symObjAddr: 0x2C2D0, symBinAddr: 0x10002D0C0, symSize: 0x24 }
  - { offsetInCU: 0x4A855, offset: 0x4A855, size: 0x8, addend: 0x0, symName: __ZNSt3__110unique_ptrINS_12basic_stringIcNS_11char_traitsIcEENS_9allocatorIcEEEEZN8nlohmann16json_abi_v3_11_310basic_jsonINS_3mapENS_6vectorES6_bxydS4_NS8_14adl_serializerENSB_IhNS4_IhEEEEvE6createIS6_JRA6_KcEEEPT_DpOT0_EUlPS6_E_ED2B8ue170006Ev, symObjAddr: 0x2C2F4, symBinAddr: 0x10002D0E4, symSize: 0x30 }
  - { offsetInCU: 0x4A87F, offset: 0x4A87F, size: 0x8, addend: 0x0, symName: __ZNSt3__110unique_ptrINS_12basic_stringIcNS_11char_traitsIcEENS_9allocatorIcEEEEZN8nlohmann16json_abi_v3_11_310basic_jsonINS_3mapENS_6vectorES6_bxydS4_NS8_14adl_serializerENSB_IhNS4_IhEEEEvE6createIS6_JRA6_KcEEEPT_DpOT0_EUlPS6_E_E5resetB8ue170006ESP_, symObjAddr: 0x2C324, symBinAddr: 0x10002D114, symSize: 0x80 }
  - { offsetInCU: 0x4A8C3, offset: 0x4A8C3, size: 0x8, addend: 0x0, symName: __ZNSt3__117__compressed_pairIPNS_12basic_stringIcNS_11char_traitsIcEENS_9allocatorIcEEEEZN8nlohmann16json_abi_v3_11_310basic_jsonINS_3mapENS_6vectorES6_bxydS4_NS9_14adl_serializerENSC_IhNS4_IhEEEEvE6createIS6_JRA6_KcEEEPT_DpOT0_EUlS7_E_E6secondB8ue170006Ev, symObjAddr: 0x2C3A4, symBinAddr: 0x10002D194, symSize: 0x28 }
  - { offsetInCU: 0x4A8EF, offset: 0x4A8EF, size: 0x8, addend: 0x0, symName: __ZZN8nlohmann16json_abi_v3_11_310basic_jsonINSt3__13mapENS2_6vectorENS2_12basic_stringIcNS2_11char_traitsIcEENS2_9allocatorIcEEEEbxydS8_NS0_14adl_serializerENS4_IhNS8_IhEEEEvE6createISA_JRA6_KcEEEPT_DpOT0_ENKUlPSA_E_clESO_, symObjAddr: 0x2C3CC, symBinAddr: 0x10002D1BC, symSize: 0x34 }
  - { offsetInCU: 0x4A928, offset: 0x4A928, size: 0x8, addend: 0x0, symName: __ZNSt3__122__compressed_pair_elemIZN8nlohmann16json_abi_v3_11_310basic_jsonINS_3mapENS_6vectorENS_12basic_stringIcNS_11char_traitsIcEENS_9allocatorIcEEEEbxydS9_NS2_14adl_serializerENS5_IhNS9_IhEEEEvE6createISB_JRA6_KcEEEPT_DpOT0_EUlPSB_E_Li1ELb0EE5__getB8ue170006Ev, symObjAddr: 0x2C400, symBinAddr: 0x10002D1F0, symSize: 0x14 }
  - { offsetInCU: 0x4A94E, offset: 0x4A94E, size: 0x8, addend: 0x0, symName: __ZN8nlohmann16json_abi_v3_11_36detail8json_refINS0_10basic_jsonINSt3__13mapENS4_6vectorENS4_12basic_stringIcNS4_11char_traitsIcEENS4_9allocatorIcEEEEbxydSA_NS0_14adl_serializerENS6_IhNSA_IhEEEEvEEEC2IJRA7_KcELi0EEEDpOT_, symObjAddr: 0x2C414, symBinAddr: 0x10002D204, symSize: 0x38 }
  - { offsetInCU: 0x4A998, offset: 0x4A998, size: 0x8, addend: 0x0, symName: __ZN8nlohmann16json_abi_v3_11_310basic_jsonINSt3__13mapENS2_6vectorENS2_12basic_stringIcNS2_11char_traitsIcEENS2_9allocatorIcEEEEbxydS8_NS0_14adl_serializerENS4_IhNS8_IhEEEEvEC1IRA7_KcA7_cLi0EEEOT_, symObjAddr: 0x2C44C, symBinAddr: 0x10002D23C, symSize: 0x34 }
  - { offsetInCU: 0x4A9E9, offset: 0x4A9E9, size: 0x8, addend: 0x0, symName: __ZN8nlohmann16json_abi_v3_11_310basic_jsonINSt3__13mapENS2_6vectorENS2_12basic_stringIcNS2_11char_traitsIcEENS2_9allocatorIcEEEEbxydS8_NS0_14adl_serializerENS4_IhNS8_IhEEEEvEC2IRA7_KcA7_cLi0EEEOT_, symObjAddr: 0x2C480, symBinAddr: 0x10002D270, symSize: 0x84 }
  - { offsetInCU: 0x4AA3A, offset: 0x4AA3A, size: 0x8, addend: 0x0, symName: __ZN8nlohmann16json_abi_v3_11_314adl_serializerIA7_cvE7to_jsonINS0_10basic_jsonINSt3__13mapENS6_6vectorENS6_12basic_stringIcNS6_11char_traitsIcEENS6_9allocatorIcEEEEbxydSC_S1_NS8_IhNSC_IhEEEEvEERA7_KcEEDTcmclL_ZNS0_7to_jsonEEfp_clsr3stdE7forwardIT0_Efp0_EEcvv_EERT_OSL_, symObjAddr: 0x2C504, symBinAddr: 0x10002D2F4, symSize: 0x34 }
  - { offsetInCU: 0x4AA7F, offset: 0x4AA7F, size: 0x8, addend: 0x0, symName: __ZNK8nlohmann16json_abi_v3_11_36detail10to_json_fnclINS0_10basic_jsonINSt3__13mapENS5_6vectorENS5_12basic_stringIcNS5_11char_traitsIcEENS5_9allocatorIcEEEEbxydSB_NS0_14adl_serializerENS7_IhNSB_IhEEEEvEERA7_KcEEDTcmcl7to_jsonfp_clsr3stdE7forwardIT0_Efp0_EEcvv_EERT_OSL_, symObjAddr: 0x2C538, symBinAddr: 0x10002D328, symSize: 0x30 }
  - { offsetInCU: 0x4AAD5, offset: 0x4AAD5, size: 0x8, addend: 0x0, symName: __ZN8nlohmann16json_abi_v3_11_36detail20external_constructorILNS1_7value_tE3EE9constructINS0_10basic_jsonINSt3__13mapENS7_6vectorENS7_12basic_stringIcNS7_11char_traitsIcEENS7_9allocatorIcEEEEbxydSD_NS0_14adl_serializerENS9_IhNSD_IhEEEEvEEA7_cLi0EEEvRT_RKT0_, symObjAddr: 0x2C594, symBinAddr: 0x10002D384, symSize: 0x60 }
  - { offsetInCU: 0x4AB20, offset: 0x4AB20, size: 0x8, addend: 0x0, symName: __ZN8nlohmann16json_abi_v3_11_310basic_jsonINSt3__13mapENS2_6vectorENS2_12basic_stringIcNS2_11char_traitsIcEENS2_9allocatorIcEEEEbxydS8_NS0_14adl_serializerENS4_IhNS8_IhEEEEvE6createISA_JRA7_KcEEEPT_DpOT0_, symObjAddr: 0x2C5F4, symBinAddr: 0x10002D3E4, symSize: 0xF4 }
  - { offsetInCU: 0x4AC21, offset: 0x4AC21, size: 0x8, addend: 0x0, symName: __ZNSt3__110unique_ptrINS_12basic_stringIcNS_11char_traitsIcEENS_9allocatorIcEEEEZN8nlohmann16json_abi_v3_11_310basic_jsonINS_3mapENS_6vectorES6_bxydS4_NS8_14adl_serializerENSB_IhNS4_IhEEEEvE6createIS6_JRA7_KcEEEPT_DpOT0_EUlPS6_E_EC1B8ue170006ILb1EvEESP_NS_16__dependent_typeINS_27__unique_ptr_deleter_sfinaeISQ_EEXT_EE15__lval_ref_typeE, symObjAddr: 0x2C6E8, symBinAddr: 0x10002D4D8, symSize: 0x3C }
  - { offsetInCU: 0x4AC72, offset: 0x4AC72, size: 0x8, addend: 0x0, symName: __ZNSt3__116allocator_traitsINS_9allocatorINS_12basic_stringIcNS_11char_traitsIcEENS1_IcEEEEEEE9constructB8ue170006IS6_JRA7_KcEvvEEvRS7_PT_DpOT0_, symObjAddr: 0x2C724, symBinAddr: 0x10002D514, symSize: 0x30 }
  - { offsetInCU: 0x4ACC7, offset: 0x4ACC7, size: 0x8, addend: 0x0, symName: __ZNKSt3__110unique_ptrINS_12basic_stringIcNS_11char_traitsIcEENS_9allocatorIcEEEEZN8nlohmann16json_abi_v3_11_310basic_jsonINS_3mapENS_6vectorES6_bxydS4_NS8_14adl_serializerENSB_IhNS4_IhEEEEvE6createIS6_JRA7_KcEEEPT_DpOT0_EUlPS6_E_E3getB8ue170006Ev, symObjAddr: 0x2C754, symBinAddr: 0x10002D544, symSize: 0x28 }
  - { offsetInCU: 0x4ACED, offset: 0x4ACED, size: 0x8, addend: 0x0, symName: __ZNSt3__110unique_ptrINS_12basic_stringIcNS_11char_traitsIcEENS_9allocatorIcEEEEZN8nlohmann16json_abi_v3_11_310basic_jsonINS_3mapENS_6vectorES6_bxydS4_NS8_14adl_serializerENSB_IhNS4_IhEEEEvE6createIS6_JRA7_KcEEEPT_DpOT0_EUlPS6_E_E7releaseB8ue170006Ev, symObjAddr: 0x2C7AC, symBinAddr: 0x10002D59C, symSize: 0x44 }
  - { offsetInCU: 0x4AD22, offset: 0x4AD22, size: 0x8, addend: 0x0, symName: __ZNSt3__110unique_ptrINS_12basic_stringIcNS_11char_traitsIcEENS_9allocatorIcEEEEZN8nlohmann16json_abi_v3_11_310basic_jsonINS_3mapENS_6vectorES6_bxydS4_NS8_14adl_serializerENSB_IhNS4_IhEEEEvE6createIS6_JRA7_KcEEEPT_DpOT0_EUlPS6_E_ED1B8ue170006Ev, symObjAddr: 0x2C7F0, symBinAddr: 0x10002D5E0, symSize: 0x2C }
  - { offsetInCU: 0x4AD4C, offset: 0x4AD4C, size: 0x8, addend: 0x0, symName: __ZNSt3__110unique_ptrINS_12basic_stringIcNS_11char_traitsIcEENS_9allocatorIcEEEEZN8nlohmann16json_abi_v3_11_310basic_jsonINS_3mapENS_6vectorES6_bxydS4_NS8_14adl_serializerENSB_IhNS4_IhEEEEvE6createIS6_JRA7_KcEEEPT_DpOT0_EUlPS6_E_EC2B8ue170006ILb1EvEESP_NS_16__dependent_typeINS_27__unique_ptr_deleter_sfinaeISQ_EEXT_EE15__lval_ref_typeE, symObjAddr: 0x2C81C, symBinAddr: 0x10002D60C, symSize: 0x48 }
  - { offsetInCU: 0x4AD9D, offset: 0x4AD9D, size: 0x8, addend: 0x0, symName: __ZNSt3__117__compressed_pairIPNS_12basic_stringIcNS_11char_traitsIcEENS_9allocatorIcEEEEZN8nlohmann16json_abi_v3_11_310basic_jsonINS_3mapENS_6vectorES6_bxydS4_NS9_14adl_serializerENSC_IhNS4_IhEEEEvE6createIS6_JRA7_KcEEEPT_DpOT0_EUlS7_E_EC1B8ue170006IRS7_RKSQ_EEOSL_OT0_, symObjAddr: 0x2C864, symBinAddr: 0x10002D654, symSize: 0x3C }
  - { offsetInCU: 0x4ADF5, offset: 0x4ADF5, size: 0x8, addend: 0x0, symName: __ZNSt3__117__compressed_pairIPNS_12basic_stringIcNS_11char_traitsIcEENS_9allocatorIcEEEEZN8nlohmann16json_abi_v3_11_310basic_jsonINS_3mapENS_6vectorES6_bxydS4_NS9_14adl_serializerENSC_IhNS4_IhEEEEvE6createIS6_JRA7_KcEEEPT_DpOT0_EUlS7_E_EC2B8ue170006IRS7_RKSQ_EEOSL_OT0_, symObjAddr: 0x2C8A0, symBinAddr: 0x10002D690, symSize: 0x48 }
  - { offsetInCU: 0x4AE4D, offset: 0x4AE4D, size: 0x8, addend: 0x0, symName: __ZNSt3__122__compressed_pair_elemIZN8nlohmann16json_abi_v3_11_310basic_jsonINS_3mapENS_6vectorENS_12basic_stringIcNS_11char_traitsIcEENS_9allocatorIcEEEEbxydS9_NS2_14adl_serializerENS5_IhNS9_IhEEEEvE6createISB_JRA7_KcEEEPT_DpOT0_EUlPSB_E_Li1ELb0EEC2B8ue170006IRKSQ_vEEOSK_, symObjAddr: 0x2C8E8, symBinAddr: 0x10002D6D8, symSize: 0x24 }
  - { offsetInCU: 0x4AE8F, offset: 0x4AE8F, size: 0x8, addend: 0x0, symName: __ZNKSt3__117__compressed_pairIPNS_12basic_stringIcNS_11char_traitsIcEENS_9allocatorIcEEEEZN8nlohmann16json_abi_v3_11_310basic_jsonINS_3mapENS_6vectorES6_bxydS4_NS9_14adl_serializerENSC_IhNS4_IhEEEEvE6createIS6_JRA7_KcEEEPT_DpOT0_EUlS7_E_E5firstB8ue170006Ev, symObjAddr: 0x2C948, symBinAddr: 0x10002D738, symSize: 0x24 }
  - { offsetInCU: 0x4AEB5, offset: 0x4AEB5, size: 0x8, addend: 0x0, symName: __ZNKSt3__110unique_ptrINS_12basic_stringIcNS_11char_traitsIcEENS_9allocatorIcEEEEZN8nlohmann16json_abi_v3_11_310basic_jsonINS_3mapENS_6vectorES6_bxydS4_NS8_14adl_serializerENSB_IhNS4_IhEEEEvE6createIS6_JRA7_KcEEEPT_DpOT0_EUlPS6_E_EcvbB8ue170006Ev, symObjAddr: 0x2C96C, symBinAddr: 0x10002D75C, symSize: 0x34 }
  - { offsetInCU: 0x4AEDB, offset: 0x4AEDB, size: 0x8, addend: 0x0, symName: __ZNSt3__117__compressed_pairIPNS_12basic_stringIcNS_11char_traitsIcEENS_9allocatorIcEEEEZN8nlohmann16json_abi_v3_11_310basic_jsonINS_3mapENS_6vectorES6_bxydS4_NS9_14adl_serializerENSC_IhNS4_IhEEEEvE6createIS6_JRA7_KcEEEPT_DpOT0_EUlS7_E_E5firstB8ue170006Ev, symObjAddr: 0x2C9A0, symBinAddr: 0x10002D790, symSize: 0x24 }
  - { offsetInCU: 0x4AF01, offset: 0x4AF01, size: 0x8, addend: 0x0, symName: __ZNSt3__110unique_ptrINS_12basic_stringIcNS_11char_traitsIcEENS_9allocatorIcEEEEZN8nlohmann16json_abi_v3_11_310basic_jsonINS_3mapENS_6vectorES6_bxydS4_NS8_14adl_serializerENSB_IhNS4_IhEEEEvE6createIS6_JRA7_KcEEEPT_DpOT0_EUlPS6_E_ED2B8ue170006Ev, symObjAddr: 0x2C9C4, symBinAddr: 0x10002D7B4, symSize: 0x30 }
  - { offsetInCU: 0x4AF2B, offset: 0x4AF2B, size: 0x8, addend: 0x0, symName: __ZNSt3__110unique_ptrINS_12basic_stringIcNS_11char_traitsIcEENS_9allocatorIcEEEEZN8nlohmann16json_abi_v3_11_310basic_jsonINS_3mapENS_6vectorES6_bxydS4_NS8_14adl_serializerENSB_IhNS4_IhEEEEvE6createIS6_JRA7_KcEEEPT_DpOT0_EUlPS6_E_E5resetB8ue170006ESP_, symObjAddr: 0x2C9F4, symBinAddr: 0x10002D7E4, symSize: 0x80 }
  - { offsetInCU: 0x4AF6F, offset: 0x4AF6F, size: 0x8, addend: 0x0, symName: __ZNSt3__117__compressed_pairIPNS_12basic_stringIcNS_11char_traitsIcEENS_9allocatorIcEEEEZN8nlohmann16json_abi_v3_11_310basic_jsonINS_3mapENS_6vectorES6_bxydS4_NS9_14adl_serializerENSC_IhNS4_IhEEEEvE6createIS6_JRA7_KcEEEPT_DpOT0_EUlS7_E_E6secondB8ue170006Ev, symObjAddr: 0x2CA74, symBinAddr: 0x10002D864, symSize: 0x28 }
  - { offsetInCU: 0x4AF9B, offset: 0x4AF9B, size: 0x8, addend: 0x0, symName: __ZZN8nlohmann16json_abi_v3_11_310basic_jsonINSt3__13mapENS2_6vectorENS2_12basic_stringIcNS2_11char_traitsIcEENS2_9allocatorIcEEEEbxydS8_NS0_14adl_serializerENS4_IhNS8_IhEEEEvE6createISA_JRA7_KcEEEPT_DpOT0_ENKUlPSA_E_clESO_, symObjAddr: 0x2CA9C, symBinAddr: 0x10002D88C, symSize: 0x34 }
  - { offsetInCU: 0x4AFD4, offset: 0x4AFD4, size: 0x8, addend: 0x0, symName: __ZNSt3__122__compressed_pair_elemIZN8nlohmann16json_abi_v3_11_310basic_jsonINS_3mapENS_6vectorENS_12basic_stringIcNS_11char_traitsIcEENS_9allocatorIcEEEEbxydS9_NS2_14adl_serializerENS5_IhNS9_IhEEEEvE6createISB_JRA7_KcEEEPT_DpOT0_EUlPSB_E_Li1ELb0EE5__getB8ue170006Ev, symObjAddr: 0x2CAD0, symBinAddr: 0x10002D8C0, symSize: 0x14 }
  - { offsetInCU: 0x4AFFA, offset: 0x4AFFA, size: 0x8, addend: 0x0, symName: __ZN8nlohmann16json_abi_v3_11_36detail8json_refINS0_10basic_jsonINSt3__13mapENS4_6vectorENS4_12basic_stringIcNS4_11char_traitsIcEENS4_9allocatorIcEEEEbxydSA_NS0_14adl_serializerENS6_IhNSA_IhEEEEvEEED2Ev, symObjAddr: 0x2CAE4, symBinAddr: 0x10002D8D4, symSize: 0x2C }
  - { offsetInCU: 0x4B024, offset: 0x4B024, size: 0x8, addend: 0x0, symName: __ZNSt3__112basic_stringIcNS_11char_traitsIcEENS_9allocatorIcEEEC2B8ue170006Ev, symObjAddr: 0x2CB10, symBinAddr: 0x10002D900, symSize: 0x48 }
  - { offsetInCU: 0x4B04E, offset: 0x4B04E, size: 0x8, addend: 0x0, symName: __ZNSt3__112basic_stringIcNS_11char_traitsIcEENS_9allocatorIcEEE14__default_initB8ue170006Ev, symObjAddr: 0x2CB58, symBinAddr: 0x10002D948, symSize: 0x40 }
  - { offsetInCU: 0x4B074, offset: 0x4B074, size: 0x8, addend: 0x0, symName: __ZNSt16invalid_argumentC2B8ue170006EPKc, symObjAddr: 0x2CC74, symBinAddr: 0x10002DA64, symSize: 0x4C }
  - { offsetInCU: 0x4B0AC, offset: 0x4B0AC, size: 0x8, addend: 0x0, symName: __ZNSt3__114basic_ofstreamIcNS_11char_traitsIcEEED2Ev, symObjAddr: 0x2CCC0, symBinAddr: 0x10002DAB0, symSize: 0x64 }
  - { offsetInCU: 0x4B0E6, offset: 0x4B0E6, size: 0x8, addend: 0x0, symName: __ZTv0_n24_NSt3__114basic_ofstreamIcNS_11char_traitsIcEEED1Ev, symObjAddr: 0x2CD24, symBinAddr: 0x10002DB14, symSize: 0x28 }
  - { offsetInCU: 0x4B0FD, offset: 0x4B0FD, size: 0x8, addend: 0x0, symName: __ZNSt3__111char_traitsIcE4findB8ue170006EPKcmRS2_, symObjAddr: 0x2CF84, symBinAddr: 0x10002DD74, symSize: 0x70 }
  - { offsetInCU: 0x4B13C, offset: 0x4B13C, size: 0x8, addend: 0x0, symName: __ZN8nlohmann16json_abi_v3_11_310basic_jsonINSt3__13mapENS2_6vectorENS2_12basic_stringIcNS2_11char_traitsIcEENS2_9allocatorIcEEEEbxydS8_NS0_14adl_serializerENS4_IhNS8_IhEEEEvED2Ev, symObjAddr: 0x2D034, symBinAddr: 0x10002DE24, symSize: 0x3C }
  - { offsetInCU: 0x4B183, offset: 0x4B183, size: 0x8, addend: 0x0, symName: __ZNKSt3__113basic_ostreamIcNS_11char_traitsIcEEE6sentrycvbB8ue170006Ev, symObjAddr: 0x2D25C, symBinAddr: 0x10002E04C, symSize: 0x1C }
  - { offsetInCU: 0x4B1A9, offset: 0x4B1A9, size: 0x8, addend: 0x0, symName: __ZNSt3__119ostreambuf_iteratorIcNS_11char_traitsIcEEEC1B8ue170006ERNS_13basic_ostreamIcS2_EE, symObjAddr: 0x2D4B8, symBinAddr: 0x10002E2A8, symSize: 0x34 }
  - { offsetInCU: 0x4B1E1, offset: 0x4B1E1, size: 0x8, addend: 0x0, symName: __ZNKSt3__18ios_base5flagsB8ue170006Ev, symObjAddr: 0x2D4EC, symBinAddr: 0x10002E2DC, symSize: 0x18 }
  - { offsetInCU: 0x4B209, offset: 0x4B209, size: 0x8, addend: 0x0, symName: __ZNKSt3__19basic_iosIcNS_11char_traitsIcEEE4fillB8ue170006Ev, symObjAddr: 0x2D504, symBinAddr: 0x10002E2F4, symSize: 0x64 }
  - { offsetInCU: 0x4B231, offset: 0x4B231, size: 0x8, addend: 0x0, symName: __ZNKSt3__119ostreambuf_iteratorIcNS_11char_traitsIcEEE6failedB8ue170006Ev, symObjAddr: 0x2D568, symBinAddr: 0x10002E358, symSize: 0x24 }
  - { offsetInCU: 0x4B257, offset: 0x4B257, size: 0x8, addend: 0x0, symName: __ZNSt3__19basic_iosIcNS_11char_traitsIcEEE8setstateB8ue170006Ej, symObjAddr: 0x2D58C, symBinAddr: 0x10002E37C, symSize: 0x2C }
  - { offsetInCU: 0x4B28C, offset: 0x4B28C, size: 0x8, addend: 0x0, symName: __ZNKSt3__18ios_base5widthB8ue170006Ev, symObjAddr: 0x2D5B8, symBinAddr: 0x10002E3A8, symSize: 0x18 }
  - { offsetInCU: 0x4B2B4, offset: 0x4B2B4, size: 0x8, addend: 0x0, symName: __ZNSt3__115basic_streambufIcNS_11char_traitsIcEEE5sputnB8ue170006EPKcl, symObjAddr: 0x2D5D0, symBinAddr: 0x10002E3C0, symSize: 0x3C }
  - { offsetInCU: 0x4B2F6, offset: 0x4B2F6, size: 0x8, addend: 0x0, symName: __ZNSt3__112basic_stringIcNS_11char_traitsIcEENS_9allocatorIcEEEC1B8ue170006Emc, symObjAddr: 0x2D60C, symBinAddr: 0x10002E3FC, symSize: 0x3C }
  - { offsetInCU: 0x4B33E, offset: 0x4B33E, size: 0x8, addend: 0x0, symName: __ZNSt3__112basic_stringIcNS_11char_traitsIcEENS_9allocatorIcEEE4dataB8ue170006Ev, symObjAddr: 0x2D648, symBinAddr: 0x10002E438, symSize: 0x28 }
  - { offsetInCU: 0x4B364, offset: 0x4B364, size: 0x8, addend: 0x0, symName: __ZNSt3__18ios_base5widthB8ue170006El, symObjAddr: 0x2D670, symBinAddr: 0x10002E460, symSize: 0x2C }
  - { offsetInCU: 0x4B3AA, offset: 0x4B3AA, size: 0x8, addend: 0x0, symName: __ZNSt3__112basic_stringIcNS_11char_traitsIcEENS_9allocatorIcEEEC2B8ue170006Emc, symObjAddr: 0x2D69C, symBinAddr: 0x10002E48C, symSize: 0x4C }
  - { offsetInCU: 0x4B3F2, offset: 0x4B3F2, size: 0x8, addend: 0x0, symName: __ZNSt3__119ostreambuf_iteratorIcNS_11char_traitsIcEEEC2B8ue170006ERNS_13basic_ostreamIcS2_EE, symObjAddr: 0x2D6FC, symBinAddr: 0x10002E4EC, symSize: 0x54 }
  - { offsetInCU: 0x4B42A, offset: 0x4B42A, size: 0x8, addend: 0x0, symName: __ZNKSt3__19basic_iosIcNS_11char_traitsIcEEE5rdbufB8ue170006Ev, symObjAddr: 0x2D750, symBinAddr: 0x10002E540, symSize: 0x24 }
  - { offsetInCU: 0x4B452, offset: 0x4B452, size: 0x8, addend: 0x0, symName: __ZNKSt3__18ios_base5rdbufB8ue170006Ev, symObjAddr: 0x2D774, symBinAddr: 0x10002E564, symSize: 0x18 }
  - { offsetInCU: 0x4B478, offset: 0x4B478, size: 0x8, addend: 0x0, symName: __ZNSt3__111char_traitsIcE11eq_int_typeB8ue170006Eii, symObjAddr: 0x2D78C, symBinAddr: 0x10002E57C, symSize: 0x28 }
  - { offsetInCU: 0x4B4AB, offset: 0x4B4AB, size: 0x8, addend: 0x0, symName: __ZNSt3__111char_traitsIcE3eofB8ue170006Ev, symObjAddr: 0x2D7B4, symBinAddr: 0x10002E5A4, symSize: 0x8 }
  - { offsetInCU: 0x4B4BF, offset: 0x4B4BF, size: 0x8, addend: 0x0, symName: __ZNKSt3__19basic_iosIcNS_11char_traitsIcEEE5widenB8ue170006Ec, symObjAddr: 0x2D7BC, symBinAddr: 0x10002E5AC, symSize: 0x84 }
  - { offsetInCU: 0x4B52F, offset: 0x4B52F, size: 0x8, addend: 0x0, symName: __ZNKSt3__15ctypeIcE5widenB8ue170006Ec, symObjAddr: 0x2D86C, symBinAddr: 0x10002E65C, symSize: 0x38 }
  - { offsetInCU: 0x4B564, offset: 0x4B564, size: 0x8, addend: 0x0, symName: __ZNSt3__18ios_base8setstateB8ue170006Ej, symObjAddr: 0x2D8A4, symBinAddr: 0x10002E694, symSize: 0x34 }
  - { offsetInCU: 0x4B59B, offset: 0x4B59B, size: 0x8, addend: 0x0, symName: __ZN8nlohmann16json_abi_v3_11_36detail8json_refINS0_10basic_jsonINSt3__13mapENS4_6vectorENS4_12basic_stringIcNS4_11char_traitsIcEENS4_9allocatorIcEEEEbxydSA_NS0_14adl_serializerENS6_IhNSA_IhEEEEvEEEC2ESt16initializer_listISH_E, symObjAddr: 0x2D8D8, symBinAddr: 0x10002E6C8, symSize: 0x54 }
  - { offsetInCU: 0x4B5D4, offset: 0x4B5D4, size: 0x8, addend: 0x0, symName: __ZN8nlohmann16json_abi_v3_11_310basic_jsonINSt3__13mapENS2_6vectorENS2_12basic_stringIcNS2_11char_traitsIcEENS2_9allocatorIcEEEEbxydS8_NS0_14adl_serializerENS4_IhNS8_IhEEEEvEC2ESt16initializer_listINS0_6detail8json_refISE_EEEbNSG_7value_tE, symObjAddr: 0x2D92C, symBinAddr: 0x10002E71C, symSize: 0x36C }
  - { offsetInCU: 0x4B6C6, offset: 0x4B6C6, size: 0x8, addend: 0x0, symName: __ZNKSt16initializer_listIN8nlohmann16json_abi_v3_11_36detail8json_refINS1_10basic_jsonINSt3__13mapENS5_6vectorENS5_12basic_stringIcNS5_11char_traitsIcEENS5_9allocatorIcEEEEbxydSB_NS1_14adl_serializerENS7_IhNSB_IhEEEEvEEEEE5beginB8ue170006Ev, symObjAddr: 0x2DD2C, symBinAddr: 0x10002EB1C, symSize: 0x18 }
  - { offsetInCU: 0x4B6EC, offset: 0x4B6EC, size: 0x8, addend: 0x0, symName: __ZNKSt16initializer_listIN8nlohmann16json_abi_v3_11_36detail8json_refINS1_10basic_jsonINSt3__13mapENS5_6vectorENS5_12basic_stringIcNS5_11char_traitsIcEENS5_9allocatorIcEEEEbxydSB_NS1_14adl_serializerENS7_IhNSB_IhEEEEvEEEEE3endB8ue170006Ev, symObjAddr: 0x2DD44, symBinAddr: 0x10002EB34, symSize: 0x28 }
  - { offsetInCU: 0x4B746, offset: 0x4B746, size: 0x8, addend: 0x0, symName: __ZN8nlohmann16json_abi_v3_11_36detail10type_error6createIDnLi0EEES2_iRKNSt3__112basic_stringIcNS4_11char_traitsIcEENS4_9allocatorIcEEEET_, symObjAddr: 0x2DD6C, symBinAddr: 0x10002EB5C, symSize: 0x130 }
  - { offsetInCU: 0x4B7A6, offset: 0x4B7A6, size: 0x8, addend: 0x0, symName: __ZN8nlohmann16json_abi_v3_11_36detail10type_errorD1Ev, symObjAddr: 0x2DE9C, symBinAddr: 0x10002EC8C, symSize: 0x2C }
  - { offsetInCU: 0x4B7D3, offset: 0x4B7D3, size: 0x8, addend: 0x0, symName: __ZN8nlohmann16json_abi_v3_11_310basic_jsonINSt3__13mapENS2_6vectorENS2_12basic_stringIcNS2_11char_traitsIcEENS2_9allocatorIcEEEEbxydS8_NS0_14adl_serializerENS4_IhNS8_IhEEEEvE10json_valueC1ENS0_6detail7value_tE, symObjAddr: 0x2DEC8, symBinAddr: 0x10002ECB8, symSize: 0x34 }
  - { offsetInCU: 0x4B80C, offset: 0x4B80C, size: 0x8, addend: 0x0, symName: __ZNK8nlohmann16json_abi_v3_11_36detail8json_refINS0_10basic_jsonINSt3__13mapENS4_6vectorENS4_12basic_stringIcNS4_11char_traitsIcEENS4_9allocatorIcEEEEbxydSA_NS0_14adl_serializerENS6_IhNSA_IhEEEEvEEE15moved_or_copiedEv, symObjAddr: 0x2DEFC, symBinAddr: 0x10002ECEC, symSize: 0x64 }
  - { offsetInCU: 0x4B838, offset: 0x4B838, size: 0x8, addend: 0x0, symName: __ZNSt3__13mapINS_12basic_stringIcNS_11char_traitsIcEENS_9allocatorIcEEEEN8nlohmann16json_abi_v3_11_310basic_jsonIS0_NS_6vectorES6_bxydS4_NS8_14adl_serializerENSA_IhNS4_IhEEEEvEENS_4lessIvEENS4_INS_4pairIKS6_SE_EEEEE7emplaceB8ue170006IJS6_SE_EEENSH_INS_14__map_iteratorINS_15__tree_iteratorINS_12__value_typeIS6_SE_EEPNS_11__tree_nodeISQ_PvEElEEEEbEEDpOT_, symObjAddr: 0x2DF60, symBinAddr: 0x10002ED50, symSize: 0x54 }
  - { offsetInCU: 0x4B88C, offset: 0x4B88C, size: 0x8, addend: 0x0, symName: __ZNSt3__16vectorIN8nlohmann16json_abi_v3_11_310basic_jsonINS_3mapES0_NS_12basic_stringIcNS_11char_traitsIcEENS_9allocatorIcEEEEbxydS8_NS2_14adl_serializerENS0_IhNS8_IhEEEEvEENS8_ISE_EEEixB8ue170006Em, symObjAddr: 0x2DFB4, symBinAddr: 0x10002EDA4, symSize: 0x24 }
  - { offsetInCU: 0x4B8C9, offset: 0x4B8C9, size: 0x8, addend: 0x0, symName: __ZN8nlohmann16json_abi_v3_11_310basic_jsonINSt3__13mapENS2_6vectorENS2_12basic_stringIcNS2_11char_traitsIcEENS2_9allocatorIcEEEEbxydS8_NS0_14adl_serializerENS4_IhNS8_IhEEEEvE6createINS4_ISE_NS8_ISE_EEEEJPKNS0_6detail8json_refISE_EESM_EEEPT_DpOT0_, symObjAddr: 0x2DFD8, symBinAddr: 0x10002EDC8, symSize: 0xFC }
  - { offsetInCU: 0x4B976, offset: 0x4B976, size: 0x8, addend: 0x0, symName: __ZZN8nlohmann16json_abi_v3_11_310basic_jsonINSt3__13mapENS2_6vectorENS2_12basic_stringIcNS2_11char_traitsIcEENS2_9allocatorIcEEEEbxydS8_NS0_14adl_serializerENS4_IhNS8_IhEEEEvEC1ESt16initializer_listINS0_6detail8json_refISE_EEEbNSG_7value_tEENKUlRKSI_E_clESM_, symObjAddr: 0x2E0D4, symBinAddr: 0x10002EEC4, symSize: 0x84 }
  - { offsetInCU: 0x4B9AF, offset: 0x4B9AF, size: 0x8, addend: 0x0, symName: __ZNK8nlohmann16json_abi_v3_11_36detail8json_refINS0_10basic_jsonINSt3__13mapENS4_6vectorENS4_12basic_stringIcNS4_11char_traitsIcEENS4_9allocatorIcEEEEbxydSA_NS0_14adl_serializerENS6_IhNSA_IhEEEEvEEEptEv, symObjAddr: 0x2E158, symBinAddr: 0x10002EF48, symSize: 0x24 }
  - { offsetInCU: 0x4B9D5, offset: 0x4B9D5, size: 0x8, addend: 0x0, symName: __ZNK8nlohmann16json_abi_v3_11_36detail8json_refINS0_10basic_jsonINSt3__13mapENS4_6vectorENS4_12basic_stringIcNS4_11char_traitsIcEENS4_9allocatorIcEEEEbxydSA_NS0_14adl_serializerENS6_IhNSA_IhEEEEvEEEdeEv, symObjAddr: 0x2E17C, symBinAddr: 0x10002EF6C, symSize: 0x4C }
  - { offsetInCU: 0x4B9FB, offset: 0x4B9FB, size: 0x8, addend: 0x0, symName: __ZNK8nlohmann16json_abi_v3_11_310basic_jsonINSt3__13mapENS2_6vectorENS2_12basic_stringIcNS2_11char_traitsIcEENS2_9allocatorIcEEEEbxydS8_NS0_14adl_serializerENS4_IhNS8_IhEEEEvEixEm, symObjAddr: 0x2E1C8, symBinAddr: 0x10002EFB8, symSize: 0x11C }
  - { offsetInCU: 0x4BA30, offset: 0x4BA30, size: 0x8, addend: 0x0, symName: __ZNK8nlohmann16json_abi_v3_11_310basic_jsonINSt3__13mapENS2_6vectorENS2_12basic_stringIcNS2_11char_traitsIcEENS2_9allocatorIcEEEEbxydS8_NS0_14adl_serializerENS4_IhNS8_IhEEEEvE9is_stringEv, symObjAddr: 0x2E2E4, symBinAddr: 0x10002F0D4, symSize: 0x24 }
  - { offsetInCU: 0x4BA56, offset: 0x4BA56, size: 0x8, addend: 0x0, symName: __ZN8nlohmann16json_abi_v3_11_36detail10type_error6createIPKNS0_10basic_jsonINSt3__13mapENS5_6vectorENS5_12basic_stringIcNS5_11char_traitsIcEENS5_9allocatorIcEEEEbxydSB_NS0_14adl_serializerENS7_IhNSB_IhEEEEvEELi0EEES2_iRKSD_T_, symObjAddr: 0x2E308, symBinAddr: 0x10002F0F8, symSize: 0x130 }
  - { offsetInCU: 0x4BAB6, offset: 0x4BAB6, size: 0x8, addend: 0x0, symName: __ZNK8nlohmann16json_abi_v3_11_310basic_jsonINSt3__13mapENS2_6vectorENS2_12basic_stringIcNS2_11char_traitsIcEENS2_9allocatorIcEEEEbxydS8_NS0_14adl_serializerENS4_IhNS8_IhEEEEvE9type_nameEv, symObjAddr: 0x2E504, symBinAddr: 0x10002F2F4, symSize: 0xD8 }
  - { offsetInCU: 0x4BADC, offset: 0x4BADC, size: 0x8, addend: 0x0, symName: __ZN8nlohmann16json_abi_v3_11_36detail9exception4nameERKNSt3__112basic_stringIcNS3_11char_traitsIcEENS3_9allocatorIcEEEEi, symObjAddr: 0x2E6DC, symBinAddr: 0x10002F4CC, symSize: 0xA0 }
  - { offsetInCU: 0x4BB0F, offset: 0x4BB0F, size: 0x8, addend: 0x0, symName: __ZN8nlohmann16json_abi_v3_11_36detail9exception11diagnosticsINS0_10basic_jsonINSt3__13mapENS5_6vectorENS5_12basic_stringIcNS5_11char_traitsIcEENS5_9allocatorIcEEEEbxydSB_NS0_14adl_serializerENS7_IhNSB_IhEEEEvEEEESD_PKT_, symObjAddr: 0x2E77C, symBinAddr: 0x10002F56C, symSize: 0x3C }
  - { offsetInCU: 0x4BB3C, offset: 0x4BB3C, size: 0x8, addend: 0x0, symName: __ZNKSt3__112basic_stringIcNS_11char_traitsIcEENS_9allocatorIcEEE5c_strB8ue170006Ev, symObjAddr: 0x2E7B8, symBinAddr: 0x10002F5A8, symSize: 0x24 }
  - { offsetInCU: 0x4BB62, offset: 0x4BB62, size: 0x8, addend: 0x0, symName: __ZN8nlohmann16json_abi_v3_11_36detail10type_errorC1EiPKc, symObjAddr: 0x2E7DC, symBinAddr: 0x10002F5CC, symSize: 0x3C }
  - { offsetInCU: 0x4BBAA, offset: 0x4BBAA, size: 0x8, addend: 0x0, symName: __ZNSt3__112basic_stringIcNS_11char_traitsIcEENS_9allocatorIcEEE6appendB8ue170006ERKS5_, symObjAddr: 0x2E924, symBinAddr: 0x10002F714, symSize: 0x4C }
  - { offsetInCU: 0x4BBDF, offset: 0x4BBDF, size: 0x8, addend: 0x0, symName: __ZN8nlohmann16json_abi_v3_11_36detail10type_errorC2EiPKc, symObjAddr: 0x2ED90, symBinAddr: 0x10002FB80, symSize: 0x54 }
  - { offsetInCU: 0x4BC27, offset: 0x4BC27, size: 0x8, addend: 0x0, symName: __ZN8nlohmann16json_abi_v3_11_36detail9exceptionC2EiPKc, symObjAddr: 0x2EDE4, symBinAddr: 0x10002FBD4, symSize: 0x8C }
  - { offsetInCU: 0x4BC6F, offset: 0x4BC6F, size: 0x8, addend: 0x0, symName: __ZN8nlohmann16json_abi_v3_11_36detail10type_errorD0Ev, symObjAddr: 0x2EE70, symBinAddr: 0x10002FC60, symSize: 0x30 }
  - { offsetInCU: 0x4BC9C, offset: 0x4BC9C, size: 0x8, addend: 0x0, symName: __ZNK8nlohmann16json_abi_v3_11_36detail9exception4whatEv, symObjAddr: 0x2EEA0, symBinAddr: 0x10002FC90, symSize: 0x28 }
  - { offsetInCU: 0x4BCC2, offset: 0x4BCC2, size: 0x8, addend: 0x0, symName: __ZNSt9exceptionC2B8ue170006Ev, symObjAddr: 0x2EEC8, symBinAddr: 0x10002FCB8, symSize: 0x24 }
  - { offsetInCU: 0x4BCEC, offset: 0x4BCEC, size: 0x8, addend: 0x0, symName: __ZN8nlohmann16json_abi_v3_11_36detail9exceptionD1Ev, symObjAddr: 0x2EEEC, symBinAddr: 0x10002FCDC, symSize: 0x2C }
  - { offsetInCU: 0x4BD19, offset: 0x4BD19, size: 0x8, addend: 0x0, symName: __ZN8nlohmann16json_abi_v3_11_36detail9exceptionD0Ev, symObjAddr: 0x2EF18, symBinAddr: 0x10002FD08, symSize: 0x30 }
  - { offsetInCU: 0x4BD46, offset: 0x4BD46, size: 0x8, addend: 0x0, symName: __ZN8nlohmann16json_abi_v3_11_36detail9exceptionD2Ev, symObjAddr: 0x2EF48, symBinAddr: 0x10002FD38, symSize: 0x48 }
  - { offsetInCU: 0x4BD73, offset: 0x4BD73, size: 0x8, addend: 0x0, symName: __ZN8nlohmann16json_abi_v3_11_36detail9exception11diagnosticsEDn, symObjAddr: 0x2F048, symBinAddr: 0x10002FE38, symSize: 0x3C }
  - { offsetInCU: 0x4BD94, offset: 0x4BD94, size: 0x8, addend: 0x0, symName: __ZN8nlohmann16json_abi_v3_11_36detail10type_errorD2Ev, symObjAddr: 0x2F084, symBinAddr: 0x10002FE74, symSize: 0x2C }
  - { offsetInCU: 0x4BDC1, offset: 0x4BDC1, size: 0x8, addend: 0x0, symName: __ZN8nlohmann16json_abi_v3_11_310basic_jsonINSt3__13mapENS2_6vectorENS2_12basic_stringIcNS2_11char_traitsIcEENS2_9allocatorIcEEEEbxydS8_NS0_14adl_serializerENS4_IhNS8_IhEEEEvE10json_valueC2ENS0_6detail7value_tE, symObjAddr: 0x2F0B0, symBinAddr: 0x10002FEA0, symSize: 0x1DC }
  - { offsetInCU: 0x4BDFA, offset: 0x4BDFA, size: 0x8, addend: 0x0, symName: __ZN8nlohmann16json_abi_v3_11_310basic_jsonINSt3__13mapENS2_6vectorENS2_12basic_stringIcNS2_11char_traitsIcEENS2_9allocatorIcEEEEbxydS8_NS0_14adl_serializerENS4_IhNS8_IhEEEEvE6createINS3_ISA_SE_NS2_4lessIvEENS8_INS2_4pairIKSA_SE_EEEEEEJEEEPT_DpOT0_, symObjAddr: 0x2F2B4, symBinAddr: 0x1000300A4, symSize: 0xEC }
  - { offsetInCU: 0x4BE73, offset: 0x4BE73, size: 0x8, addend: 0x0, symName: __ZN8nlohmann16json_abi_v3_11_310basic_jsonINSt3__13mapENS2_6vectorENS2_12basic_stringIcNS2_11char_traitsIcEENS2_9allocatorIcEEEEbxydS8_NS0_14adl_serializerENS4_IhNS8_IhEEEEvE6createINS4_ISE_NS8_ISE_EEEEJEEEPT_DpOT0_, symObjAddr: 0x2F3A0, symBinAddr: 0x100030190, symSize: 0xEC }
  - { offsetInCU: 0x4BF05, offset: 0x4BF05, size: 0x8, addend: 0x0, symName: __ZN8nlohmann16json_abi_v3_11_310basic_jsonINSt3__13mapENS2_6vectorENS2_12basic_stringIcNS2_11char_traitsIcEENS2_9allocatorIcEEEEbxydS8_NS0_14adl_serializerENS4_IhNS8_IhEEEEvE6createISA_JRA1_KcEEEPT_DpOT0_, symObjAddr: 0x2F48C, symBinAddr: 0x10003027C, symSize: 0xF4 }
  - { offsetInCU: 0x4BF93, offset: 0x4BF93, size: 0x8, addend: 0x0, symName: __ZN8nlohmann16json_abi_v3_11_310basic_jsonINSt3__13mapENS2_6vectorENS2_12basic_stringIcNS2_11char_traitsIcEENS2_9allocatorIcEEEEbxydS8_NS0_14adl_serializerENS4_IhNS8_IhEEEEvE6createINS0_27byte_container_with_subtypeISD_EEJEEEPT_DpOT0_, symObjAddr: 0x2F580, symBinAddr: 0x100030370, symSize: 0xEC }
  - { offsetInCU: 0x4C012, offset: 0x4C012, size: 0x8, addend: 0x0, symName: __ZN8nlohmann16json_abi_v3_11_36detail11other_error6createIDnLi0EEES2_iRKNSt3__112basic_stringIcNS4_11char_traitsIcEENS4_9allocatorIcEEEET_, symObjAddr: 0x2F66C, symBinAddr: 0x10003045C, symSize: 0x130 }
  - { offsetInCU: 0x4C072, offset: 0x4C072, size: 0x8, addend: 0x0, symName: __ZN8nlohmann16json_abi_v3_11_36detail11other_errorD1Ev, symObjAddr: 0x2F79C, symBinAddr: 0x10003058C, symSize: 0x2C }
  - { offsetInCU: 0x4C09F, offset: 0x4C09F, size: 0x8, addend: 0x0, symName: __ZNSt3__116allocator_traitsINS_9allocatorINS_3mapINS_12basic_stringIcNS_11char_traitsIcEENS1_IcEEEEN8nlohmann16json_abi_v3_11_310basic_jsonIS2_NS_6vectorES7_bxydS1_NS9_14adl_serializerENSB_IhNS1_IhEEEEvEENS_4lessIvEENS1_INS_4pairIKS7_SF_EEEEEEEEE8allocateB8ue170006ERSN_m, symObjAddr: 0x2F7C8, symBinAddr: 0x1000305B8, symSize: 0x2C }
  - { offsetInCU: 0x4C173, offset: 0x4C173, size: 0x8, addend: 0x0, symName: __ZNSt3__110unique_ptrINS_3mapINS_12basic_stringIcNS_11char_traitsIcEENS_9allocatorIcEEEEN8nlohmann16json_abi_v3_11_310basic_jsonIS1_NS_6vectorES7_bxydS5_NS9_14adl_serializerENSB_IhNS5_IhEEEEvEENS_4lessIvEENS5_INS_4pairIKS7_SF_EEEEEEZNSF_6createISM_JEEEPT_DpOT0_EUlPSM_E_EC1B8ue170006ILb1EvEEST_NS_16__dependent_typeINS_27__unique_ptr_deleter_sfinaeISU_EEXT_EE15__lval_ref_typeE, symObjAddr: 0x2F7F4, symBinAddr: 0x1000305E4, symSize: 0x3C }
  - { offsetInCU: 0x4C1C4, offset: 0x4C1C4, size: 0x8, addend: 0x0, symName: __ZNSt3__116allocator_traitsINS_9allocatorINS_3mapINS_12basic_stringIcNS_11char_traitsIcEENS1_IcEEEEN8nlohmann16json_abi_v3_11_310basic_jsonIS2_NS_6vectorES7_bxydS1_NS9_14adl_serializerENSB_IhNS1_IhEEEEvEENS_4lessIvEENS1_INS_4pairIKS7_SF_EEEEEEEEE9constructB8ue170006ISM_JEvvEEvRSN_PT_DpOT0_, symObjAddr: 0x2F830, symBinAddr: 0x100030620, symSize: 0x28 }
  - { offsetInCU: 0x4C204, offset: 0x4C204, size: 0x8, addend: 0x0, symName: __ZNKSt3__110unique_ptrINS_3mapINS_12basic_stringIcNS_11char_traitsIcEENS_9allocatorIcEEEEN8nlohmann16json_abi_v3_11_310basic_jsonIS1_NS_6vectorES7_bxydS5_NS9_14adl_serializerENSB_IhNS5_IhEEEEvEENS_4lessIvEENS5_INS_4pairIKS7_SF_EEEEEEZNSF_6createISM_JEEEPT_DpOT0_EUlPSM_E_E3getB8ue170006Ev, symObjAddr: 0x2F858, symBinAddr: 0x100030648, symSize: 0x28 }
  - { offsetInCU: 0x4C22A, offset: 0x4C22A, size: 0x8, addend: 0x0, symName: __ZNSt3__110unique_ptrINS_3mapINS_12basic_stringIcNS_11char_traitsIcEENS_9allocatorIcEEEEN8nlohmann16json_abi_v3_11_310basic_jsonIS1_NS_6vectorES7_bxydS5_NS9_14adl_serializerENSB_IhNS5_IhEEEEvEENS_4lessIvEENS5_INS_4pairIKS7_SF_EEEEEEZNSF_6createISM_JEEEPT_DpOT0_EUlPSM_E_E7releaseB8ue170006Ev, symObjAddr: 0x2F8B0, symBinAddr: 0x1000306A0, symSize: 0x44 }
  - { offsetInCU: 0x4C25F, offset: 0x4C25F, size: 0x8, addend: 0x0, symName: __ZNSt3__110unique_ptrINS_3mapINS_12basic_stringIcNS_11char_traitsIcEENS_9allocatorIcEEEEN8nlohmann16json_abi_v3_11_310basic_jsonIS1_NS_6vectorES7_bxydS5_NS9_14adl_serializerENSB_IhNS5_IhEEEEvEENS_4lessIvEENS5_INS_4pairIKS7_SF_EEEEEEZNSF_6createISM_JEEEPT_DpOT0_EUlPSM_E_ED1B8ue170006Ev, symObjAddr: 0x2F8F4, symBinAddr: 0x1000306E4, symSize: 0x2C }
  - { offsetInCU: 0x4C289, offset: 0x4C289, size: 0x8, addend: 0x0, symName: __ZNSt3__19allocatorINS_3mapINS_12basic_stringIcNS_11char_traitsIcEENS0_IcEEEEN8nlohmann16json_abi_v3_11_310basic_jsonIS1_NS_6vectorES6_bxydS0_NS8_14adl_serializerENSA_IhNS0_IhEEEEvEENS_4lessIvEENS0_INS_4pairIKS6_SE_EEEEEEE8allocateB8ue170006Em, symObjAddr: 0x2F920, symBinAddr: 0x100030710, symSize: 0x5C }
  - { offsetInCU: 0x4C2C8, offset: 0x4C2C8, size: 0x8, addend: 0x0, symName: __ZNSt3__116allocator_traitsINS_9allocatorINS_3mapINS_12basic_stringIcNS_11char_traitsIcEENS1_IcEEEEN8nlohmann16json_abi_v3_11_310basic_jsonIS2_NS_6vectorES7_bxydS1_NS9_14adl_serializerENSB_IhNS1_IhEEEEvEENS_4lessIvEENS1_INS_4pairIKS7_SF_EEEEEEEEE8max_sizeB8ue170006ISN_vvEEmRKSN_, symObjAddr: 0x2F97C, symBinAddr: 0x10003076C, symSize: 0x28 }
  - { offsetInCU: 0x4C2F4, offset: 0x4C2F4, size: 0x8, addend: 0x0, symName: __ZNSt3__110unique_ptrINS_3mapINS_12basic_stringIcNS_11char_traitsIcEENS_9allocatorIcEEEEN8nlohmann16json_abi_v3_11_310basic_jsonIS1_NS_6vectorES7_bxydS5_NS9_14adl_serializerENSB_IhNS5_IhEEEEvEENS_4lessIvEENS5_INS_4pairIKS7_SF_EEEEEEZNSF_6createISM_JEEEPT_DpOT0_EUlPSM_E_EC2B8ue170006ILb1EvEEST_NS_16__dependent_typeINS_27__unique_ptr_deleter_sfinaeISU_EEXT_EE15__lval_ref_typeE, symObjAddr: 0x2F9A4, symBinAddr: 0x100030794, symSize: 0x48 }
  - { offsetInCU: 0x4C345, offset: 0x4C345, size: 0x8, addend: 0x0, symName: __ZNSt3__117__compressed_pairIPNS_3mapINS_12basic_stringIcNS_11char_traitsIcEENS_9allocatorIcEEEEN8nlohmann16json_abi_v3_11_310basic_jsonIS1_NS_6vectorES7_bxydS5_NS9_14adl_serializerENSB_IhNS5_IhEEEEvEENS_4lessIvEENS5_INS_4pairIKS7_SF_EEEEEEZNSF_6createISM_JEEEPT_DpOT0_EUlSN_E_EC1B8ue170006IRSN_RKSU_EEOSP_OT0_, symObjAddr: 0x2F9EC, symBinAddr: 0x1000307DC, symSize: 0x3C }
  - { offsetInCU: 0x4C39D, offset: 0x4C39D, size: 0x8, addend: 0x0, symName: __ZNSt3__117__compressed_pairIPNS_3mapINS_12basic_stringIcNS_11char_traitsIcEENS_9allocatorIcEEEEN8nlohmann16json_abi_v3_11_310basic_jsonIS1_NS_6vectorES7_bxydS5_NS9_14adl_serializerENSB_IhNS5_IhEEEEvEENS_4lessIvEENS5_INS_4pairIKS7_SF_EEEEEEZNSF_6createISM_JEEEPT_DpOT0_EUlSN_E_EC2B8ue170006IRSN_RKSU_EEOSP_OT0_, symObjAddr: 0x2FA28, symBinAddr: 0x100030818, symSize: 0x48 }
  - { offsetInCU: 0x4C3F5, offset: 0x4C3F5, size: 0x8, addend: 0x0, symName: __ZNSt3__122__compressed_pair_elemIPNS_3mapINS_12basic_stringIcNS_11char_traitsIcEENS_9allocatorIcEEEEN8nlohmann16json_abi_v3_11_310basic_jsonIS1_NS_6vectorES7_bxydS5_NS9_14adl_serializerENSB_IhNS5_IhEEEEvEENS_4lessIvEENS5_INS_4pairIKS7_SF_EEEEEELi0ELb0EEC2B8ue170006IRSN_vEEOT_, symObjAddr: 0x2FA70, symBinAddr: 0x100030860, symSize: 0x24 }
  - { offsetInCU: 0x4C437, offset: 0x4C437, size: 0x8, addend: 0x0, symName: __ZNSt3__122__compressed_pair_elemIZN8nlohmann16json_abi_v3_11_310basic_jsonINS_3mapENS_6vectorENS_12basic_stringIcNS_11char_traitsIcEENS_9allocatorIcEEEEbxydS9_NS2_14adl_serializerENS5_IhNS9_IhEEEEvE6createINS4_ISB_SF_NS_4lessIvEENS9_INS_4pairIKSB_SF_EEEEEEJEEEPT_DpOT0_EUlPSN_E_Li1ELb0EEC2B8ue170006IRKSU_vEEOSO_, symObjAddr: 0x2FA94, symBinAddr: 0x100030884, symSize: 0x24 }
  - { offsetInCU: 0x4C479, offset: 0x4C479, size: 0x8, addend: 0x0, symName: __ZNSt3__13mapINS_12basic_stringIcNS_11char_traitsIcEENS_9allocatorIcEEEEN8nlohmann16json_abi_v3_11_310basic_jsonIS0_NS_6vectorES6_bxydS4_NS8_14adl_serializerENSA_IhNS4_IhEEEEvEENS_4lessIvEENS4_INS_4pairIKS6_SE_EEEEEC1B8ue170006Ev, symObjAddr: 0x2FAEC, symBinAddr: 0x1000308DC, symSize: 0x2C }
  - { offsetInCU: 0x4C4A3, offset: 0x4C4A3, size: 0x8, addend: 0x0, symName: __ZNSt3__13mapINS_12basic_stringIcNS_11char_traitsIcEENS_9allocatorIcEEEEN8nlohmann16json_abi_v3_11_310basic_jsonIS0_NS_6vectorES6_bxydS4_NS8_14adl_serializerENSA_IhNS4_IhEEEEvEENS_4lessIvEENS4_INS_4pairIKS6_SE_EEEEEC2B8ue170006Ev, symObjAddr: 0x2FB18, symBinAddr: 0x100030908, symSize: 0x40 }
  - { offsetInCU: 0x4C4CD, offset: 0x4C4CD, size: 0x8, addend: 0x0, symName: __ZNSt3__119__map_value_compareINS_12basic_stringIcNS_11char_traitsIcEENS_9allocatorIcEEEENS_12__value_typeIS6_N8nlohmann16json_abi_v3_11_310basic_jsonINS_3mapENS_6vectorES6_bxydS4_NS9_14adl_serializerENSC_IhNS4_IhEEEEvEEEENS_4lessIvEELb1EEC1B8ue170006ESJ_, symObjAddr: 0x2FB58, symBinAddr: 0x100030948, symSize: 0x2C }
  - { offsetInCU: 0x4C506, offset: 0x4C506, size: 0x8, addend: 0x0, symName: __ZNSt3__16__treeINS_12__value_typeINS_12basic_stringIcNS_11char_traitsIcEENS_9allocatorIcEEEEN8nlohmann16json_abi_v3_11_310basic_jsonINS_3mapENS_6vectorES7_bxydS5_NS9_14adl_serializerENSC_IhNS5_IhEEEEvEEEENS_19__map_value_compareIS7_SH_NS_4lessIvEELb1EEENS5_ISH_EEEC1ERKSL_, symObjAddr: 0x2FB84, symBinAddr: 0x100030974, symSize: 0x34 }
  - { offsetInCU: 0x4C541, offset: 0x4C541, size: 0x8, addend: 0x0, symName: __ZNSt3__119__map_value_compareINS_12basic_stringIcNS_11char_traitsIcEENS_9allocatorIcEEEENS_12__value_typeIS6_N8nlohmann16json_abi_v3_11_310basic_jsonINS_3mapENS_6vectorES6_bxydS4_NS9_14adl_serializerENSC_IhNS4_IhEEEEvEEEENS_4lessIvEELb1EEC2B8ue170006ESJ_, symObjAddr: 0x2FBB8, symBinAddr: 0x1000309A8, symSize: 0x14 }
  - { offsetInCU: 0x4C57A, offset: 0x4C57A, size: 0x8, addend: 0x0, symName: __ZNSt3__16__treeINS_12__value_typeINS_12basic_stringIcNS_11char_traitsIcEENS_9allocatorIcEEEEN8nlohmann16json_abi_v3_11_310basic_jsonINS_3mapENS_6vectorES7_bxydS5_NS9_14adl_serializerENSC_IhNS5_IhEEEEvEEEENS_19__map_value_compareIS7_SH_NS_4lessIvEELb1EEENS5_ISH_EEEC2ERKSL_, symObjAddr: 0x2FBCC, symBinAddr: 0x1000309BC, symSize: 0x7C }
  - { offsetInCU: 0x4C5B5, offset: 0x4C5B5, size: 0x8, addend: 0x0, symName: __ZNSt3__117__compressed_pairINS_15__tree_end_nodeIPNS_16__tree_node_baseIPvEEEENS_9allocatorINS_11__tree_nodeINS_12__value_typeINS_12basic_stringIcNS_11char_traitsIcEENS7_IcEEEEN8nlohmann16json_abi_v3_11_310basic_jsonINS_3mapENS_6vectorESE_bxydS7_NSG_14adl_serializerENSJ_IhNS7_IhEEEEvEEEES3_EEEEEC1B8ue170006ILb1EvEEv, symObjAddr: 0x2FC48, symBinAddr: 0x100030A38, symSize: 0x2C }
  - { offsetInCU: 0x4C5EA, offset: 0x4C5EA, size: 0x8, addend: 0x0, symName: __ZNSt3__117__compressed_pairImNS_19__map_value_compareINS_12basic_stringIcNS_11char_traitsIcEENS_9allocatorIcEEEENS_12__value_typeIS7_N8nlohmann16json_abi_v3_11_310basic_jsonINS_3mapENS_6vectorES7_bxydS5_NSA_14adl_serializerENSD_IhNS5_IhEEEEvEEEENS_4lessIvEELb1EEEEC1B8ue170006IiRKSL_EEOT_OT0_, symObjAddr: 0x2FC74, symBinAddr: 0x100030A64, symSize: 0x3C }
  - { offsetInCU: 0x4C642, offset: 0x4C642, size: 0x8, addend: 0x0, symName: __ZNSt3__117__compressed_pairINS_15__tree_end_nodeIPNS_16__tree_node_baseIPvEEEENS_9allocatorINS_11__tree_nodeINS_12__value_typeINS_12basic_stringIcNS_11char_traitsIcEENS7_IcEEEEN8nlohmann16json_abi_v3_11_310basic_jsonINS_3mapENS_6vectorESE_bxydS7_NSG_14adl_serializerENSJ_IhNS7_IhEEEEvEEEES3_EEEEEC2B8ue170006ILb1EvEEv, symObjAddr: 0x2FCB0, symBinAddr: 0x100030AA0, symSize: 0x34 }
  - { offsetInCU: 0x4C677, offset: 0x4C677, size: 0x8, addend: 0x0, symName: __ZNSt3__122__compressed_pair_elemINS_15__tree_end_nodeIPNS_16__tree_node_baseIPvEEEELi0ELb0EEC2B8ue170006ENS_16__value_init_tagE, symObjAddr: 0x2FCE4, symBinAddr: 0x100030AD4, symSize: 0x2C }
  - { offsetInCU: 0x4C6AC, offset: 0x4C6AC, size: 0x8, addend: 0x0, symName: __ZNSt3__122__compressed_pair_elemINS_9allocatorINS_11__tree_nodeINS_12__value_typeINS_12basic_stringIcNS_11char_traitsIcEENS1_IcEEEEN8nlohmann16json_abi_v3_11_310basic_jsonINS_3mapENS_6vectorES8_bxydS1_NSA_14adl_serializerENSD_IhNS1_IhEEEEvEEEEPvEEEELi1ELb1EEC2B8ue170006ENS_16__value_init_tagE, symObjAddr: 0x2FD10, symBinAddr: 0x100030B00, symSize: 0x2C }
  - { offsetInCU: 0x4C6E1, offset: 0x4C6E1, size: 0x8, addend: 0x0, symName: __ZNSt3__115__tree_end_nodeIPNS_16__tree_node_baseIPvEEEC1B8ue170006Ev, symObjAddr: 0x2FD3C, symBinAddr: 0x100030B2C, symSize: 0x2C }
  - { offsetInCU: 0x4C70B, offset: 0x4C70B, size: 0x8, addend: 0x0, symName: __ZNSt3__115__tree_end_nodeIPNS_16__tree_node_baseIPvEEEC2B8ue170006Ev, symObjAddr: 0x2FD68, symBinAddr: 0x100030B58, symSize: 0x18 }
  - { offsetInCU: 0x4C735, offset: 0x4C735, size: 0x8, addend: 0x0, symName: __ZNSt3__19allocatorINS_11__tree_nodeINS_12__value_typeINS_12basic_stringIcNS_11char_traitsIcEENS0_IcEEEEN8nlohmann16json_abi_v3_11_310basic_jsonINS_3mapENS_6vectorES7_bxydS0_NS9_14adl_serializerENSC_IhNS0_IhEEEEvEEEEPvEEEC2B8ue170006Ev, symObjAddr: 0x2FD80, symBinAddr: 0x100030B70, symSize: 0x2C }
  - { offsetInCU: 0x4C75F, offset: 0x4C75F, size: 0x8, addend: 0x0, symName: __ZNSt3__116__non_trivial_ifILb1ENS_9allocatorINS_11__tree_nodeINS_12__value_typeINS_12basic_stringIcNS_11char_traitsIcEENS1_IcEEEEN8nlohmann16json_abi_v3_11_310basic_jsonINS_3mapENS_6vectorES8_bxydS1_NSA_14adl_serializerENSD_IhNS1_IhEEEEvEEEEPvEEEEEC2B8ue170006Ev, symObjAddr: 0x2FDAC, symBinAddr: 0x100030B9C, symSize: 0x14 }
  - { offsetInCU: 0x4C789, offset: 0x4C789, size: 0x8, addend: 0x0, symName: __ZNSt3__117__compressed_pairImNS_19__map_value_compareINS_12basic_stringIcNS_11char_traitsIcEENS_9allocatorIcEEEENS_12__value_typeIS7_N8nlohmann16json_abi_v3_11_310basic_jsonINS_3mapENS_6vectorES7_bxydS5_NSA_14adl_serializerENSD_IhNS5_IhEEEEvEEEENS_4lessIvEELb1EEEEC2B8ue170006IiRKSL_EEOT_OT0_, symObjAddr: 0x2FDC0, symBinAddr: 0x100030BB0, symSize: 0x44 }
  - { offsetInCU: 0x4C7E1, offset: 0x4C7E1, size: 0x8, addend: 0x0, symName: __ZNSt3__122__compressed_pair_elemImLi0ELb0EEC2B8ue170006IivEEOT_, symObjAddr: 0x2FE04, symBinAddr: 0x100030BF4, symSize: 0x24 }
  - { offsetInCU: 0x4C823, offset: 0x4C823, size: 0x8, addend: 0x0, symName: __ZNSt3__122__compressed_pair_elemINS_19__map_value_compareINS_12basic_stringIcNS_11char_traitsIcEENS_9allocatorIcEEEENS_12__value_typeIS7_N8nlohmann16json_abi_v3_11_310basic_jsonINS_3mapENS_6vectorES7_bxydS5_NSA_14adl_serializerENSD_IhNS5_IhEEEEvEEEENS_4lessIvEELb1EEELi1ELb1EEC2B8ue170006IRKSL_vEEOT_, symObjAddr: 0x2FE28, symBinAddr: 0x100030C18, symSize: 0x18 }
  - { offsetInCU: 0x4C865, offset: 0x4C865, size: 0x8, addend: 0x0, symName: __ZNKSt3__117__compressed_pairIPNS_3mapINS_12basic_stringIcNS_11char_traitsIcEENS_9allocatorIcEEEEN8nlohmann16json_abi_v3_11_310basic_jsonIS1_NS_6vectorES7_bxydS5_NS9_14adl_serializerENSB_IhNS5_IhEEEEvEENS_4lessIvEENS5_INS_4pairIKS7_SF_EEEEEEZNSF_6createISM_JEEEPT_DpOT0_EUlSN_E_E5firstB8ue170006Ev, symObjAddr: 0x2FE40, symBinAddr: 0x100030C30, symSize: 0x24 }
  - { offsetInCU: 0x4C88B, offset: 0x4C88B, size: 0x8, addend: 0x0, symName: __ZNKSt3__122__compressed_pair_elemIPNS_3mapINS_12basic_stringIcNS_11char_traitsIcEENS_9allocatorIcEEEEN8nlohmann16json_abi_v3_11_310basic_jsonIS1_NS_6vectorES7_bxydS5_NS9_14adl_serializerENSB_IhNS5_IhEEEEvEENS_4lessIvEENS5_INS_4pairIKS7_SF_EEEEEELi0ELb0EE5__getB8ue170006Ev, symObjAddr: 0x2FE64, symBinAddr: 0x100030C54, symSize: 0x14 }
  - { offsetInCU: 0x4C8B1, offset: 0x4C8B1, size: 0x8, addend: 0x0, symName: __ZNKSt3__110unique_ptrINS_3mapINS_12basic_stringIcNS_11char_traitsIcEENS_9allocatorIcEEEEN8nlohmann16json_abi_v3_11_310basic_jsonIS1_NS_6vectorES7_bxydS5_NS9_14adl_serializerENSB_IhNS5_IhEEEEvEENS_4lessIvEENS5_INS_4pairIKS7_SF_EEEEEEZNSF_6createISM_JEEEPT_DpOT0_EUlPSM_E_EcvbB8ue170006Ev, symObjAddr: 0x2FE78, symBinAddr: 0x100030C68, symSize: 0x34 }
  - { offsetInCU: 0x4C8D7, offset: 0x4C8D7, size: 0x8, addend: 0x0, symName: __ZNSt3__117__compressed_pairIPNS_3mapINS_12basic_stringIcNS_11char_traitsIcEENS_9allocatorIcEEEEN8nlohmann16json_abi_v3_11_310basic_jsonIS1_NS_6vectorES7_bxydS5_NS9_14adl_serializerENSB_IhNS5_IhEEEEvEENS_4lessIvEENS5_INS_4pairIKS7_SF_EEEEEEZNSF_6createISM_JEEEPT_DpOT0_EUlSN_E_E5firstB8ue170006Ev, symObjAddr: 0x2FEAC, symBinAddr: 0x100030C9C, symSize: 0x24 }
  - { offsetInCU: 0x4C8FD, offset: 0x4C8FD, size: 0x8, addend: 0x0, symName: __ZNSt3__122__compressed_pair_elemIPNS_3mapINS_12basic_stringIcNS_11char_traitsIcEENS_9allocatorIcEEEEN8nlohmann16json_abi_v3_11_310basic_jsonIS1_NS_6vectorES7_bxydS5_NS9_14adl_serializerENSB_IhNS5_IhEEEEvEENS_4lessIvEENS5_INS_4pairIKS7_SF_EEEEEELi0ELb0EE5__getB8ue170006Ev, symObjAddr: 0x2FED0, symBinAddr: 0x100030CC0, symSize: 0x14 }
  - { offsetInCU: 0x4C923, offset: 0x4C923, size: 0x8, addend: 0x0, symName: __ZNSt3__110unique_ptrINS_3mapINS_12basic_stringIcNS_11char_traitsIcEENS_9allocatorIcEEEEN8nlohmann16json_abi_v3_11_310basic_jsonIS1_NS_6vectorES7_bxydS5_NS9_14adl_serializerENSB_IhNS5_IhEEEEvEENS_4lessIvEENS5_INS_4pairIKS7_SF_EEEEEEZNSF_6createISM_JEEEPT_DpOT0_EUlPSM_E_ED2B8ue170006Ev, symObjAddr: 0x2FEE4, symBinAddr: 0x100030CD4, symSize: 0x30 }
  - { offsetInCU: 0x4C94D, offset: 0x4C94D, size: 0x8, addend: 0x0, symName: __ZNSt3__110unique_ptrINS_3mapINS_12basic_stringIcNS_11char_traitsIcEENS_9allocatorIcEEEEN8nlohmann16json_abi_v3_11_310basic_jsonIS1_NS_6vectorES7_bxydS5_NS9_14adl_serializerENSB_IhNS5_IhEEEEvEENS_4lessIvEENS5_INS_4pairIKS7_SF_EEEEEEZNSF_6createISM_JEEEPT_DpOT0_EUlPSM_E_E5resetB8ue170006EST_, symObjAddr: 0x2FF14, symBinAddr: 0x100030D04, symSize: 0x80 }
  - { offsetInCU: 0x4C991, offset: 0x4C991, size: 0x8, addend: 0x0, symName: __ZNSt3__117__compressed_pairIPNS_3mapINS_12basic_stringIcNS_11char_traitsIcEENS_9allocatorIcEEEEN8nlohmann16json_abi_v3_11_310basic_jsonIS1_NS_6vectorES7_bxydS5_NS9_14adl_serializerENSB_IhNS5_IhEEEEvEENS_4lessIvEENS5_INS_4pairIKS7_SF_EEEEEEZNSF_6createISM_JEEEPT_DpOT0_EUlSN_E_E6secondB8ue170006Ev, symObjAddr: 0x2FF94, symBinAddr: 0x100030D84, symSize: 0x28 }
  - { offsetInCU: 0x4C9BD, offset: 0x4C9BD, size: 0x8, addend: 0x0, symName: __ZZN8nlohmann16json_abi_v3_11_310basic_jsonINSt3__13mapENS2_6vectorENS2_12basic_stringIcNS2_11char_traitsIcEENS2_9allocatorIcEEEEbxydS8_NS0_14adl_serializerENS4_IhNS8_IhEEEEvE6createINS3_ISA_SE_NS2_4lessIvEENS8_INS2_4pairIKSA_SE_EEEEEEJEEEPT_DpOT0_ENKUlPSM_E_clESS_, symObjAddr: 0x2FFBC, symBinAddr: 0x100030DAC, symSize: 0x34 }
  - { offsetInCU: 0x4C9F6, offset: 0x4C9F6, size: 0x8, addend: 0x0, symName: __ZNSt3__122__compressed_pair_elemIZN8nlohmann16json_abi_v3_11_310basic_jsonINS_3mapENS_6vectorENS_12basic_stringIcNS_11char_traitsIcEENS_9allocatorIcEEEEbxydS9_NS2_14adl_serializerENS5_IhNS9_IhEEEEvE6createINS4_ISB_SF_NS_4lessIvEENS9_INS_4pairIKSB_SF_EEEEEEJEEEPT_DpOT0_EUlPSN_E_Li1ELb0EE5__getB8ue170006Ev, symObjAddr: 0x2FFF0, symBinAddr: 0x100030DE0, symSize: 0x14 }
  - { offsetInCU: 0x4CA1C, offset: 0x4CA1C, size: 0x8, addend: 0x0, symName: __ZNSt3__116allocator_traitsINS_9allocatorINS_6vectorIN8nlohmann16json_abi_v3_11_310basic_jsonINS_3mapES2_NS_12basic_stringIcNS_11char_traitsIcEENS1_IcEEEEbxydS1_NS4_14adl_serializerENS2_IhNS1_IhEEEEvEENS1_ISF_EEEEEEE8allocateB8ue170006ERSI_m, symObjAddr: 0x30004, symBinAddr: 0x100030DF4, symSize: 0x2C }
  - { offsetInCU: 0x4CAF0, offset: 0x4CAF0, size: 0x8, addend: 0x0, symName: __ZNSt3__110unique_ptrINS_6vectorIN8nlohmann16json_abi_v3_11_310basic_jsonINS_3mapES1_NS_12basic_stringIcNS_11char_traitsIcEENS_9allocatorIcEEEEbxydS9_NS3_14adl_serializerENS1_IhNS9_IhEEEEvEENS9_ISF_EEEEZNSF_6createISH_JEEEPT_DpOT0_EUlPSH_E_EC1B8ue170006ILb1EvEESO_NS_16__dependent_typeINS_27__unique_ptr_deleter_sfinaeISP_EEXT_EE15__lval_ref_typeE, symObjAddr: 0x30030, symBinAddr: 0x100030E20, symSize: 0x3C }
  - { offsetInCU: 0x4CB41, offset: 0x4CB41, size: 0x8, addend: 0x0, symName: __ZNSt3__116allocator_traitsINS_9allocatorINS_6vectorIN8nlohmann16json_abi_v3_11_310basic_jsonINS_3mapES2_NS_12basic_stringIcNS_11char_traitsIcEENS1_IcEEEEbxydS1_NS4_14adl_serializerENS2_IhNS1_IhEEEEvEENS1_ISF_EEEEEEE9constructB8ue170006ISH_JEvvEEvRSI_PT_DpOT0_, symObjAddr: 0x3006C, symBinAddr: 0x100030E5C, symSize: 0x28 }
  - { offsetInCU: 0x4CB81, offset: 0x4CB81, size: 0x8, addend: 0x0, symName: __ZNKSt3__110unique_ptrINS_6vectorIN8nlohmann16json_abi_v3_11_310basic_jsonINS_3mapES1_NS_12basic_stringIcNS_11char_traitsIcEENS_9allocatorIcEEEEbxydS9_NS3_14adl_serializerENS1_IhNS9_IhEEEEvEENS9_ISF_EEEEZNSF_6createISH_JEEEPT_DpOT0_EUlPSH_E_E3getB8ue170006Ev, symObjAddr: 0x30094, symBinAddr: 0x100030E84, symSize: 0x28 }
  - { offsetInCU: 0x4CBA7, offset: 0x4CBA7, size: 0x8, addend: 0x0, symName: __ZNSt3__110unique_ptrINS_6vectorIN8nlohmann16json_abi_v3_11_310basic_jsonINS_3mapES1_NS_12basic_stringIcNS_11char_traitsIcEENS_9allocatorIcEEEEbxydS9_NS3_14adl_serializerENS1_IhNS9_IhEEEEvEENS9_ISF_EEEEZNSF_6createISH_JEEEPT_DpOT0_EUlPSH_E_E7releaseB8ue170006Ev, symObjAddr: 0x300EC, symBinAddr: 0x100030EDC, symSize: 0x44 }
  - { offsetInCU: 0x4CBDC, offset: 0x4CBDC, size: 0x8, addend: 0x0, symName: __ZNSt3__110unique_ptrINS_6vectorIN8nlohmann16json_abi_v3_11_310basic_jsonINS_3mapES1_NS_12basic_stringIcNS_11char_traitsIcEENS_9allocatorIcEEEEbxydS9_NS3_14adl_serializerENS1_IhNS9_IhEEEEvEENS9_ISF_EEEEZNSF_6createISH_JEEEPT_DpOT0_EUlPSH_E_ED1B8ue170006Ev, symObjAddr: 0x30130, symBinAddr: 0x100030F20, symSize: 0x2C }
  - { offsetInCU: 0x4CC06, offset: 0x4CC06, size: 0x8, addend: 0x0, symName: __ZNSt3__19allocatorINS_6vectorIN8nlohmann16json_abi_v3_11_310basic_jsonINS_3mapES1_NS_12basic_stringIcNS_11char_traitsIcEENS0_IcEEEEbxydS0_NS3_14adl_serializerENS1_IhNS0_IhEEEEvEENS0_ISE_EEEEE8allocateB8ue170006Em, symObjAddr: 0x3015C, symBinAddr: 0x100030F4C, symSize: 0x5C }
  - { offsetInCU: 0x4CC45, offset: 0x4CC45, size: 0x8, addend: 0x0, symName: __ZNSt3__116allocator_traitsINS_9allocatorINS_6vectorIN8nlohmann16json_abi_v3_11_310basic_jsonINS_3mapES2_NS_12basic_stringIcNS_11char_traitsIcEENS1_IcEEEEbxydS1_NS4_14adl_serializerENS2_IhNS1_IhEEEEvEENS1_ISF_EEEEEEE8max_sizeB8ue170006ISI_vvEEmRKSI_, symObjAddr: 0x301B8, symBinAddr: 0x100030FA8, symSize: 0x28 }
  - { offsetInCU: 0x4CC71, offset: 0x4CC71, size: 0x8, addend: 0x0, symName: __ZNSt3__110unique_ptrINS_6vectorIN8nlohmann16json_abi_v3_11_310basic_jsonINS_3mapES1_NS_12basic_stringIcNS_11char_traitsIcEENS_9allocatorIcEEEEbxydS9_NS3_14adl_serializerENS1_IhNS9_IhEEEEvEENS9_ISF_EEEEZNSF_6createISH_JEEEPT_DpOT0_EUlPSH_E_EC2B8ue170006ILb1EvEESO_NS_16__dependent_typeINS_27__unique_ptr_deleter_sfinaeISP_EEXT_EE15__lval_ref_typeE, symObjAddr: 0x301E0, symBinAddr: 0x100030FD0, symSize: 0x48 }
  - { offsetInCU: 0x4CCC2, offset: 0x4CCC2, size: 0x8, addend: 0x0, symName: __ZNSt3__117__compressed_pairIPNS_6vectorIN8nlohmann16json_abi_v3_11_310basic_jsonINS_3mapES1_NS_12basic_stringIcNS_11char_traitsIcEENS_9allocatorIcEEEEbxydS9_NS3_14adl_serializerENS1_IhNS9_IhEEEEvEENS9_ISF_EEEEZNSF_6createISH_JEEEPT_DpOT0_EUlSI_E_EC1B8ue170006IRSI_RKSP_EEOSK_OT0_, symObjAddr: 0x30228, symBinAddr: 0x100031018, symSize: 0x3C }
  - { offsetInCU: 0x4CD1A, offset: 0x4CD1A, size: 0x8, addend: 0x0, symName: __ZNSt3__117__compressed_pairIPNS_6vectorIN8nlohmann16json_abi_v3_11_310basic_jsonINS_3mapES1_NS_12basic_stringIcNS_11char_traitsIcEENS_9allocatorIcEEEEbxydS9_NS3_14adl_serializerENS1_IhNS9_IhEEEEvEENS9_ISF_EEEEZNSF_6createISH_JEEEPT_DpOT0_EUlSI_E_EC2B8ue170006IRSI_RKSP_EEOSK_OT0_, symObjAddr: 0x30264, symBinAddr: 0x100031054, symSize: 0x48 }
  - { offsetInCU: 0x4CD72, offset: 0x4CD72, size: 0x8, addend: 0x0, symName: __ZNSt3__122__compressed_pair_elemIPNS_6vectorIN8nlohmann16json_abi_v3_11_310basic_jsonINS_3mapES1_NS_12basic_stringIcNS_11char_traitsIcEENS_9allocatorIcEEEEbxydS9_NS3_14adl_serializerENS1_IhNS9_IhEEEEvEENS9_ISF_EEEELi0ELb0EEC2B8ue170006IRSI_vEEOT_, symObjAddr: 0x302AC, symBinAddr: 0x10003109C, symSize: 0x24 }
  - { offsetInCU: 0x4CDB4, offset: 0x4CDB4, size: 0x8, addend: 0x0, symName: __ZNSt3__122__compressed_pair_elemIZN8nlohmann16json_abi_v3_11_310basic_jsonINS_3mapENS_6vectorENS_12basic_stringIcNS_11char_traitsIcEENS_9allocatorIcEEEEbxydS9_NS2_14adl_serializerENS5_IhNS9_IhEEEEvE6createINS5_ISF_NS9_ISF_EEEEJEEEPT_DpOT0_EUlPSI_E_Li1ELb0EEC2B8ue170006IRKSP_vEEOSJ_, symObjAddr: 0x302D0, symBinAddr: 0x1000310C0, symSize: 0x24 }
  - { offsetInCU: 0x4CDF6, offset: 0x4CDF6, size: 0x8, addend: 0x0, symName: __ZNKSt3__117__compressed_pairIPNS_6vectorIN8nlohmann16json_abi_v3_11_310basic_jsonINS_3mapES1_NS_12basic_stringIcNS_11char_traitsIcEENS_9allocatorIcEEEEbxydS9_NS3_14adl_serializerENS1_IhNS9_IhEEEEvEENS9_ISF_EEEEZNSF_6createISH_JEEEPT_DpOT0_EUlSI_E_E5firstB8ue170006Ev, symObjAddr: 0x30328, symBinAddr: 0x100031118, symSize: 0x24 }
  - { offsetInCU: 0x4CE1C, offset: 0x4CE1C, size: 0x8, addend: 0x0, symName: __ZNKSt3__122__compressed_pair_elemIPNS_6vectorIN8nlohmann16json_abi_v3_11_310basic_jsonINS_3mapES1_NS_12basic_stringIcNS_11char_traitsIcEENS_9allocatorIcEEEEbxydS9_NS3_14adl_serializerENS1_IhNS9_IhEEEEvEENS9_ISF_EEEELi0ELb0EE5__getB8ue170006Ev, symObjAddr: 0x3034C, symBinAddr: 0x10003113C, symSize: 0x14 }
  - { offsetInCU: 0x4CE42, offset: 0x4CE42, size: 0x8, addend: 0x0, symName: __ZNKSt3__110unique_ptrINS_6vectorIN8nlohmann16json_abi_v3_11_310basic_jsonINS_3mapES1_NS_12basic_stringIcNS_11char_traitsIcEENS_9allocatorIcEEEEbxydS9_NS3_14adl_serializerENS1_IhNS9_IhEEEEvEENS9_ISF_EEEEZNSF_6createISH_JEEEPT_DpOT0_EUlPSH_E_EcvbB8ue170006Ev, symObjAddr: 0x30360, symBinAddr: 0x100031150, symSize: 0x34 }
  - { offsetInCU: 0x4CE68, offset: 0x4CE68, size: 0x8, addend: 0x0, symName: __ZNSt3__117__compressed_pairIPNS_6vectorIN8nlohmann16json_abi_v3_11_310basic_jsonINS_3mapES1_NS_12basic_stringIcNS_11char_traitsIcEENS_9allocatorIcEEEEbxydS9_NS3_14adl_serializerENS1_IhNS9_IhEEEEvEENS9_ISF_EEEEZNSF_6createISH_JEEEPT_DpOT0_EUlSI_E_E5firstB8ue170006Ev, symObjAddr: 0x30394, symBinAddr: 0x100031184, symSize: 0x24 }
  - { offsetInCU: 0x4CE8E, offset: 0x4CE8E, size: 0x8, addend: 0x0, symName: __ZNSt3__122__compressed_pair_elemIPNS_6vectorIN8nlohmann16json_abi_v3_11_310basic_jsonINS_3mapES1_NS_12basic_stringIcNS_11char_traitsIcEENS_9allocatorIcEEEEbxydS9_NS3_14adl_serializerENS1_IhNS9_IhEEEEvEENS9_ISF_EEEELi0ELb0EE5__getB8ue170006Ev, symObjAddr: 0x303B8, symBinAddr: 0x1000311A8, symSize: 0x14 }
  - { offsetInCU: 0x4CEB4, offset: 0x4CEB4, size: 0x8, addend: 0x0, symName: __ZNSt3__110unique_ptrINS_6vectorIN8nlohmann16json_abi_v3_11_310basic_jsonINS_3mapES1_NS_12basic_stringIcNS_11char_traitsIcEENS_9allocatorIcEEEEbxydS9_NS3_14adl_serializerENS1_IhNS9_IhEEEEvEENS9_ISF_EEEEZNSF_6createISH_JEEEPT_DpOT0_EUlPSH_E_ED2B8ue170006Ev, symObjAddr: 0x303CC, symBinAddr: 0x1000311BC, symSize: 0x30 }
  - { offsetInCU: 0x4CEDE, offset: 0x4CEDE, size: 0x8, addend: 0x0, symName: __ZNSt3__110unique_ptrINS_6vectorIN8nlohmann16json_abi_v3_11_310basic_jsonINS_3mapES1_NS_12basic_stringIcNS_11char_traitsIcEENS_9allocatorIcEEEEbxydS9_NS3_14adl_serializerENS1_IhNS9_IhEEEEvEENS9_ISF_EEEEZNSF_6createISH_JEEEPT_DpOT0_EUlPSH_E_E5resetB8ue170006ESO_, symObjAddr: 0x303FC, symBinAddr: 0x1000311EC, symSize: 0x80 }
  - { offsetInCU: 0x4CF22, offset: 0x4CF22, size: 0x8, addend: 0x0, symName: __ZNSt3__117__compressed_pairIPNS_6vectorIN8nlohmann16json_abi_v3_11_310basic_jsonINS_3mapES1_NS_12basic_stringIcNS_11char_traitsIcEENS_9allocatorIcEEEEbxydS9_NS3_14adl_serializerENS1_IhNS9_IhEEEEvEENS9_ISF_EEEEZNSF_6createISH_JEEEPT_DpOT0_EUlSI_E_E6secondB8ue170006Ev, symObjAddr: 0x3047C, symBinAddr: 0x10003126C, symSize: 0x28 }
  - { offsetInCU: 0x4CF4E, offset: 0x4CF4E, size: 0x8, addend: 0x0, symName: __ZZN8nlohmann16json_abi_v3_11_310basic_jsonINSt3__13mapENS2_6vectorENS2_12basic_stringIcNS2_11char_traitsIcEENS2_9allocatorIcEEEEbxydS8_NS0_14adl_serializerENS4_IhNS8_IhEEEEvE6createINS4_ISE_NS8_ISE_EEEEJEEEPT_DpOT0_ENKUlPSH_E_clESN_, symObjAddr: 0x304A4, symBinAddr: 0x100031294, symSize: 0x34 }
  - { offsetInCU: 0x4CF87, offset: 0x4CF87, size: 0x8, addend: 0x0, symName: __ZNSt3__122__compressed_pair_elemIZN8nlohmann16json_abi_v3_11_310basic_jsonINS_3mapENS_6vectorENS_12basic_stringIcNS_11char_traitsIcEENS_9allocatorIcEEEEbxydS9_NS2_14adl_serializerENS5_IhNS9_IhEEEEvE6createINS5_ISF_NS9_ISF_EEEEJEEEPT_DpOT0_EUlPSI_E_Li1ELb0EE5__getB8ue170006Ev, symObjAddr: 0x304D8, symBinAddr: 0x1000312C8, symSize: 0x14 }
  - { offsetInCU: 0x4D020, offset: 0x4D020, size: 0x8, addend: 0x0, symName: __ZNSt3__110unique_ptrINS_12basic_stringIcNS_11char_traitsIcEENS_9allocatorIcEEEEZN8nlohmann16json_abi_v3_11_310basic_jsonINS_3mapENS_6vectorES6_bxydS4_NS8_14adl_serializerENSB_IhNS4_IhEEEEvE6createIS6_JRA1_KcEEEPT_DpOT0_EUlPS6_E_EC1B8ue170006ILb1EvEESP_NS_16__dependent_typeINS_27__unique_ptr_deleter_sfinaeISQ_EEXT_EE15__lval_ref_typeE, symObjAddr: 0x304EC, symBinAddr: 0x1000312DC, symSize: 0x3C }
  - { offsetInCU: 0x4D071, offset: 0x4D071, size: 0x8, addend: 0x0, symName: __ZNSt3__116allocator_traitsINS_9allocatorINS_12basic_stringIcNS_11char_traitsIcEENS1_IcEEEEEEE9constructB8ue170006IS6_JRA1_KcEvvEEvRS7_PT_DpOT0_, symObjAddr: 0x30528, symBinAddr: 0x100031318, symSize: 0x30 }
  - { offsetInCU: 0x4D0C6, offset: 0x4D0C6, size: 0x8, addend: 0x0, symName: __ZNKSt3__110unique_ptrINS_12basic_stringIcNS_11char_traitsIcEENS_9allocatorIcEEEEZN8nlohmann16json_abi_v3_11_310basic_jsonINS_3mapENS_6vectorES6_bxydS4_NS8_14adl_serializerENSB_IhNS4_IhEEEEvE6createIS6_JRA1_KcEEEPT_DpOT0_EUlPS6_E_E3getB8ue170006Ev, symObjAddr: 0x30558, symBinAddr: 0x100031348, symSize: 0x28 }
  - { offsetInCU: 0x4D0EC, offset: 0x4D0EC, size: 0x8, addend: 0x0, symName: __ZNSt3__110unique_ptrINS_12basic_stringIcNS_11char_traitsIcEENS_9allocatorIcEEEEZN8nlohmann16json_abi_v3_11_310basic_jsonINS_3mapENS_6vectorES6_bxydS4_NS8_14adl_serializerENSB_IhNS4_IhEEEEvE6createIS6_JRA1_KcEEEPT_DpOT0_EUlPS6_E_E7releaseB8ue170006Ev, symObjAddr: 0x305B0, symBinAddr: 0x1000313A0, symSize: 0x44 }
  - { offsetInCU: 0x4D121, offset: 0x4D121, size: 0x8, addend: 0x0, symName: __ZNSt3__110unique_ptrINS_12basic_stringIcNS_11char_traitsIcEENS_9allocatorIcEEEEZN8nlohmann16json_abi_v3_11_310basic_jsonINS_3mapENS_6vectorES6_bxydS4_NS8_14adl_serializerENSB_IhNS4_IhEEEEvE6createIS6_JRA1_KcEEEPT_DpOT0_EUlPS6_E_ED1B8ue170006Ev, symObjAddr: 0x305F4, symBinAddr: 0x1000313E4, symSize: 0x2C }
  - { offsetInCU: 0x4D14B, offset: 0x4D14B, size: 0x8, addend: 0x0, symName: __ZNSt3__110unique_ptrINS_12basic_stringIcNS_11char_traitsIcEENS_9allocatorIcEEEEZN8nlohmann16json_abi_v3_11_310basic_jsonINS_3mapENS_6vectorES6_bxydS4_NS8_14adl_serializerENSB_IhNS4_IhEEEEvE6createIS6_JRA1_KcEEEPT_DpOT0_EUlPS6_E_EC2B8ue170006ILb1EvEESP_NS_16__dependent_typeINS_27__unique_ptr_deleter_sfinaeISQ_EEXT_EE15__lval_ref_typeE, symObjAddr: 0x30620, symBinAddr: 0x100031410, symSize: 0x48 }
  - { offsetInCU: 0x4D19C, offset: 0x4D19C, size: 0x8, addend: 0x0, symName: __ZNSt3__117__compressed_pairIPNS_12basic_stringIcNS_11char_traitsIcEENS_9allocatorIcEEEEZN8nlohmann16json_abi_v3_11_310basic_jsonINS_3mapENS_6vectorES6_bxydS4_NS9_14adl_serializerENSC_IhNS4_IhEEEEvE6createIS6_JRA1_KcEEEPT_DpOT0_EUlS7_E_EC1B8ue170006IRS7_RKSQ_EEOSL_OT0_, symObjAddr: 0x30668, symBinAddr: 0x100031458, symSize: 0x3C }
  - { offsetInCU: 0x4D1F4, offset: 0x4D1F4, size: 0x8, addend: 0x0, symName: __ZNSt3__117__compressed_pairIPNS_12basic_stringIcNS_11char_traitsIcEENS_9allocatorIcEEEEZN8nlohmann16json_abi_v3_11_310basic_jsonINS_3mapENS_6vectorES6_bxydS4_NS9_14adl_serializerENSC_IhNS4_IhEEEEvE6createIS6_JRA1_KcEEEPT_DpOT0_EUlS7_E_EC2B8ue170006IRS7_RKSQ_EEOSL_OT0_, symObjAddr: 0x306A4, symBinAddr: 0x100031494, symSize: 0x48 }
  - { offsetInCU: 0x4D24C, offset: 0x4D24C, size: 0x8, addend: 0x0, symName: __ZNSt3__122__compressed_pair_elemIZN8nlohmann16json_abi_v3_11_310basic_jsonINS_3mapENS_6vectorENS_12basic_stringIcNS_11char_traitsIcEENS_9allocatorIcEEEEbxydS9_NS2_14adl_serializerENS5_IhNS9_IhEEEEvE6createISB_JRA1_KcEEEPT_DpOT0_EUlPSB_E_Li1ELb0EEC2B8ue170006IRKSQ_vEEOSK_, symObjAddr: 0x306EC, symBinAddr: 0x1000314DC, symSize: 0x24 }
  - { offsetInCU: 0x4D28E, offset: 0x4D28E, size: 0x8, addend: 0x0, symName: __ZNKSt3__117__compressed_pairIPNS_12basic_stringIcNS_11char_traitsIcEENS_9allocatorIcEEEEZN8nlohmann16json_abi_v3_11_310basic_jsonINS_3mapENS_6vectorES6_bxydS4_NS9_14adl_serializerENSC_IhNS4_IhEEEEvE6createIS6_JRA1_KcEEEPT_DpOT0_EUlS7_E_E5firstB8ue170006Ev, symObjAddr: 0x3074C, symBinAddr: 0x10003153C, symSize: 0x24 }
  - { offsetInCU: 0x4D2B4, offset: 0x4D2B4, size: 0x8, addend: 0x0, symName: __ZNKSt3__110unique_ptrINS_12basic_stringIcNS_11char_traitsIcEENS_9allocatorIcEEEEZN8nlohmann16json_abi_v3_11_310basic_jsonINS_3mapENS_6vectorES6_bxydS4_NS8_14adl_serializerENSB_IhNS4_IhEEEEvE6createIS6_JRA1_KcEEEPT_DpOT0_EUlPS6_E_EcvbB8ue170006Ev, symObjAddr: 0x30770, symBinAddr: 0x100031560, symSize: 0x34 }
  - { offsetInCU: 0x4D2DA, offset: 0x4D2DA, size: 0x8, addend: 0x0, symName: __ZNSt3__117__compressed_pairIPNS_12basic_stringIcNS_11char_traitsIcEENS_9allocatorIcEEEEZN8nlohmann16json_abi_v3_11_310basic_jsonINS_3mapENS_6vectorES6_bxydS4_NS9_14adl_serializerENSC_IhNS4_IhEEEEvE6createIS6_JRA1_KcEEEPT_DpOT0_EUlS7_E_E5firstB8ue170006Ev, symObjAddr: 0x307A4, symBinAddr: 0x100031594, symSize: 0x24 }
  - { offsetInCU: 0x4D300, offset: 0x4D300, size: 0x8, addend: 0x0, symName: __ZNSt3__110unique_ptrINS_12basic_stringIcNS_11char_traitsIcEENS_9allocatorIcEEEEZN8nlohmann16json_abi_v3_11_310basic_jsonINS_3mapENS_6vectorES6_bxydS4_NS8_14adl_serializerENSB_IhNS4_IhEEEEvE6createIS6_JRA1_KcEEEPT_DpOT0_EUlPS6_E_ED2B8ue170006Ev, symObjAddr: 0x307C8, symBinAddr: 0x1000315B8, symSize: 0x30 }
  - { offsetInCU: 0x4D32A, offset: 0x4D32A, size: 0x8, addend: 0x0, symName: __ZNSt3__110unique_ptrINS_12basic_stringIcNS_11char_traitsIcEENS_9allocatorIcEEEEZN8nlohmann16json_abi_v3_11_310basic_jsonINS_3mapENS_6vectorES6_bxydS4_NS8_14adl_serializerENSB_IhNS4_IhEEEEvE6createIS6_JRA1_KcEEEPT_DpOT0_EUlPS6_E_E5resetB8ue170006ESP_, symObjAddr: 0x307F8, symBinAddr: 0x1000315E8, symSize: 0x80 }
  - { offsetInCU: 0x4D36E, offset: 0x4D36E, size: 0x8, addend: 0x0, symName: __ZNSt3__117__compressed_pairIPNS_12basic_stringIcNS_11char_traitsIcEENS_9allocatorIcEEEEZN8nlohmann16json_abi_v3_11_310basic_jsonINS_3mapENS_6vectorES6_bxydS4_NS9_14adl_serializerENSC_IhNS4_IhEEEEvE6createIS6_JRA1_KcEEEPT_DpOT0_EUlS7_E_E6secondB8ue170006Ev, symObjAddr: 0x30878, symBinAddr: 0x100031668, symSize: 0x28 }
  - { offsetInCU: 0x4D39A, offset: 0x4D39A, size: 0x8, addend: 0x0, symName: __ZZN8nlohmann16json_abi_v3_11_310basic_jsonINSt3__13mapENS2_6vectorENS2_12basic_stringIcNS2_11char_traitsIcEENS2_9allocatorIcEEEEbxydS8_NS0_14adl_serializerENS4_IhNS8_IhEEEEvE6createISA_JRA1_KcEEEPT_DpOT0_ENKUlPSA_E_clESO_, symObjAddr: 0x308A0, symBinAddr: 0x100031690, symSize: 0x34 }
  - { offsetInCU: 0x4D3D3, offset: 0x4D3D3, size: 0x8, addend: 0x0, symName: __ZNSt3__122__compressed_pair_elemIZN8nlohmann16json_abi_v3_11_310basic_jsonINS_3mapENS_6vectorENS_12basic_stringIcNS_11char_traitsIcEENS_9allocatorIcEEEEbxydS9_NS2_14adl_serializerENS5_IhNS9_IhEEEEvE6createISB_JRA1_KcEEEPT_DpOT0_EUlPSB_E_Li1ELb0EE5__getB8ue170006Ev, symObjAddr: 0x308D4, symBinAddr: 0x1000316C4, symSize: 0x14 }
  - { offsetInCU: 0x4D3F9, offset: 0x4D3F9, size: 0x8, addend: 0x0, symName: __ZNSt3__116allocator_traitsINS_9allocatorIN8nlohmann16json_abi_v3_11_327byte_container_with_subtypeINS_6vectorIhNS1_IhEEEEEEEEE8allocateB8ue170006ERS9_m, symObjAddr: 0x308E8, symBinAddr: 0x1000316D8, symSize: 0x2C }
  - { offsetInCU: 0x4D4D3, offset: 0x4D4D3, size: 0x8, addend: 0x0, symName: __ZNSt3__110unique_ptrIN8nlohmann16json_abi_v3_11_327byte_container_with_subtypeINS_6vectorIhNS_9allocatorIhEEEEEEZNS2_10basic_jsonINS_3mapES4_NS_12basic_stringIcNS_11char_traitsIcEENS5_IcEEEEbxydS5_NS2_14adl_serializerES7_vE6createIS8_JEEEPT_DpOT0_EUlPS8_E_EC1B8ue170006ILb1EvEESO_NS_16__dependent_typeINS_27__unique_ptr_deleter_sfinaeISP_EEXT_EE15__lval_ref_typeE, symObjAddr: 0x30914, symBinAddr: 0x100031704, symSize: 0x3C }
  - { offsetInCU: 0x4D524, offset: 0x4D524, size: 0x8, addend: 0x0, symName: __ZNSt3__116allocator_traitsINS_9allocatorIN8nlohmann16json_abi_v3_11_327byte_container_with_subtypeINS_6vectorIhNS1_IhEEEEEEEEE9constructB8ue170006IS8_JEvvEEvRS9_PT_DpOT0_, symObjAddr: 0x30950, symBinAddr: 0x100031740, symSize: 0x28 }
  - { offsetInCU: 0x4D564, offset: 0x4D564, size: 0x8, addend: 0x0, symName: __ZNKSt3__110unique_ptrIN8nlohmann16json_abi_v3_11_327byte_container_with_subtypeINS_6vectorIhNS_9allocatorIhEEEEEEZNS2_10basic_jsonINS_3mapES4_NS_12basic_stringIcNS_11char_traitsIcEENS5_IcEEEEbxydS5_NS2_14adl_serializerES7_vE6createIS8_JEEEPT_DpOT0_EUlPS8_E_E3getB8ue170006Ev, symObjAddr: 0x30978, symBinAddr: 0x100031768, symSize: 0x28 }
  - { offsetInCU: 0x4D58A, offset: 0x4D58A, size: 0x8, addend: 0x0, symName: __ZNSt3__110unique_ptrIN8nlohmann16json_abi_v3_11_327byte_container_with_subtypeINS_6vectorIhNS_9allocatorIhEEEEEEZNS2_10basic_jsonINS_3mapES4_NS_12basic_stringIcNS_11char_traitsIcEENS5_IcEEEEbxydS5_NS2_14adl_serializerES7_vE6createIS8_JEEEPT_DpOT0_EUlPS8_E_E7releaseB8ue170006Ev, symObjAddr: 0x309D0, symBinAddr: 0x1000317C0, symSize: 0x44 }
  - { offsetInCU: 0x4D5BF, offset: 0x4D5BF, size: 0x8, addend: 0x0, symName: __ZNSt3__110unique_ptrIN8nlohmann16json_abi_v3_11_327byte_container_with_subtypeINS_6vectorIhNS_9allocatorIhEEEEEEZNS2_10basic_jsonINS_3mapES4_NS_12basic_stringIcNS_11char_traitsIcEENS5_IcEEEEbxydS5_NS2_14adl_serializerES7_vE6createIS8_JEEEPT_DpOT0_EUlPS8_E_ED1B8ue170006Ev, symObjAddr: 0x30A14, symBinAddr: 0x100031804, symSize: 0x2C }
  - { offsetInCU: 0x4D5E9, offset: 0x4D5E9, size: 0x8, addend: 0x0, symName: __ZNSt3__19allocatorIN8nlohmann16json_abi_v3_11_327byte_container_with_subtypeINS_6vectorIhNS0_IhEEEEEEE8allocateB8ue170006Em, symObjAddr: 0x30A40, symBinAddr: 0x100031830, symSize: 0x5C }
  - { offsetInCU: 0x4D628, offset: 0x4D628, size: 0x8, addend: 0x0, symName: __ZNSt3__116allocator_traitsINS_9allocatorIN8nlohmann16json_abi_v3_11_327byte_container_with_subtypeINS_6vectorIhNS1_IhEEEEEEEEE8max_sizeB8ue170006IS9_vvEEmRKS9_, symObjAddr: 0x30A9C, symBinAddr: 0x10003188C, symSize: 0x28 }
  - { offsetInCU: 0x4D654, offset: 0x4D654, size: 0x8, addend: 0x0, symName: __ZNSt3__110unique_ptrIN8nlohmann16json_abi_v3_11_327byte_container_with_subtypeINS_6vectorIhNS_9allocatorIhEEEEEEZNS2_10basic_jsonINS_3mapES4_NS_12basic_stringIcNS_11char_traitsIcEENS5_IcEEEEbxydS5_NS2_14adl_serializerES7_vE6createIS8_JEEEPT_DpOT0_EUlPS8_E_EC2B8ue170006ILb1EvEESO_NS_16__dependent_typeINS_27__unique_ptr_deleter_sfinaeISP_EEXT_EE15__lval_ref_typeE, symObjAddr: 0x30AC4, symBinAddr: 0x1000318B4, symSize: 0x48 }
  - { offsetInCU: 0x4D6A5, offset: 0x4D6A5, size: 0x8, addend: 0x0, symName: __ZNSt3__117__compressed_pairIPN8nlohmann16json_abi_v3_11_327byte_container_with_subtypeINS_6vectorIhNS_9allocatorIhEEEEEEZNS2_10basic_jsonINS_3mapES4_NS_12basic_stringIcNS_11char_traitsIcEENS5_IcEEEEbxydS5_NS2_14adl_serializerES7_vE6createIS8_JEEEPT_DpOT0_EUlS9_E_EC1B8ue170006IRS9_RKSP_EEOSK_OT0_, symObjAddr: 0x30B0C, symBinAddr: 0x1000318FC, symSize: 0x3C }
  - { offsetInCU: 0x4D6FD, offset: 0x4D6FD, size: 0x8, addend: 0x0, symName: __ZNSt3__117__compressed_pairIPN8nlohmann16json_abi_v3_11_327byte_container_with_subtypeINS_6vectorIhNS_9allocatorIhEEEEEEZNS2_10basic_jsonINS_3mapES4_NS_12basic_stringIcNS_11char_traitsIcEENS5_IcEEEEbxydS5_NS2_14adl_serializerES7_vE6createIS8_JEEEPT_DpOT0_EUlS9_E_EC2B8ue170006IRS9_RKSP_EEOSK_OT0_, symObjAddr: 0x30B48, symBinAddr: 0x100031938, symSize: 0x48 }
  - { offsetInCU: 0x4D755, offset: 0x4D755, size: 0x8, addend: 0x0, symName: __ZNSt3__122__compressed_pair_elemIPN8nlohmann16json_abi_v3_11_327byte_container_with_subtypeINS_6vectorIhNS_9allocatorIhEEEEEELi0ELb0EEC2B8ue170006IRS9_vEEOT_, symObjAddr: 0x30B90, symBinAddr: 0x100031980, symSize: 0x24 }
  - { offsetInCU: 0x4D797, offset: 0x4D797, size: 0x8, addend: 0x0, symName: __ZNSt3__122__compressed_pair_elemIZN8nlohmann16json_abi_v3_11_310basic_jsonINS_3mapENS_6vectorENS_12basic_stringIcNS_11char_traitsIcEENS_9allocatorIcEEEEbxydS9_NS2_14adl_serializerENS5_IhNS9_IhEEEEvE6createINS2_27byte_container_with_subtypeISE_EEJEEEPT_DpOT0_EUlPSI_E_Li1ELb0EEC2B8ue170006IRKSP_vEEOSJ_, symObjAddr: 0x30BB4, symBinAddr: 0x1000319A4, symSize: 0x24 }
  - { offsetInCU: 0x4D7D9, offset: 0x4D7D9, size: 0x8, addend: 0x0, symName: __ZN8nlohmann16json_abi_v3_11_327byte_container_with_subtypeINSt3__16vectorIhNS2_9allocatorIhEEEEEC1Ev, symObjAddr: 0x30C0C, symBinAddr: 0x1000319FC, symSize: 0x2C }
  - { offsetInCU: 0x4D803, offset: 0x4D803, size: 0x8, addend: 0x0, symName: __ZN8nlohmann16json_abi_v3_11_327byte_container_with_subtypeINSt3__16vectorIhNS2_9allocatorIhEEEEEC2Ev, symObjAddr: 0x30C38, symBinAddr: 0x100031A28, symSize: 0x34 }
  - { offsetInCU: 0x4D82D, offset: 0x4D82D, size: 0x8, addend: 0x0, symName: __ZNSt3__16vectorIhNS_9allocatorIhEEEC2B8ue170006Ev, symObjAddr: 0x30C6C, symBinAddr: 0x100031A5C, symSize: 0x4C }
  - { offsetInCU: 0x4D857, offset: 0x4D857, size: 0x8, addend: 0x0, symName: __ZNSt3__117__compressed_pairIPhNS_9allocatorIhEEEC1B8ue170006IDnNS_18__default_init_tagEEEOT_OT0_, symObjAddr: 0x30CB8, symBinAddr: 0x100031AA8, symSize: 0x3C }
  - { offsetInCU: 0x4D8AF, offset: 0x4D8AF, size: 0x8, addend: 0x0, symName: __ZNSt3__117__compressed_pairIPhNS_9allocatorIhEEEC2B8ue170006IDnNS_18__default_init_tagEEEOT_OT0_, symObjAddr: 0x30CF4, symBinAddr: 0x100031AE4, symSize: 0x40 }
  - { offsetInCU: 0x4D907, offset: 0x4D907, size: 0x8, addend: 0x0, symName: __ZNSt3__122__compressed_pair_elemIPhLi0ELb0EEC2B8ue170006IDnvEEOT_, symObjAddr: 0x30D34, symBinAddr: 0x100031B24, symSize: 0x1C }
  - { offsetInCU: 0x4D949, offset: 0x4D949, size: 0x8, addend: 0x0, symName: __ZNSt3__122__compressed_pair_elemINS_9allocatorIhEELi1ELb1EEC2B8ue170006ENS_18__default_init_tagE, symObjAddr: 0x30D50, symBinAddr: 0x100031B40, symSize: 0x2C }
  - { offsetInCU: 0x4D97E, offset: 0x4D97E, size: 0x8, addend: 0x0, symName: __ZNSt3__19allocatorIhEC2B8ue170006Ev, symObjAddr: 0x30D7C, symBinAddr: 0x100031B6C, symSize: 0x2C }
  - { offsetInCU: 0x4D9A8, offset: 0x4D9A8, size: 0x8, addend: 0x0, symName: __ZNSt3__116__non_trivial_ifILb1ENS_9allocatorIhEEEC2B8ue170006Ev, symObjAddr: 0x30DA8, symBinAddr: 0x100031B98, symSize: 0x14 }
  - { offsetInCU: 0x4D9D2, offset: 0x4D9D2, size: 0x8, addend: 0x0, symName: __ZNKSt3__117__compressed_pairIPN8nlohmann16json_abi_v3_11_327byte_container_with_subtypeINS_6vectorIhNS_9allocatorIhEEEEEEZNS2_10basic_jsonINS_3mapES4_NS_12basic_stringIcNS_11char_traitsIcEENS5_IcEEEEbxydS5_NS2_14adl_serializerES7_vE6createIS8_JEEEPT_DpOT0_EUlS9_E_E5firstB8ue170006Ev, symObjAddr: 0x30DBC, symBinAddr: 0x100031BAC, symSize: 0x24 }
  - { offsetInCU: 0x4D9F8, offset: 0x4D9F8, size: 0x8, addend: 0x0, symName: __ZNKSt3__122__compressed_pair_elemIPN8nlohmann16json_abi_v3_11_327byte_container_with_subtypeINS_6vectorIhNS_9allocatorIhEEEEEELi0ELb0EE5__getB8ue170006Ev, symObjAddr: 0x30DE0, symBinAddr: 0x100031BD0, symSize: 0x14 }
  - { offsetInCU: 0x4DA1E, offset: 0x4DA1E, size: 0x8, addend: 0x0, symName: __ZNKSt3__110unique_ptrIN8nlohmann16json_abi_v3_11_327byte_container_with_subtypeINS_6vectorIhNS_9allocatorIhEEEEEEZNS2_10basic_jsonINS_3mapES4_NS_12basic_stringIcNS_11char_traitsIcEENS5_IcEEEEbxydS5_NS2_14adl_serializerES7_vE6createIS8_JEEEPT_DpOT0_EUlPS8_E_EcvbB8ue170006Ev, symObjAddr: 0x30DF4, symBinAddr: 0x100031BE4, symSize: 0x34 }
  - { offsetInCU: 0x4DA44, offset: 0x4DA44, size: 0x8, addend: 0x0, symName: __ZNSt3__117__compressed_pairIPN8nlohmann16json_abi_v3_11_327byte_container_with_subtypeINS_6vectorIhNS_9allocatorIhEEEEEEZNS2_10basic_jsonINS_3mapES4_NS_12basic_stringIcNS_11char_traitsIcEENS5_IcEEEEbxydS5_NS2_14adl_serializerES7_vE6createIS8_JEEEPT_DpOT0_EUlS9_E_E5firstB8ue170006Ev, symObjAddr: 0x30E28, symBinAddr: 0x100031C18, symSize: 0x24 }
  - { offsetInCU: 0x4DA6A, offset: 0x4DA6A, size: 0x8, addend: 0x0, symName: __ZNSt3__122__compressed_pair_elemIPN8nlohmann16json_abi_v3_11_327byte_container_with_subtypeINS_6vectorIhNS_9allocatorIhEEEEEELi0ELb0EE5__getB8ue170006Ev, symObjAddr: 0x30E4C, symBinAddr: 0x100031C3C, symSize: 0x14 }
  - { offsetInCU: 0x4DA90, offset: 0x4DA90, size: 0x8, addend: 0x0, symName: __ZNSt3__110unique_ptrIN8nlohmann16json_abi_v3_11_327byte_container_with_subtypeINS_6vectorIhNS_9allocatorIhEEEEEEZNS2_10basic_jsonINS_3mapES4_NS_12basic_stringIcNS_11char_traitsIcEENS5_IcEEEEbxydS5_NS2_14adl_serializerES7_vE6createIS8_JEEEPT_DpOT0_EUlPS8_E_ED2B8ue170006Ev, symObjAddr: 0x30E60, symBinAddr: 0x100031C50, symSize: 0x30 }
  - { offsetInCU: 0x4DABA, offset: 0x4DABA, size: 0x8, addend: 0x0, symName: __ZNSt3__110unique_ptrIN8nlohmann16json_abi_v3_11_327byte_container_with_subtypeINS_6vectorIhNS_9allocatorIhEEEEEEZNS2_10basic_jsonINS_3mapES4_NS_12basic_stringIcNS_11char_traitsIcEENS5_IcEEEEbxydS5_NS2_14adl_serializerES7_vE6createIS8_JEEEPT_DpOT0_EUlPS8_E_E5resetB8ue170006ESO_, symObjAddr: 0x30E90, symBinAddr: 0x100031C80, symSize: 0x80 }
  - { offsetInCU: 0x4DAFE, offset: 0x4DAFE, size: 0x8, addend: 0x0, symName: __ZNSt3__117__compressed_pairIPN8nlohmann16json_abi_v3_11_327byte_container_with_subtypeINS_6vectorIhNS_9allocatorIhEEEEEEZNS2_10basic_jsonINS_3mapES4_NS_12basic_stringIcNS_11char_traitsIcEENS5_IcEEEEbxydS5_NS2_14adl_serializerES7_vE6createIS8_JEEEPT_DpOT0_EUlS9_E_E6secondB8ue170006Ev, symObjAddr: 0x30F10, symBinAddr: 0x100031D00, symSize: 0x28 }
  - { offsetInCU: 0x4DB2A, offset: 0x4DB2A, size: 0x8, addend: 0x0, symName: __ZZN8nlohmann16json_abi_v3_11_310basic_jsonINSt3__13mapENS2_6vectorENS2_12basic_stringIcNS2_11char_traitsIcEENS2_9allocatorIcEEEEbxydS8_NS0_14adl_serializerENS4_IhNS8_IhEEEEvE6createINS0_27byte_container_with_subtypeISD_EEJEEEPT_DpOT0_ENKUlPSH_E_clESN_, symObjAddr: 0x30F38, symBinAddr: 0x100031D28, symSize: 0x34 }
  - { offsetInCU: 0x4DB63, offset: 0x4DB63, size: 0x8, addend: 0x0, symName: __ZNSt3__122__compressed_pair_elemIZN8nlohmann16json_abi_v3_11_310basic_jsonINS_3mapENS_6vectorENS_12basic_stringIcNS_11char_traitsIcEENS_9allocatorIcEEEEbxydS9_NS2_14adl_serializerENS5_IhNS9_IhEEEEvE6createINS2_27byte_container_with_subtypeISE_EEJEEEPT_DpOT0_EUlPSI_E_Li1ELb0EE5__getB8ue170006Ev, symObjAddr: 0x30F6C, symBinAddr: 0x100031D5C, symSize: 0x14 }
  - { offsetInCU: 0x4DB89, offset: 0x4DB89, size: 0x8, addend: 0x0, symName: __ZN8nlohmann16json_abi_v3_11_36detail11other_errorC1EiPKc, symObjAddr: 0x30F80, symBinAddr: 0x100031D70, symSize: 0x3C }
  - { offsetInCU: 0x4DBD1, offset: 0x4DBD1, size: 0x8, addend: 0x0, symName: __ZN8nlohmann16json_abi_v3_11_36detail11other_errorC2EiPKc, symObjAddr: 0x30FBC, symBinAddr: 0x100031DAC, symSize: 0x54 }
  - { offsetInCU: 0x4DC19, offset: 0x4DC19, size: 0x8, addend: 0x0, symName: __ZN8nlohmann16json_abi_v3_11_36detail11other_errorD0Ev, symObjAddr: 0x31010, symBinAddr: 0x100031E00, symSize: 0x30 }
  - { offsetInCU: 0x4DC46, offset: 0x4DC46, size: 0x8, addend: 0x0, symName: __ZN8nlohmann16json_abi_v3_11_36detail11other_errorD2Ev, symObjAddr: 0x31040, symBinAddr: 0x100031E30, symSize: 0x2C }
  - { offsetInCU: 0x4DC73, offset: 0x4DC73, size: 0x8, addend: 0x0, symName: __ZNSt3__16__treeINS_12__value_typeINS_12basic_stringIcNS_11char_traitsIcEENS_9allocatorIcEEEEN8nlohmann16json_abi_v3_11_310basic_jsonINS_3mapENS_6vectorES7_bxydS5_NS9_14adl_serializerENSC_IhNS5_IhEEEEvEEEENS_19__map_value_compareIS7_SH_NS_4lessIvEELb1EEENS5_ISH_EEE16__emplace_uniqueB8ue170006IS7_SG_EENS_9enable_ifIXsr21__can_extract_map_keyIT_S7_NS_4pairIKS7_SG_EEEE5valueENSR_INS_15__tree_iteratorISH_PNS_11__tree_nodeISH_PvEElEEbEEE4typeEOSQ_OT0_, symObjAddr: 0x3106C, symBinAddr: 0x100031E5C, symSize: 0x48 }
  - { offsetInCU: 0x4DCC9, offset: 0x4DCC9, size: 0x8, addend: 0x0, symName: __ZNSt3__14pairINS_14__map_iteratorINS_15__tree_iteratorINS_12__value_typeINS_12basic_stringIcNS_11char_traitsIcEENS_9allocatorIcEEEEN8nlohmann16json_abi_v3_11_310basic_jsonINS_3mapENS_6vectorES9_bxydS7_NSB_14adl_serializerENSE_IhNS7_IhEEEEvEEEEPNS_11__tree_nodeISJ_PvEElEEEEbEC1B8ue170006ISO_bLSL_0EEEONS0_IT_T0_EE, symObjAddr: 0x310B4, symBinAddr: 0x100031EA4, symSize: 0x34 }
  - { offsetInCU: 0x4DD1A, offset: 0x4DD1A, size: 0x8, addend: 0x0, symName: __ZNSt3__16__treeINS_12__value_typeINS_12basic_stringIcNS_11char_traitsIcEENS_9allocatorIcEEEEN8nlohmann16json_abi_v3_11_310basic_jsonINS_3mapENS_6vectorES7_bxydS5_NS9_14adl_serializerENSC_IhNS5_IhEEEEvEEEENS_19__map_value_compareIS7_SH_NS_4lessIvEELb1EEENS5_ISH_EEE25__emplace_unique_key_argsIS7_JS7_SG_EEENS_4pairINS_15__tree_iteratorISH_PNS_11__tree_nodeISH_PvEElEEbEERKT_DpOT0_, symObjAddr: 0x310E8, symBinAddr: 0x100031ED8, symSize: 0xF8 }
  - { offsetInCU: 0x4DDDB, offset: 0x4DDDB, size: 0x8, addend: 0x0, symName: __ZNSt3__16__treeINS_12__value_typeINS_12basic_stringIcNS_11char_traitsIcEENS_9allocatorIcEEEEN8nlohmann16json_abi_v3_11_310basic_jsonINS_3mapENS_6vectorES7_bxydS5_NS9_14adl_serializerENSC_IhNS5_IhEEEEvEEEENS_19__map_value_compareIS7_SH_NS_4lessIvEELb1EEENS5_ISH_EEE12__find_equalIS7_EERPNS_16__tree_node_baseIPvEERPNS_15__tree_end_nodeISS_EERKT_, symObjAddr: 0x311E0, symBinAddr: 0x100031FD0, symSize: 0x184 }
  - { offsetInCU: 0x4DE48, offset: 0x4DE48, size: 0x8, addend: 0x0, symName: __ZNSt3__16__treeINS_12__value_typeINS_12basic_stringIcNS_11char_traitsIcEENS_9allocatorIcEEEEN8nlohmann16json_abi_v3_11_310basic_jsonINS_3mapENS_6vectorES7_bxydS5_NS9_14adl_serializerENSC_IhNS5_IhEEEEvEEEENS_19__map_value_compareIS7_SH_NS_4lessIvEELb1EEENS5_ISH_EEE16__construct_nodeIJS7_SG_EEENS_10unique_ptrINS_11__tree_nodeISH_PvEENS_22__tree_node_destructorINS5_ISS_EEEEEEDpOT_, symObjAddr: 0x31364, symBinAddr: 0x100032154, symSize: 0x110 }
  - { offsetInCU: 0x4DEBD, offset: 0x4DEBD, size: 0x8, addend: 0x0, symName: __ZNSt3__16__treeINS_12__value_typeINS_12basic_stringIcNS_11char_traitsIcEENS_9allocatorIcEEEEN8nlohmann16json_abi_v3_11_310basic_jsonINS_3mapENS_6vectorES7_bxydS5_NS9_14adl_serializerENSC_IhNS5_IhEEEEvEEEENS_19__map_value_compareIS7_SH_NS_4lessIvEELb1EEENS5_ISH_EEE16__insert_node_atEPNS_15__tree_end_nodeIPNS_16__tree_node_baseIPvEEEERSS_SS_, symObjAddr: 0x31474, symBinAddr: 0x100032264, symSize: 0xCC }
  - { offsetInCU: 0x4DF12, offset: 0x4DF12, size: 0x8, addend: 0x0, symName: __ZNKSt3__110unique_ptrINS_11__tree_nodeINS_12__value_typeINS_12basic_stringIcNS_11char_traitsIcEENS_9allocatorIcEEEEN8nlohmann16json_abi_v3_11_310basic_jsonINS_3mapENS_6vectorES8_bxydS6_NSA_14adl_serializerENSD_IhNS6_IhEEEEvEEEEPvEENS_22__tree_node_destructorINS6_ISK_EEEEE3getB8ue170006Ev, symObjAddr: 0x31540, symBinAddr: 0x100032330, symSize: 0x28 }
  - { offsetInCU: 0x4DF38, offset: 0x4DF38, size: 0x8, addend: 0x0, symName: __ZNSt3__110unique_ptrINS_11__tree_nodeINS_12__value_typeINS_12basic_stringIcNS_11char_traitsIcEENS_9allocatorIcEEEEN8nlohmann16json_abi_v3_11_310basic_jsonINS_3mapENS_6vectorES8_bxydS6_NSA_14adl_serializerENSD_IhNS6_IhEEEEvEEEEPvEENS_22__tree_node_destructorINS6_ISK_EEEEE7releaseB8ue170006Ev, symObjAddr: 0x31568, symBinAddr: 0x100032358, symSize: 0x44 }
  - { offsetInCU: 0x4DF6D, offset: 0x4DF6D, size: 0x8, addend: 0x0, symName: __ZNSt3__110unique_ptrINS_11__tree_nodeINS_12__value_typeINS_12basic_stringIcNS_11char_traitsIcEENS_9allocatorIcEEEEN8nlohmann16json_abi_v3_11_310basic_jsonINS_3mapENS_6vectorES8_bxydS6_NSA_14adl_serializerENSD_IhNS6_IhEEEEvEEEEPvEENS_22__tree_node_destructorINS6_ISK_EEEEED1B8ue170006Ev, symObjAddr: 0x315AC, symBinAddr: 0x10003239C, symSize: 0x2C }
  - { offsetInCU: 0x4DF97, offset: 0x4DF97, size: 0x8, addend: 0x0, symName: __ZNSt3__115__tree_iteratorINS_12__value_typeINS_12basic_stringIcNS_11char_traitsIcEENS_9allocatorIcEEEEN8nlohmann16json_abi_v3_11_310basic_jsonINS_3mapENS_6vectorES7_bxydS5_NS9_14adl_serializerENSC_IhNS5_IhEEEEvEEEEPNS_11__tree_nodeISH_PvEElEC1B8ue170006ESL_, symObjAddr: 0x315D8, symBinAddr: 0x1000323C8, symSize: 0x34 }
  - { offsetInCU: 0x4DFD6, offset: 0x4DFD6, size: 0x8, addend: 0x0, symName: __ZNSt3__14pairINS_15__tree_iteratorINS_12__value_typeINS_12basic_stringIcNS_11char_traitsIcEENS_9allocatorIcEEEEN8nlohmann16json_abi_v3_11_310basic_jsonINS_3mapENS_6vectorES8_bxydS6_NSA_14adl_serializerENSD_IhNS6_IhEEEEvEEEEPNS_11__tree_nodeISI_PvEElEEbEC1B8ue170006ISN_RbLSK_0EEEOT_OT0_, symObjAddr: 0x3160C, symBinAddr: 0x1000323FC, symSize: 0x3C }
  - { offsetInCU: 0x4E034, offset: 0x4E034, size: 0x8, addend: 0x0, symName: __ZNKSt3__16__treeINS_12__value_typeINS_12basic_stringIcNS_11char_traitsIcEENS_9allocatorIcEEEEN8nlohmann16json_abi_v3_11_310basic_jsonINS_3mapENS_6vectorES7_bxydS5_NS9_14adl_serializerENSC_IhNS5_IhEEEEvEEEENS_19__map_value_compareIS7_SH_NS_4lessIvEELb1EEENS5_ISH_EEE10__root_ptrB8ue170006Ev, symObjAddr: 0x31648, symBinAddr: 0x100032438, symSize: 0x24 }
  - { offsetInCU: 0x4E05A, offset: 0x4E05A, size: 0x8, addend: 0x0, symName: __ZNSt3__16__treeINS_12__value_typeINS_12basic_stringIcNS_11char_traitsIcEENS_9allocatorIcEEEEN8nlohmann16json_abi_v3_11_310basic_jsonINS_3mapENS_6vectorES7_bxydS5_NS9_14adl_serializerENSC_IhNS5_IhEEEEvEEEENS_19__map_value_compareIS7_SH_NS_4lessIvEELb1EEENS5_ISH_EEE10value_compB8ue170006Ev, symObjAddr: 0x3166C, symBinAddr: 0x10003245C, symSize: 0x28 }
  - { offsetInCU: 0x4E080, offset: 0x4E080, size: 0x8, addend: 0x0, symName: __ZNKSt3__119__map_value_compareINS_12basic_stringIcNS_11char_traitsIcEENS_9allocatorIcEEEENS_12__value_typeIS6_N8nlohmann16json_abi_v3_11_310basic_jsonINS_3mapENS_6vectorES6_bxydS4_NS9_14adl_serializerENSC_IhNS4_IhEEEEvEEEENS_4lessIvEELb1EEclB8ue170006ERKS6_RKSH_, symObjAddr: 0x31694, symBinAddr: 0x100032484, symSize: 0x50 }
  - { offsetInCU: 0x4E0C4, offset: 0x4E0C4, size: 0x8, addend: 0x0, symName: __ZNKSt3__119__map_value_compareINS_12basic_stringIcNS_11char_traitsIcEENS_9allocatorIcEEEENS_12__value_typeIS6_N8nlohmann16json_abi_v3_11_310basic_jsonINS_3mapENS_6vectorES6_bxydS4_NS9_14adl_serializerENSC_IhNS4_IhEEEEvEEEENS_4lessIvEELb1EEclB8ue170006ERKSH_RKS6_, symObjAddr: 0x316E4, symBinAddr: 0x1000324D4, symSize: 0x48 }
  - { offsetInCU: 0x4E108, offset: 0x4E108, size: 0x8, addend: 0x0, symName: __ZNSt3__117__compressed_pairImNS_19__map_value_compareINS_12basic_stringIcNS_11char_traitsIcEENS_9allocatorIcEEEENS_12__value_typeIS7_N8nlohmann16json_abi_v3_11_310basic_jsonINS_3mapENS_6vectorES7_bxydS5_NSA_14adl_serializerENSD_IhNS5_IhEEEEvEEEENS_4lessIvEELb1EEEE6secondB8ue170006Ev, symObjAddr: 0x3172C, symBinAddr: 0x10003251C, symSize: 0x24 }
  - { offsetInCU: 0x4E12E, offset: 0x4E12E, size: 0x8, addend: 0x0, symName: __ZNSt3__122__compressed_pair_elemINS_19__map_value_compareINS_12basic_stringIcNS_11char_traitsIcEENS_9allocatorIcEEEENS_12__value_typeIS7_N8nlohmann16json_abi_v3_11_310basic_jsonINS_3mapENS_6vectorES7_bxydS5_NSA_14adl_serializerENSD_IhNS5_IhEEEEvEEEENS_4lessIvEELb1EEELi1ELb1EE5__getB8ue170006Ev, symObjAddr: 0x31750, symBinAddr: 0x100032540, symSize: 0x14 }
  - { offsetInCU: 0x4E15A, offset: 0x4E15A, size: 0x8, addend: 0x0, symName: __ZNKSt3__14lessIvEclB8ue170006IRKNS_12basic_stringIcNS_11char_traitsIcEENS_9allocatorIcEEEESA_EEDTltclsr3stdE7forwardIT_Efp_Eclsr3stdE7forwardIT0_Efp0_EEOSB_OSC_, symObjAddr: 0x31764, symBinAddr: 0x100032554, symSize: 0x50 }
  - { offsetInCU: 0x4E1B0, offset: 0x4E1B0, size: 0x8, addend: 0x0, symName: __ZNKSt3__112__value_typeINS_12basic_stringIcNS_11char_traitsIcEENS_9allocatorIcEEEEN8nlohmann16json_abi_v3_11_310basic_jsonINS_3mapENS_6vectorES6_bxydS4_NS8_14adl_serializerENSB_IhNS4_IhEEEEvEEE11__get_valueB8ue170006Ev, symObjAddr: 0x317B4, symBinAddr: 0x1000325A4, symSize: 0x24 }
  - { offsetInCU: 0x4E1E6, offset: 0x4E1E6, size: 0x8, addend: 0x0, symName: __ZNSt3__120_CmpUnspecifiedParamC1B8ue170006EMS0_i, symObjAddr: 0x31858, symBinAddr: 0x100032648, symSize: 0x34 }
  - { offsetInCU: 0x4E21B, offset: 0x4E21B, size: 0x8, addend: 0x0, symName: __ZNKSt3__117basic_string_viewIcNS_11char_traitsIcEEE7compareES3_, symObjAddr: 0x31908, symBinAddr: 0x1000326F8, symSize: 0x13C }
  - { offsetInCU: 0x4E26E, offset: 0x4E26E, size: 0x8, addend: 0x0, symName: __ZNSt3__120_CmpUnspecifiedParamC2B8ue170006EMS0_i, symObjAddr: 0x31A44, symBinAddr: 0x100032834, symSize: 0x18 }
  - { offsetInCU: 0x4E2A3, offset: 0x4E2A3, size: 0x8, addend: 0x0, symName: __ZNSt3__116allocator_traitsINS_9allocatorINS_11__tree_nodeINS_12__value_typeINS_12basic_stringIcNS_11char_traitsIcEENS1_IcEEEEN8nlohmann16json_abi_v3_11_310basic_jsonINS_3mapENS_6vectorES8_bxydS1_NSA_14adl_serializerENSD_IhNS1_IhEEEEvEEEEPvEEEEE8allocateB8ue170006ERSL_m, symObjAddr: 0x31A94, symBinAddr: 0x100032884, symSize: 0x2C }
  - { offsetInCU: 0x4E2D6, offset: 0x4E2D6, size: 0x8, addend: 0x0, symName: __ZNSt3__122__tree_node_destructorINS_9allocatorINS_11__tree_nodeINS_12__value_typeINS_12basic_stringIcNS_11char_traitsIcEENS1_IcEEEEN8nlohmann16json_abi_v3_11_310basic_jsonINS_3mapENS_6vectorES8_bxydS1_NSA_14adl_serializerENSD_IhNS1_IhEEEEvEEEEPvEEEEEC1B8ue170006ERSL_b, symObjAddr: 0x31AC0, symBinAddr: 0x1000328B0, symSize: 0x48 }
  - { offsetInCU: 0x4E324, offset: 0x4E324, size: 0x8, addend: 0x0, symName: __ZNSt3__110unique_ptrINS_11__tree_nodeINS_12__value_typeINS_12basic_stringIcNS_11char_traitsIcEENS_9allocatorIcEEEEN8nlohmann16json_abi_v3_11_310basic_jsonINS_3mapENS_6vectorES8_bxydS6_NSA_14adl_serializerENSD_IhNS6_IhEEEEvEEEEPvEENS_22__tree_node_destructorINS6_ISK_EEEEEC1B8ue170006ILb1EvEEPSK_NS_16__dependent_typeINS_27__unique_ptr_deleter_sfinaeISN_EEXT_EE20__good_rval_ref_typeE, symObjAddr: 0x31B08, symBinAddr: 0x1000328F8, symSize: 0x3C }
  - { offsetInCU: 0x4E375, offset: 0x4E375, size: 0x8, addend: 0x0, symName: __ZNSt3__116allocator_traitsINS_9allocatorINS_11__tree_nodeINS_12__value_typeINS_12basic_stringIcNS_11char_traitsIcEENS1_IcEEEEN8nlohmann16json_abi_v3_11_310basic_jsonINS_3mapENS_6vectorES8_bxydS1_NSA_14adl_serializerENSD_IhNS1_IhEEEEvEEEEPvEEEEE9constructB8ue170006INS_4pairIKS8_SH_EEJS8_SH_EvvEEvRSL_PT_DpOT0_, symObjAddr: 0x31B44, symBinAddr: 0x100032934, symSize: 0x38 }
  - { offsetInCU: 0x4E3DE, offset: 0x4E3DE, size: 0x8, addend: 0x0, symName: __ZNKSt3__110unique_ptrINS_11__tree_nodeINS_12__value_typeINS_12basic_stringIcNS_11char_traitsIcEENS_9allocatorIcEEEEN8nlohmann16json_abi_v3_11_310basic_jsonINS_3mapENS_6vectorES8_bxydS6_NSA_14adl_serializerENSD_IhNS6_IhEEEEvEEEEPvEENS_22__tree_node_destructorINS6_ISK_EEEEEptB8ue170006Ev, symObjAddr: 0x31B7C, symBinAddr: 0x10003296C, symSize: 0x28 }
  - { offsetInCU: 0x4E404, offset: 0x4E404, size: 0x8, addend: 0x0, symName: __ZNSt3__110unique_ptrINS_11__tree_nodeINS_12__value_typeINS_12basic_stringIcNS_11char_traitsIcEENS_9allocatorIcEEEEN8nlohmann16json_abi_v3_11_310basic_jsonINS_3mapENS_6vectorES8_bxydS6_NSA_14adl_serializerENSD_IhNS6_IhEEEEvEEEEPvEENS_22__tree_node_destructorINS6_ISK_EEEEE11get_deleterB8ue170006Ev, symObjAddr: 0x31BA4, symBinAddr: 0x100032994, symSize: 0x24 }
  - { offsetInCU: 0x4E42A, offset: 0x4E42A, size: 0x8, addend: 0x0, symName: __ZNSt3__19allocatorINS_11__tree_nodeINS_12__value_typeINS_12basic_stringIcNS_11char_traitsIcEENS0_IcEEEEN8nlohmann16json_abi_v3_11_310basic_jsonINS_3mapENS_6vectorES7_bxydS0_NS9_14adl_serializerENSC_IhNS0_IhEEEEvEEEEPvEEE8allocateB8ue170006Em, symObjAddr: 0x31BC8, symBinAddr: 0x1000329B8, symSize: 0x5C }
  - { offsetInCU: 0x4E469, offset: 0x4E469, size: 0x8, addend: 0x0, symName: __ZNSt3__116allocator_traitsINS_9allocatorINS_11__tree_nodeINS_12__value_typeINS_12basic_stringIcNS_11char_traitsIcEENS1_IcEEEEN8nlohmann16json_abi_v3_11_310basic_jsonINS_3mapENS_6vectorES8_bxydS1_NSA_14adl_serializerENSD_IhNS1_IhEEEEvEEEEPvEEEEE8max_sizeB8ue170006ISL_vvEEmRKSL_, symObjAddr: 0x31C24, symBinAddr: 0x100032A14, symSize: 0x28 }
  - { offsetInCU: 0x4E495, offset: 0x4E495, size: 0x8, addend: 0x0, symName: __ZNSt3__122__tree_node_destructorINS_9allocatorINS_11__tree_nodeINS_12__value_typeINS_12basic_stringIcNS_11char_traitsIcEENS1_IcEEEEN8nlohmann16json_abi_v3_11_310basic_jsonINS_3mapENS_6vectorES8_bxydS1_NSA_14adl_serializerENSD_IhNS1_IhEEEEvEEEEPvEEEEEC2B8ue170006ERSL_b, symObjAddr: 0x31C4C, symBinAddr: 0x100032A3C, symSize: 0x38 }
  - { offsetInCU: 0x4E4DD, offset: 0x4E4DD, size: 0x8, addend: 0x0, symName: __ZNSt3__110unique_ptrINS_11__tree_nodeINS_12__value_typeINS_12basic_stringIcNS_11char_traitsIcEENS_9allocatorIcEEEEN8nlohmann16json_abi_v3_11_310basic_jsonINS_3mapENS_6vectorES8_bxydS6_NSA_14adl_serializerENSD_IhNS6_IhEEEEvEEEEPvEENS_22__tree_node_destructorINS6_ISK_EEEEEC2B8ue170006ILb1EvEEPSK_NS_16__dependent_typeINS_27__unique_ptr_deleter_sfinaeISN_EEXT_EE20__good_rval_ref_typeE, symObjAddr: 0x31C84, symBinAddr: 0x100032A74, symSize: 0x48 }
  - { offsetInCU: 0x4E52E, offset: 0x4E52E, size: 0x8, addend: 0x0, symName: __ZNSt3__117__compressed_pairIPNS_11__tree_nodeINS_12__value_typeINS_12basic_stringIcNS_11char_traitsIcEENS_9allocatorIcEEEEN8nlohmann16json_abi_v3_11_310basic_jsonINS_3mapENS_6vectorES8_bxydS6_NSA_14adl_serializerENSD_IhNS6_IhEEEEvEEEEPvEENS_22__tree_node_destructorINS6_ISK_EEEEEC1B8ue170006IRSL_SO_EEOT_OT0_, symObjAddr: 0x31CCC, symBinAddr: 0x100032ABC, symSize: 0x3C }
  - { offsetInCU: 0x4E586, offset: 0x4E586, size: 0x8, addend: 0x0, symName: __ZNSt3__117__compressed_pairIPNS_11__tree_nodeINS_12__value_typeINS_12basic_stringIcNS_11char_traitsIcEENS_9allocatorIcEEEEN8nlohmann16json_abi_v3_11_310basic_jsonINS_3mapENS_6vectorES8_bxydS6_NSA_14adl_serializerENSD_IhNS6_IhEEEEvEEEEPvEENS_22__tree_node_destructorINS6_ISK_EEEEEC2B8ue170006IRSL_SO_EEOT_OT0_, symObjAddr: 0x31D08, symBinAddr: 0x100032AF8, symSize: 0x48 }
  - { offsetInCU: 0x4E5DE, offset: 0x4E5DE, size: 0x8, addend: 0x0, symName: __ZNSt3__122__compressed_pair_elemIPNS_11__tree_nodeINS_12__value_typeINS_12basic_stringIcNS_11char_traitsIcEENS_9allocatorIcEEEEN8nlohmann16json_abi_v3_11_310basic_jsonINS_3mapENS_6vectorES8_bxydS6_NSA_14adl_serializerENSD_IhNS6_IhEEEEvEEEEPvEELi0ELb0EEC2B8ue170006IRSL_vEEOT_, symObjAddr: 0x31D50, symBinAddr: 0x100032B40, symSize: 0x24 }
  - { offsetInCU: 0x4E620, offset: 0x4E620, size: 0x8, addend: 0x0, symName: __ZNSt3__122__compressed_pair_elemINS_22__tree_node_destructorINS_9allocatorINS_11__tree_nodeINS_12__value_typeINS_12basic_stringIcNS_11char_traitsIcEENS2_IcEEEEN8nlohmann16json_abi_v3_11_310basic_jsonINS_3mapENS_6vectorES9_bxydS2_NSB_14adl_serializerENSE_IhNS2_IhEEEEvEEEEPvEEEEEELi1ELb0EEC2B8ue170006ISN_vEEOT_, symObjAddr: 0x31D74, symBinAddr: 0x100032B64, symSize: 0x24 }
  - { offsetInCU: 0x4E662, offset: 0x4E662, size: 0x8, addend: 0x0, symName: __ZNSt3__14pairIKNS_12basic_stringIcNS_11char_traitsIcEENS_9allocatorIcEEEEN8nlohmann16json_abi_v3_11_310basic_jsonINS_3mapENS_6vectorES6_bxydS4_NS9_14adl_serializerENSC_IhNS4_IhEEEEvEEEC1B8ue170006IS6_SG_LPv0EEEOT_OT0_, symObjAddr: 0x31DDC, symBinAddr: 0x100032BCC, symSize: 0x3C }
  - { offsetInCU: 0x4E6C0, offset: 0x4E6C0, size: 0x8, addend: 0x0, symName: __ZNSt3__14pairIKNS_12basic_stringIcNS_11char_traitsIcEENS_9allocatorIcEEEEN8nlohmann16json_abi_v3_11_310basic_jsonINS_3mapENS_6vectorES6_bxydS4_NS9_14adl_serializerENSC_IhNS4_IhEEEEvEEEC2B8ue170006IS6_SG_LPv0EEEOT_OT0_, symObjAddr: 0x31E18, symBinAddr: 0x100032C08, symSize: 0x48 }
  - { offsetInCU: 0x4E71E, offset: 0x4E71E, size: 0x8, addend: 0x0, symName: __ZNSt3__112basic_stringIcNS_11char_traitsIcEENS_9allocatorIcEEEC1B8ue170006EOS5_, symObjAddr: 0x31E60, symBinAddr: 0x100032C50, symSize: 0x34 }
  - { offsetInCU: 0x4E757, offset: 0x4E757, size: 0x8, addend: 0x0, symName: __ZNSt3__112basic_stringIcNS_11char_traitsIcEENS_9allocatorIcEEEC2B8ue170006EOS5_, symObjAddr: 0x31E94, symBinAddr: 0x100032C84, symSize: 0x48 }
  - { offsetInCU: 0x4E790, offset: 0x4E790, size: 0x8, addend: 0x0, symName: __ZNKSt3__117__compressed_pairIPNS_11__tree_nodeINS_12__value_typeINS_12basic_stringIcNS_11char_traitsIcEENS_9allocatorIcEEEEN8nlohmann16json_abi_v3_11_310basic_jsonINS_3mapENS_6vectorES8_bxydS6_NSA_14adl_serializerENSD_IhNS6_IhEEEEvEEEEPvEENS_22__tree_node_destructorINS6_ISK_EEEEE5firstB8ue170006Ev, symObjAddr: 0x31EDC, symBinAddr: 0x100032CCC, symSize: 0x24 }
  - { offsetInCU: 0x4E7B6, offset: 0x4E7B6, size: 0x8, addend: 0x0, symName: __ZNKSt3__122__compressed_pair_elemIPNS_11__tree_nodeINS_12__value_typeINS_12basic_stringIcNS_11char_traitsIcEENS_9allocatorIcEEEEN8nlohmann16json_abi_v3_11_310basic_jsonINS_3mapENS_6vectorES8_bxydS6_NSA_14adl_serializerENSD_IhNS6_IhEEEEvEEEEPvEELi0ELb0EE5__getB8ue170006Ev, symObjAddr: 0x31F00, symBinAddr: 0x100032CF0, symSize: 0x14 }
  - { offsetInCU: 0x4E7DC, offset: 0x4E7DC, size: 0x8, addend: 0x0, symName: __ZNSt3__117__compressed_pairIPNS_11__tree_nodeINS_12__value_typeINS_12basic_stringIcNS_11char_traitsIcEENS_9allocatorIcEEEEN8nlohmann16json_abi_v3_11_310basic_jsonINS_3mapENS_6vectorES8_bxydS6_NSA_14adl_serializerENSD_IhNS6_IhEEEEvEEEEPvEENS_22__tree_node_destructorINS6_ISK_EEEEE6secondB8ue170006Ev, symObjAddr: 0x31F14, symBinAddr: 0x100032D04, symSize: 0x28 }
  - { offsetInCU: 0x4E802, offset: 0x4E802, size: 0x8, addend: 0x0, symName: __ZNSt3__122__compressed_pair_elemINS_22__tree_node_destructorINS_9allocatorINS_11__tree_nodeINS_12__value_typeINS_12basic_stringIcNS_11char_traitsIcEENS2_IcEEEEN8nlohmann16json_abi_v3_11_310basic_jsonINS_3mapENS_6vectorES9_bxydS2_NSB_14adl_serializerENSE_IhNS2_IhEEEEvEEEEPvEEEEEELi1ELb0EE5__getB8ue170006Ev, symObjAddr: 0x31F3C, symBinAddr: 0x100032D2C, symSize: 0x14 }
  - { offsetInCU: 0x4E828, offset: 0x4E828, size: 0x8, addend: 0x0, symName: __ZNSt3__116__tree_node_baseIPvE12__set_parentB8ue170006EPS2_, symObjAddr: 0x32370, symBinAddr: 0x100033160, symSize: 0x20 }
  - { offsetInCU: 0x4E85D, offset: 0x4E85D, size: 0x8, addend: 0x0, symName: __ZNSt3__117__compressed_pairIPNS_11__tree_nodeINS_12__value_typeINS_12basic_stringIcNS_11char_traitsIcEENS_9allocatorIcEEEEN8nlohmann16json_abi_v3_11_310basic_jsonINS_3mapENS_6vectorES8_bxydS6_NSA_14adl_serializerENSD_IhNS6_IhEEEEvEEEEPvEENS_22__tree_node_destructorINS6_ISK_EEEEE5firstB8ue170006Ev, symObjAddr: 0x32390, symBinAddr: 0x100033180, symSize: 0x24 }
  - { offsetInCU: 0x4E883, offset: 0x4E883, size: 0x8, addend: 0x0, symName: __ZNSt3__122__compressed_pair_elemIPNS_11__tree_nodeINS_12__value_typeINS_12basic_stringIcNS_11char_traitsIcEENS_9allocatorIcEEEEN8nlohmann16json_abi_v3_11_310basic_jsonINS_3mapENS_6vectorES8_bxydS6_NSA_14adl_serializerENSD_IhNS6_IhEEEEvEEEEPvEELi0ELb0EE5__getB8ue170006Ev, symObjAddr: 0x323B4, symBinAddr: 0x1000331A4, symSize: 0x14 }
  - { offsetInCU: 0x4E8A9, offset: 0x4E8A9, size: 0x8, addend: 0x0, symName: __ZNSt3__110unique_ptrINS_11__tree_nodeINS_12__value_typeINS_12basic_stringIcNS_11char_traitsIcEENS_9allocatorIcEEEEN8nlohmann16json_abi_v3_11_310basic_jsonINS_3mapENS_6vectorES8_bxydS6_NSA_14adl_serializerENSD_IhNS6_IhEEEEvEEEEPvEENS_22__tree_node_destructorINS6_ISK_EEEEED2B8ue170006Ev, symObjAddr: 0x323C8, symBinAddr: 0x1000331B8, symSize: 0x30 }
  - { offsetInCU: 0x4E8D3, offset: 0x4E8D3, size: 0x8, addend: 0x0, symName: __ZNSt3__110unique_ptrINS_11__tree_nodeINS_12__value_typeINS_12basic_stringIcNS_11char_traitsIcEENS_9allocatorIcEEEEN8nlohmann16json_abi_v3_11_310basic_jsonINS_3mapENS_6vectorES8_bxydS6_NSA_14adl_serializerENSD_IhNS6_IhEEEEvEEEEPvEENS_22__tree_node_destructorINS6_ISK_EEEEE5resetB8ue170006EPSK_, symObjAddr: 0x323F8, symBinAddr: 0x1000331E8, symSize: 0x78 }
  - { offsetInCU: 0x4E917, offset: 0x4E917, size: 0x8, addend: 0x0, symName: __ZNSt3__122__tree_node_destructorINS_9allocatorINS_11__tree_nodeINS_12__value_typeINS_12basic_stringIcNS_11char_traitsIcEENS1_IcEEEEN8nlohmann16json_abi_v3_11_310basic_jsonINS_3mapENS_6vectorES8_bxydS1_NSA_14adl_serializerENSD_IhNS1_IhEEEEvEEEEPvEEEEEclB8ue170006EPSK_, symObjAddr: 0x32470, symBinAddr: 0x100033260, symSize: 0x90 }
  - { offsetInCU: 0x4E94C, offset: 0x4E94C, size: 0x8, addend: 0x0, symName: __ZNSt3__115__tree_iteratorINS_12__value_typeINS_12basic_stringIcNS_11char_traitsIcEENS_9allocatorIcEEEEN8nlohmann16json_abi_v3_11_310basic_jsonINS_3mapENS_6vectorES7_bxydS5_NS9_14adl_serializerENSC_IhNS5_IhEEEEvEEEEPNS_11__tree_nodeISH_PvEElEC2B8ue170006ESL_, symObjAddr: 0x32500, symBinAddr: 0x1000332F0, symSize: 0x20 }
  - { offsetInCU: 0x4E985, offset: 0x4E985, size: 0x8, addend: 0x0, symName: __ZNSt3__14pairINS_15__tree_iteratorINS_12__value_typeINS_12basic_stringIcNS_11char_traitsIcEENS_9allocatorIcEEEEN8nlohmann16json_abi_v3_11_310basic_jsonINS_3mapENS_6vectorES8_bxydS6_NSA_14adl_serializerENSD_IhNS6_IhEEEEvEEEEPNS_11__tree_nodeISI_PvEElEEbEC2B8ue170006ISN_RbLSK_0EEEOT_OT0_, symObjAddr: 0x32520, symBinAddr: 0x100033310, symSize: 0x38 }
  - { offsetInCU: 0x4E9E3, offset: 0x4E9E3, size: 0x8, addend: 0x0, symName: __ZNSt3__14pairINS_14__map_iteratorINS_15__tree_iteratorINS_12__value_typeINS_12basic_stringIcNS_11char_traitsIcEENS_9allocatorIcEEEEN8nlohmann16json_abi_v3_11_310basic_jsonINS_3mapENS_6vectorES9_bxydS7_NSB_14adl_serializerENSE_IhNS7_IhEEEEvEEEEPNS_11__tree_nodeISJ_PvEElEEEEbEC2B8ue170006ISO_bLSL_0EEEONS0_IT_T0_EE, symObjAddr: 0x32558, symBinAddr: 0x100033348, symSize: 0x50 }
  - { offsetInCU: 0x4EAA7, offset: 0x4EAA7, size: 0x8, addend: 0x0, symName: __ZNSt3__110unique_ptrINS_6vectorIN8nlohmann16json_abi_v3_11_310basic_jsonINS_3mapES1_NS_12basic_stringIcNS_11char_traitsIcEENS_9allocatorIcEEEEbxydS9_NS3_14adl_serializerENS1_IhNS9_IhEEEEvEENS9_ISF_EEEEZNSF_6createISH_JPKNS3_6detail8json_refISF_EESN_EEEPT_DpOT0_EUlPSH_E_EC1B8ue170006ILb1EvEEST_NS_16__dependent_typeINS_27__unique_ptr_deleter_sfinaeISU_EEXT_EE15__lval_ref_typeE, symObjAddr: 0x325A8, symBinAddr: 0x100033398, symSize: 0x3C }
  - { offsetInCU: 0x4EAF8, offset: 0x4EAF8, size: 0x8, addend: 0x0, symName: __ZNSt3__116allocator_traitsINS_9allocatorINS_6vectorIN8nlohmann16json_abi_v3_11_310basic_jsonINS_3mapES2_NS_12basic_stringIcNS_11char_traitsIcEENS1_IcEEEEbxydS1_NS4_14adl_serializerENS2_IhNS1_IhEEEEvEENS1_ISF_EEEEEEE9constructB8ue170006ISH_JPKNS4_6detail8json_refISF_EESP_EvvEEvRSI_PT_DpOT0_, symObjAddr: 0x325E4, symBinAddr: 0x1000333D4, symSize: 0x38 }
  - { offsetInCU: 0x4EB61, offset: 0x4EB61, size: 0x8, addend: 0x0, symName: __ZNKSt3__110unique_ptrINS_6vectorIN8nlohmann16json_abi_v3_11_310basic_jsonINS_3mapES1_NS_12basic_stringIcNS_11char_traitsIcEENS_9allocatorIcEEEEbxydS9_NS3_14adl_serializerENS1_IhNS9_IhEEEEvEENS9_ISF_EEEEZNSF_6createISH_JPKNS3_6detail8json_refISF_EESN_EEEPT_DpOT0_EUlPSH_E_E3getB8ue170006Ev, symObjAddr: 0x3261C, symBinAddr: 0x10003340C, symSize: 0x28 }
  - { offsetInCU: 0x4EB87, offset: 0x4EB87, size: 0x8, addend: 0x0, symName: __ZNSt3__110unique_ptrINS_6vectorIN8nlohmann16json_abi_v3_11_310basic_jsonINS_3mapES1_NS_12basic_stringIcNS_11char_traitsIcEENS_9allocatorIcEEEEbxydS9_NS3_14adl_serializerENS1_IhNS9_IhEEEEvEENS9_ISF_EEEEZNSF_6createISH_JPKNS3_6detail8json_refISF_EESN_EEEPT_DpOT0_EUlPSH_E_E7releaseB8ue170006Ev, symObjAddr: 0x32674, symBinAddr: 0x100033464, symSize: 0x44 }
  - { offsetInCU: 0x4EBBC, offset: 0x4EBBC, size: 0x8, addend: 0x0, symName: __ZNSt3__110unique_ptrINS_6vectorIN8nlohmann16json_abi_v3_11_310basic_jsonINS_3mapES1_NS_12basic_stringIcNS_11char_traitsIcEENS_9allocatorIcEEEEbxydS9_NS3_14adl_serializerENS1_IhNS9_IhEEEEvEENS9_ISF_EEEEZNSF_6createISH_JPKNS3_6detail8json_refISF_EESN_EEEPT_DpOT0_EUlPSH_E_ED1B8ue170006Ev, symObjAddr: 0x326B8, symBinAddr: 0x1000334A8, symSize: 0x2C }
  - { offsetInCU: 0x4EBE6, offset: 0x4EBE6, size: 0x8, addend: 0x0, symName: __ZNSt3__110unique_ptrINS_6vectorIN8nlohmann16json_abi_v3_11_310basic_jsonINS_3mapES1_NS_12basic_stringIcNS_11char_traitsIcEENS_9allocatorIcEEEEbxydS9_NS3_14adl_serializerENS1_IhNS9_IhEEEEvEENS9_ISF_EEEEZNSF_6createISH_JPKNS3_6detail8json_refISF_EESN_EEEPT_DpOT0_EUlPSH_E_EC2B8ue170006ILb1EvEEST_NS_16__dependent_typeINS_27__unique_ptr_deleter_sfinaeISU_EEXT_EE15__lval_ref_typeE, symObjAddr: 0x326E4, symBinAddr: 0x1000334D4, symSize: 0x48 }
  - { offsetInCU: 0x4EC37, offset: 0x4EC37, size: 0x8, addend: 0x0, symName: __ZNSt3__117__compressed_pairIPNS_6vectorIN8nlohmann16json_abi_v3_11_310basic_jsonINS_3mapES1_NS_12basic_stringIcNS_11char_traitsIcEENS_9allocatorIcEEEEbxydS9_NS3_14adl_serializerENS1_IhNS9_IhEEEEvEENS9_ISF_EEEEZNSF_6createISH_JPKNS3_6detail8json_refISF_EESO_EEEPT_DpOT0_EUlSI_E_EC1B8ue170006IRSI_RKSU_EEOSP_OT0_, symObjAddr: 0x3272C, symBinAddr: 0x10003351C, symSize: 0x3C }
  - { offsetInCU: 0x4EC8F, offset: 0x4EC8F, size: 0x8, addend: 0x0, symName: __ZNSt3__117__compressed_pairIPNS_6vectorIN8nlohmann16json_abi_v3_11_310basic_jsonINS_3mapES1_NS_12basic_stringIcNS_11char_traitsIcEENS_9allocatorIcEEEEbxydS9_NS3_14adl_serializerENS1_IhNS9_IhEEEEvEENS9_ISF_EEEEZNSF_6createISH_JPKNS3_6detail8json_refISF_EESO_EEEPT_DpOT0_EUlSI_E_EC2B8ue170006IRSI_RKSU_EEOSP_OT0_, symObjAddr: 0x32768, symBinAddr: 0x100033558, symSize: 0x48 }
  - { offsetInCU: 0x4ECE7, offset: 0x4ECE7, size: 0x8, addend: 0x0, symName: __ZNSt3__122__compressed_pair_elemIZN8nlohmann16json_abi_v3_11_310basic_jsonINS_3mapENS_6vectorENS_12basic_stringIcNS_11char_traitsIcEENS_9allocatorIcEEEEbxydS9_NS2_14adl_serializerENS5_IhNS9_IhEEEEvE6createINS5_ISF_NS9_ISF_EEEEJPKNS2_6detail8json_refISF_EESN_EEEPT_DpOT0_EUlPSI_E_Li1ELb0EEC2B8ue170006IRKSU_vEEOSO_, symObjAddr: 0x327B0, symBinAddr: 0x1000335A0, symSize: 0x24 }
  - { offsetInCU: 0x4ED29, offset: 0x4ED29, size: 0x8, addend: 0x0, symName: __ZNSt3__16vectorIN8nlohmann16json_abi_v3_11_310basic_jsonINS_3mapES0_NS_12basic_stringIcNS_11char_traitsIcEENS_9allocatorIcEEEEbxydS8_NS2_14adl_serializerENS0_IhNS8_IhEEEEvEENS8_ISE_EEEC1IPKNS2_6detail8json_refISE_EELi0EEET_SN_, symObjAddr: 0x32820, symBinAddr: 0x100033610, symSize: 0x3C }
  - { offsetInCU: 0x4ED82, offset: 0x4ED82, size: 0x8, addend: 0x0, symName: __ZNSt3__16vectorIN8nlohmann16json_abi_v3_11_310basic_jsonINS_3mapES0_NS_12basic_stringIcNS_11char_traitsIcEENS_9allocatorIcEEEEbxydS8_NS2_14adl_serializerENS0_IhNS8_IhEEEEvEENS8_ISE_EEEC2IPKNS2_6detail8json_refISE_EELi0EEET_SN_, symObjAddr: 0x3285C, symBinAddr: 0x10003364C, symSize: 0x74 }
  - { offsetInCU: 0x4EDF9, offset: 0x4EDF9, size: 0x8, addend: 0x0, symName: __ZNSt3__16vectorIN8nlohmann16json_abi_v3_11_310basic_jsonINS_3mapES0_NS_12basic_stringIcNS_11char_traitsIcEENS_9allocatorIcEEEEbxydS8_NS2_14adl_serializerENS0_IhNS8_IhEEEEvEENS8_ISE_EEE16__init_with_sizeB8ue170006IPKNS2_6detail8json_refISE_EESM_EEvT_T0_m, symObjAddr: 0x328FC, symBinAddr: 0x1000336EC, symSize: 0xB8 }
  - { offsetInCU: 0x4EE6D, offset: 0x4EE6D, size: 0x8, addend: 0x0, symName: __ZNSt3__16vectorIN8nlohmann16json_abi_v3_11_310basic_jsonINS_3mapES0_NS_12basic_stringIcNS_11char_traitsIcEENS_9allocatorIcEEEEbxydS8_NS2_14adl_serializerENS0_IhNS8_IhEEEEvEENS8_ISE_EEE11__vallocateB8ue170006Em, symObjAddr: 0x32A1C, symBinAddr: 0x10003380C, symSize: 0xAC }
  - { offsetInCU: 0x4EEB1, offset: 0x4EEB1, size: 0x8, addend: 0x0, symName: __ZNSt3__16vectorIN8nlohmann16json_abi_v3_11_310basic_jsonINS_3mapES0_NS_12basic_stringIcNS_11char_traitsIcEENS_9allocatorIcEEEEbxydS8_NS2_14adl_serializerENS0_IhNS8_IhEEEEvEENS8_ISE_EEE18__construct_at_endIPKNS2_6detail8json_refISE_EESM_EEvT_T0_m, symObjAddr: 0x32AC8, symBinAddr: 0x1000338B8, symSize: 0x8C }
  - { offsetInCU: 0x4EF27, offset: 0x4EF27, size: 0x8, addend: 0x0, symName: __ZNSt3__128__exception_guard_exceptionsINS_6vectorIN8nlohmann16json_abi_v3_11_310basic_jsonINS_3mapES1_NS_12basic_stringIcNS_11char_traitsIcEENS_9allocatorIcEEEEbxydS9_NS3_14adl_serializerENS1_IhNS9_IhEEEEvEENS9_ISF_EEE16__destroy_vectorEE10__completeB8ue170006Ev, symObjAddr: 0x32B54, symBinAddr: 0x100033944, symSize: 0x1C }
  - { offsetInCU: 0x4EF4D, offset: 0x4EF4D, size: 0x8, addend: 0x0, symName: __ZNSt3__128__exception_guard_exceptionsINS_6vectorIN8nlohmann16json_abi_v3_11_310basic_jsonINS_3mapES1_NS_12basic_stringIcNS_11char_traitsIcEENS_9allocatorIcEEEEbxydS9_NS3_14adl_serializerENS1_IhNS9_IhEEEEvEENS9_ISF_EEE16__destroy_vectorEED1B8ue170006Ev, symObjAddr: 0x32B70, symBinAddr: 0x100033960, symSize: 0x2C }
  - { offsetInCU: 0x4EF77, offset: 0x4EF77, size: 0x8, addend: 0x0, symName: __ZNSt3__128__exception_guard_exceptionsINS_6vectorIN8nlohmann16json_abi_v3_11_310basic_jsonINS_3mapES1_NS_12basic_stringIcNS_11char_traitsIcEENS_9allocatorIcEEEEbxydS9_NS3_14adl_serializerENS1_IhNS9_IhEEEEvEENS9_ISF_EEE16__destroy_vectorEEC1B8ue170006ESI_, symObjAddr: 0x32B9C, symBinAddr: 0x10003398C, symSize: 0x34 }
  - { offsetInCU: 0x4EFAF, offset: 0x4EFAF, size: 0x8, addend: 0x0, symName: __ZNSt3__128__exception_guard_exceptionsINS_6vectorIN8nlohmann16json_abi_v3_11_310basic_jsonINS_3mapES1_NS_12basic_stringIcNS_11char_traitsIcEENS_9allocatorIcEEEEbxydS9_NS3_14adl_serializerENS1_IhNS9_IhEEEEvEENS9_ISF_EEE16__destroy_vectorEEC2B8ue170006ESI_, symObjAddr: 0x32BD0, symBinAddr: 0x1000339C0, symSize: 0x24 }
  - { offsetInCU: 0x4F004, offset: 0x4F004, size: 0x8, addend: 0x0, symName: __ZNSt3__119__unwrap_range_implIPKN8nlohmann16json_abi_v3_11_36detail8json_refINS2_10basic_jsonINS_3mapENS_6vectorENS_12basic_stringIcNS_11char_traitsIcEENS_9allocatorIcEEEEbxydSB_NS2_14adl_serializerENS7_IhNSB_IhEEEEvEEEESK_E8__unwrapB8ue170006ESK_SK_, symObjAddr: 0x32E04, symBinAddr: 0x100033BF4, symSize: 0x58 }
  - { offsetInCU: 0x4F035, offset: 0x4F035, size: 0x8, addend: 0x0, symName: __ZNSt3__14pairIPKN8nlohmann16json_abi_v3_11_36detail8json_refINS2_10basic_jsonINS_3mapENS_6vectorENS_12basic_stringIcNS_11char_traitsIcEENS_9allocatorIcEEEEbxydSB_NS2_14adl_serializerENS7_IhNSB_IhEEEEvEEEESK_EC1B8ue170006ISK_SK_LPv0EEEOT_OT0_, symObjAddr: 0x32E80, symBinAddr: 0x100033C70, symSize: 0x3C }
  - { offsetInCU: 0x4F093, offset: 0x4F093, size: 0x8, addend: 0x0, symName: __ZNSt3__118__unwrap_iter_implIPKN8nlohmann16json_abi_v3_11_36detail8json_refINS2_10basic_jsonINS_3mapENS_6vectorENS_12basic_stringIcNS_11char_traitsIcEENS_9allocatorIcEEEEbxydSB_NS2_14adl_serializerENS7_IhNSB_IhEEEEvEEEELb1EE8__unwrapB8ue170006ESK_, symObjAddr: 0x32EBC, symBinAddr: 0x100033CAC, symSize: 0x24 }
  - { offsetInCU: 0x4F0B6, offset: 0x4F0B6, size: 0x8, addend: 0x0, symName: __ZNSt3__14pairIPKN8nlohmann16json_abi_v3_11_36detail8json_refINS2_10basic_jsonINS_3mapENS_6vectorENS_12basic_stringIcNS_11char_traitsIcEENS_9allocatorIcEEEEbxydSB_NS2_14adl_serializerENS7_IhNSB_IhEEEEvEEEESK_EC2B8ue170006ISK_SK_LPv0EEEOT_OT0_, symObjAddr: 0x32EF4, symBinAddr: 0x100033CE4, symSize: 0x34 }
  - { offsetInCU: 0x4F114, offset: 0x4F114, size: 0x8, addend: 0x0, symName: __ZNSt3__129_AllocatorDestroyRangeReverseINS_9allocatorIN8nlohmann16json_abi_v3_11_310basic_jsonINS_3mapENS_6vectorENS_12basic_stringIcNS_11char_traitsIcEENS1_IcEEEEbxydS1_NS3_14adl_serializerENS6_IhNS1_IhEEEEvEEEEPSF_EC1B8ue170006ERSG_RSH_SK_, symObjAddr: 0x32F74, symBinAddr: 0x100033D64, symSize: 0x44 }
  - { offsetInCU: 0x4F16B, offset: 0x4F16B, size: 0x8, addend: 0x0, symName: __ZNSt3__116allocator_traitsINS_9allocatorIN8nlohmann16json_abi_v3_11_310basic_jsonINS_3mapENS_6vectorENS_12basic_stringIcNS_11char_traitsIcEENS1_IcEEEEbxydS1_NS3_14adl_serializerENS6_IhNS1_IhEEEEvEEEEE9constructB8ue170006ISF_JRKNS3_6detail8json_refISF_EEEvvEEvRSG_PT_DpOT0_, symObjAddr: 0x32FB8, symBinAddr: 0x100033DA8, symSize: 0x30 }
  - { offsetInCU: 0x4F1C0, offset: 0x4F1C0, size: 0x8, addend: 0x0, symName: __ZNSt3__128__exception_guard_exceptionsINS_29_AllocatorDestroyRangeReverseINS_9allocatorIN8nlohmann16json_abi_v3_11_310basic_jsonINS_3mapENS_6vectorENS_12basic_stringIcNS_11char_traitsIcEENS2_IcEEEEbxydS2_NS4_14adl_serializerENS7_IhNS2_IhEEEEvEEEEPSG_EEE10__completeB8ue170006Ev, symObjAddr: 0x32FE8, symBinAddr: 0x100033DD8, symSize: 0x1C }
  - { offsetInCU: 0x4F1E6, offset: 0x4F1E6, size: 0x8, addend: 0x0, symName: __ZNSt3__128__exception_guard_exceptionsINS_29_AllocatorDestroyRangeReverseINS_9allocatorIN8nlohmann16json_abi_v3_11_310basic_jsonINS_3mapENS_6vectorENS_12basic_stringIcNS_11char_traitsIcEENS2_IcEEEEbxydS2_NS4_14adl_serializerENS7_IhNS2_IhEEEEvEEEEPSG_EEED1B8ue170006Ev, symObjAddr: 0x33004, symBinAddr: 0x100033DF4, symSize: 0x2C }
  - { offsetInCU: 0x4F210, offset: 0x4F210, size: 0x8, addend: 0x0, symName: __ZNSt3__128__exception_guard_exceptionsINS_29_AllocatorDestroyRangeReverseINS_9allocatorIN8nlohmann16json_abi_v3_11_310basic_jsonINS_3mapENS_6vectorENS_12basic_stringIcNS_11char_traitsIcEENS2_IcEEEEbxydS2_NS4_14adl_serializerENS7_IhNS2_IhEEEEvEEEEPSG_EEEC1B8ue170006ESJ_, symObjAddr: 0x33030, symBinAddr: 0x100033E20, symSize: 0x34 }
  - { offsetInCU: 0x4F249, offset: 0x4F249, size: 0x8, addend: 0x0, symName: __ZNSt3__128__exception_guard_exceptionsINS_29_AllocatorDestroyRangeReverseINS_9allocatorIN8nlohmann16json_abi_v3_11_310basic_jsonINS_3mapENS_6vectorENS_12basic_stringIcNS_11char_traitsIcEENS2_IcEEEEbxydS2_NS4_14adl_serializerENS7_IhNS2_IhEEEEvEEEEPSG_EEEC2B8ue170006ESJ_, symObjAddr: 0x33064, symBinAddr: 0x100033E54, symSize: 0x30 }
  - { offsetInCU: 0x4F282, offset: 0x4F282, size: 0x8, addend: 0x0, symName: __ZNSt3__129_AllocatorDestroyRangeReverseINS_9allocatorIN8nlohmann16json_abi_v3_11_310basic_jsonINS_3mapENS_6vectorENS_12basic_stringIcNS_11char_traitsIcEENS1_IcEEEEbxydS1_NS3_14adl_serializerENS6_IhNS1_IhEEEEvEEEEPSF_EC2B8ue170006ERSG_RSH_SK_, symObjAddr: 0x33094, symBinAddr: 0x100033E84, symSize: 0x38 }
  - { offsetInCU: 0x4F2D9, offset: 0x4F2D9, size: 0x8, addend: 0x0, symName: __ZN8nlohmann16json_abi_v3_11_310basic_jsonINSt3__13mapENS2_6vectorENS2_12basic_stringIcNS2_11char_traitsIcEENS2_9allocatorIcEEEEbxydS8_NS0_14adl_serializerENS4_IhNS8_IhEEEEvEC1INS0_6detail8json_refISE_EELi0EEERKT_, symObjAddr: 0x33108, symBinAddr: 0x100033EF8, symSize: 0x50 }
  - { offsetInCU: 0x4F321, offset: 0x4F321, size: 0x8, addend: 0x0, symName: __ZNSt3__128__exception_guard_exceptionsINS_29_AllocatorDestroyRangeReverseINS_9allocatorIN8nlohmann16json_abi_v3_11_310basic_jsonINS_3mapENS_6vectorENS_12basic_stringIcNS_11char_traitsIcEENS2_IcEEEEbxydS2_NS4_14adl_serializerENS7_IhNS2_IhEEEEvEEEEPSG_EEED2B8ue170006Ev, symObjAddr: 0x33158, symBinAddr: 0x100033F48, symSize: 0x50 }
  - { offsetInCU: 0x4F34B, offset: 0x4F34B, size: 0x8, addend: 0x0, symName: __ZNKSt3__129_AllocatorDestroyRangeReverseINS_9allocatorIN8nlohmann16json_abi_v3_11_310basic_jsonINS_3mapENS_6vectorENS_12basic_stringIcNS_11char_traitsIcEENS1_IcEEEEbxydS1_NS3_14adl_serializerENS6_IhNS1_IhEEEEvEEEEPSF_EclB8ue170006Ev, symObjAddr: 0x331A8, symBinAddr: 0x100033F98, symSize: 0x68 }
  - { offsetInCU: 0x4F371, offset: 0x4F371, size: 0x8, addend: 0x0, symName: __ZNSt3__118__unwrap_iter_implIPN8nlohmann16json_abi_v3_11_310basic_jsonINS_3mapENS_6vectorENS_12basic_stringIcNS_11char_traitsIcEENS_9allocatorIcEEEEbxydS9_NS2_14adl_serializerENS5_IhNS9_IhEEEEvEELb1EE8__unwrapB8ue170006ESG_, symObjAddr: 0x33280, symBinAddr: 0x100034070, symSize: 0x24 }
  - { offsetInCU: 0x4F394, offset: 0x4F394, size: 0x8, addend: 0x0, symName: __ZNSt3__118__unwrap_iter_implIPN8nlohmann16json_abi_v3_11_310basic_jsonINS_3mapENS_6vectorENS_12basic_stringIcNS_11char_traitsIcEENS_9allocatorIcEEEEbxydS9_NS2_14adl_serializerENS5_IhNS9_IhEEEEvEELb1EE8__rewrapB8ue170006ESG_SG_, symObjAddr: 0x332A4, symBinAddr: 0x100034094, symSize: 0x50 }
  - { offsetInCU: 0x4F3C5, offset: 0x4F3C5, size: 0x8, addend: 0x0, symName: __ZNSt3__128__exception_guard_exceptionsINS_6vectorIN8nlohmann16json_abi_v3_11_310basic_jsonINS_3mapES1_NS_12basic_stringIcNS_11char_traitsIcEENS_9allocatorIcEEEEbxydS9_NS3_14adl_serializerENS1_IhNS9_IhEEEEvEENS9_ISF_EEE16__destroy_vectorEED2B8ue170006Ev, symObjAddr: 0x332F4, symBinAddr: 0x1000340E4, symSize: 0x48 }
  - { offsetInCU: 0x4F3EF, offset: 0x4F3EF, size: 0x8, addend: 0x0, symName: __ZNKSt3__117__compressed_pairIPNS_6vectorIN8nlohmann16json_abi_v3_11_310basic_jsonINS_3mapES1_NS_12basic_stringIcNS_11char_traitsIcEENS_9allocatorIcEEEEbxydS9_NS3_14adl_serializerENS1_IhNS9_IhEEEEvEENS9_ISF_EEEEZNSF_6createISH_JPKNS3_6detail8json_refISF_EESO_EEEPT_DpOT0_EUlSI_E_E5firstB8ue170006Ev, symObjAddr: 0x3333C, symBinAddr: 0x10003412C, symSize: 0x24 }
  - { offsetInCU: 0x4F415, offset: 0x4F415, size: 0x8, addend: 0x0, symName: __ZNKSt3__110unique_ptrINS_6vectorIN8nlohmann16json_abi_v3_11_310basic_jsonINS_3mapES1_NS_12basic_stringIcNS_11char_traitsIcEENS_9allocatorIcEEEEbxydS9_NS3_14adl_serializerENS1_IhNS9_IhEEEEvEENS9_ISF_EEEEZNSF_6createISH_JPKNS3_6detail8json_refISF_EESN_EEEPT_DpOT0_EUlPSH_E_EcvbB8ue170006Ev, symObjAddr: 0x33360, symBinAddr: 0x100034150, symSize: 0x34 }
  - { offsetInCU: 0x4F43B, offset: 0x4F43B, size: 0x8, addend: 0x0, symName: __ZNSt3__117__compressed_pairIPNS_6vectorIN8nlohmann16json_abi_v3_11_310basic_jsonINS_3mapES1_NS_12basic_stringIcNS_11char_traitsIcEENS_9allocatorIcEEEEbxydS9_NS3_14adl_serializerENS1_IhNS9_IhEEEEvEENS9_ISF_EEEEZNSF_6createISH_JPKNS3_6detail8json_refISF_EESO_EEEPT_DpOT0_EUlSI_E_E5firstB8ue170006Ev, symObjAddr: 0x33394, symBinAddr: 0x100034184, symSize: 0x24 }
  - { offsetInCU: 0x4F461, offset: 0x4F461, size: 0x8, addend: 0x0, symName: __ZNSt3__110unique_ptrINS_6vectorIN8nlohmann16json_abi_v3_11_310basic_jsonINS_3mapES1_NS_12basic_stringIcNS_11char_traitsIcEENS_9allocatorIcEEEEbxydS9_NS3_14adl_serializerENS1_IhNS9_IhEEEEvEENS9_ISF_EEEEZNSF_6createISH_JPKNS3_6detail8json_refISF_EESN_EEEPT_DpOT0_EUlPSH_E_ED2B8ue170006Ev, symObjAddr: 0x333B8, symBinAddr: 0x1000341A8, symSize: 0x30 }
  - { offsetInCU: 0x4F48B, offset: 0x4F48B, size: 0x8, addend: 0x0, symName: __ZNSt3__110unique_ptrINS_6vectorIN8nlohmann16json_abi_v3_11_310basic_jsonINS_3mapES1_NS_12basic_stringIcNS_11char_traitsIcEENS_9allocatorIcEEEEbxydS9_NS3_14adl_serializerENS1_IhNS9_IhEEEEvEENS9_ISF_EEEEZNSF_6createISH_JPKNS3_6detail8json_refISF_EESN_EEEPT_DpOT0_EUlPSH_E_E5resetB8ue170006EST_, symObjAddr: 0x333E8, symBinAddr: 0x1000341D8, symSize: 0x80 }
  - { offsetInCU: 0x4F4CF, offset: 0x4F4CF, size: 0x8, addend: 0x0, symName: __ZNSt3__117__compressed_pairIPNS_6vectorIN8nlohmann16json_abi_v3_11_310basic_jsonINS_3mapES1_NS_12basic_stringIcNS_11char_traitsIcEENS_9allocatorIcEEEEbxydS9_NS3_14adl_serializerENS1_IhNS9_IhEEEEvEENS9_ISF_EEEEZNSF_6createISH_JPKNS3_6detail8json_refISF_EESO_EEEPT_DpOT0_EUlSI_E_E6secondB8ue170006Ev, symObjAddr: 0x33468, symBinAddr: 0x100034258, symSize: 0x28 }
  - { offsetInCU: 0x4F4FB, offset: 0x4F4FB, size: 0x8, addend: 0x0, symName: __ZZN8nlohmann16json_abi_v3_11_310basic_jsonINSt3__13mapENS2_6vectorENS2_12basic_stringIcNS2_11char_traitsIcEENS2_9allocatorIcEEEEbxydS8_NS0_14adl_serializerENS4_IhNS8_IhEEEEvE6createINS4_ISE_NS8_ISE_EEEEJPKNS0_6detail8json_refISE_EESM_EEEPT_DpOT0_ENKUlPSH_E_clESS_, symObjAddr: 0x33490, symBinAddr: 0x100034280, symSize: 0x34 }
  - { offsetInCU: 0x4F534, offset: 0x4F534, size: 0x8, addend: 0x0, symName: __ZNSt3__122__compressed_pair_elemIZN8nlohmann16json_abi_v3_11_310basic_jsonINS_3mapENS_6vectorENS_12basic_stringIcNS_11char_traitsIcEENS_9allocatorIcEEEEbxydS9_NS2_14adl_serializerENS5_IhNS9_IhEEEEvE6createINS5_ISF_NS9_ISF_EEEEJPKNS2_6detail8json_refISF_EESN_EEEPT_DpOT0_EUlPSI_E_Li1ELb0EE5__getB8ue170006Ev, symObjAddr: 0x334C4, symBinAddr: 0x1000342B4, symSize: 0x14 }
  - { offsetInCU: 0x4F55A, offset: 0x4F55A, size: 0x8, addend: 0x0, symName: __ZNSt3__14listINS0_I11TransactionNS_9allocatorIS1_EEEENS2_IS4_EEEC2B8ue170006Ev, symObjAddr: 0x334D8, symBinAddr: 0x1000342C8, symSize: 0x2C }
  - { offsetInCU: 0x4F584, offset: 0x4F584, size: 0x8, addend: 0x0, symName: __ZNSt3__110__list_impINS_4listI11TransactionNS_9allocatorIS2_EEEENS3_IS5_EEEC2Ev, symObjAddr: 0x33504, symBinAddr: 0x1000342F4, symSize: 0x50 }
  - { offsetInCU: 0x4F5B0, offset: 0x4F5B0, size: 0x8, addend: 0x0, symName: __ZNSt3__116__list_node_baseINS_4listI11TransactionNS_9allocatorIS2_EEEEPvEC1B8ue170006Ev, symObjAddr: 0x33554, symBinAddr: 0x100034344, symSize: 0x2C }
  - { offsetInCU: 0x4F5DA, offset: 0x4F5DA, size: 0x8, addend: 0x0, symName: __ZNSt3__117__compressed_pairImNS_9allocatorINS_11__list_nodeINS_4listI11TransactionNS1_IS4_EEEEPvEEEEEC1B8ue170006IiNS_18__default_init_tagEEEOT_OT0_, symObjAddr: 0x33580, symBinAddr: 0x100034370, symSize: 0x3C }
  - { offsetInCU: 0x4F632, offset: 0x4F632, size: 0x8, addend: 0x0, symName: __ZNSt3__116__list_node_baseINS_4listI11TransactionNS_9allocatorIS2_EEEEPvEC2B8ue170006Ev, symObjAddr: 0x335BC, symBinAddr: 0x1000343AC, symSize: 0x4C }
  - { offsetInCU: 0x4F65C, offset: 0x4F65C, size: 0x8, addend: 0x0, symName: __ZNSt3__117__compressed_pairImNS_9allocatorINS_11__list_nodeINS_4listI11TransactionNS1_IS4_EEEEPvEEEEEC2B8ue170006IiNS_18__default_init_tagEEEOT_OT0_, symObjAddr: 0x33608, symBinAddr: 0x1000343F8, symSize: 0x40 }
  - { offsetInCU: 0x4F6B4, offset: 0x4F6B4, size: 0x8, addend: 0x0, symName: __ZNSt3__122__compressed_pair_elemINS_9allocatorINS_11__list_nodeINS_4listI11TransactionNS1_IS4_EEEEPvEEEELi1ELb1EEC2B8ue170006ENS_18__default_init_tagE, symObjAddr: 0x33648, symBinAddr: 0x100034438, symSize: 0x2C }
  - { offsetInCU: 0x4F6E9, offset: 0x4F6E9, size: 0x8, addend: 0x0, symName: __ZNSt3__19allocatorINS_11__list_nodeINS_4listI11TransactionNS0_IS3_EEEEPvEEEC2B8ue170006Ev, symObjAddr: 0x33674, symBinAddr: 0x100034464, symSize: 0x2C }
  - { offsetInCU: 0x4F713, offset: 0x4F713, size: 0x8, addend: 0x0, symName: __ZNSt3__116__non_trivial_ifILb1ENS_9allocatorINS_11__list_nodeINS_4listI11TransactionNS1_IS4_EEEEPvEEEEEC2B8ue170006Ev, symObjAddr: 0x336A0, symBinAddr: 0x100034490, symSize: 0x14 }
  - { offsetInCU: 0x4F73D, offset: 0x4F73D, size: 0x8, addend: 0x0, symName: __ZNSt3__14listI11TransactionNS_9allocatorIS1_EEEC2B8ue170006Ev, symObjAddr: 0x336B4, symBinAddr: 0x1000344A4, symSize: 0x2C }
  - { offsetInCU: 0x4F767, offset: 0x4F767, size: 0x8, addend: 0x0, symName: __ZNSt3__110__list_impI11TransactionNS_9allocatorIS1_EEEC2Ev, symObjAddr: 0x336E0, symBinAddr: 0x1000344D0, symSize: 0x50 }
  - { offsetInCU: 0x4F793, offset: 0x4F793, size: 0x8, addend: 0x0, symName: __ZNSt3__116__list_node_baseI11TransactionPvEC1B8ue170006Ev, symObjAddr: 0x33730, symBinAddr: 0x100034520, symSize: 0x2C }
  - { offsetInCU: 0x4F7BD, offset: 0x4F7BD, size: 0x8, addend: 0x0, symName: __ZNSt3__117__compressed_pairImNS_9allocatorINS_11__list_nodeI11TransactionPvEEEEEC1B8ue170006IiNS_18__default_init_tagEEEOT_OT0_, symObjAddr: 0x3375C, symBinAddr: 0x10003454C, symSize: 0x3C }
  - { offsetInCU: 0x4F815, offset: 0x4F815, size: 0x8, addend: 0x0, symName: __ZNSt3__116__list_node_baseI11TransactionPvEC2B8ue170006Ev, symObjAddr: 0x33798, symBinAddr: 0x100034588, symSize: 0x4C }
  - { offsetInCU: 0x4F83F, offset: 0x4F83F, size: 0x8, addend: 0x0, symName: __ZNSt3__117__compressed_pairImNS_9allocatorINS_11__list_nodeI11TransactionPvEEEEEC2B8ue170006IiNS_18__default_init_tagEEEOT_OT0_, symObjAddr: 0x337E4, symBinAddr: 0x1000345D4, symSize: 0x40 }
  - { offsetInCU: 0x4F897, offset: 0x4F897, size: 0x8, addend: 0x0, symName: __ZNSt3__122__compressed_pair_elemINS_9allocatorINS_11__list_nodeI11TransactionPvEEEELi1ELb1EEC2B8ue170006ENS_18__default_init_tagE, symObjAddr: 0x33824, symBinAddr: 0x100034614, symSize: 0x2C }
  - { offsetInCU: 0x4F8CC, offset: 0x4F8CC, size: 0x8, addend: 0x0, symName: __ZNSt3__19allocatorINS_11__list_nodeI11TransactionPvEEEC2B8ue170006Ev, symObjAddr: 0x33850, symBinAddr: 0x100034640, symSize: 0x2C }
  - { offsetInCU: 0x4F8F6, offset: 0x4F8F6, size: 0x8, addend: 0x0, symName: __ZNSt3__116__non_trivial_ifILb1ENS_9allocatorINS_11__list_nodeI11TransactionPvEEEEEC2B8ue170006Ev, symObjAddr: 0x3387C, symBinAddr: 0x10003466C, symSize: 0x14 }
  - { offsetInCU: 0x4F920, offset: 0x4F920, size: 0x8, addend: 0x0, symName: __ZNSt3__110__list_impI11TransactionNS_9allocatorIS1_EEE5beginB8ue170006Ev, symObjAddr: 0x33890, symBinAddr: 0x100034680, symSize: 0x30 }
  - { offsetInCU: 0x4F946, offset: 0x4F946, size: 0x8, addend: 0x0, symName: __ZNSt3__115__list_iteratorI11TransactionPvEC1B8ue170006EPNS_16__list_node_baseIS1_S2_EE, symObjAddr: 0x338C0, symBinAddr: 0x1000346B0, symSize: 0x34 }
  - { offsetInCU: 0x4F97F, offset: 0x4F97F, size: 0x8, addend: 0x0, symName: __ZNSt3__115__list_iteratorI11TransactionPvEC2B8ue170006EPNS_16__list_node_baseIS1_S2_EE, symObjAddr: 0x338F4, symBinAddr: 0x1000346E4, symSize: 0x20 }
  - { offsetInCU: 0x4F9B8, offset: 0x4F9B8, size: 0x8, addend: 0x0, symName: __ZNSt3__110__list_impI11TransactionNS_9allocatorIS1_EEE3endB8ue170006Ev, symObjAddr: 0x33914, symBinAddr: 0x100034704, symSize: 0x34 }
  - { offsetInCU: 0x4F9DE, offset: 0x4F9DE, size: 0x8, addend: 0x0, symName: __ZNSt3__14listI11TransactionNS_9allocatorIS1_EEE15__allocate_nodeB8ue170006ERNS2_INS_11__list_nodeIS1_PvEEEE, symObjAddr: 0x33948, symBinAddr: 0x100034738, symSize: 0x70 }
  - { offsetInCU: 0x4FA22, offset: 0x4FA22, size: 0x8, addend: 0x0, symName: __ZNSt3__116allocator_traitsINS_9allocatorINS_11__list_nodeI11TransactionPvEEEEE9constructB8ue170006IS3_JRKS3_EvvEEvRS6_PT_DpOT0_, symObjAddr: 0x339B8, symBinAddr: 0x1000347A8, symSize: 0x30 }
  - { offsetInCU: 0x4FA77, offset: 0x4FA77, size: 0x8, addend: 0x0, symName: __ZNKSt3__110unique_ptrINS_11__list_nodeI11TransactionPvEENS_22__allocator_destructorINS_9allocatorIS4_EEEEEptB8ue170006Ev, symObjAddr: 0x339E8, symBinAddr: 0x1000347D8, symSize: 0x28 }
  - { offsetInCU: 0x4FA9D, offset: 0x4FA9D, size: 0x8, addend: 0x0, symName: __ZNSt3__14listI11TransactionNS_9allocatorIS1_EEE20__link_nodes_at_backEPNS_16__list_node_baseIS1_PvEES8_, symObjAddr: 0x33A10, symBinAddr: 0x100034800, symSize: 0x60 }
  - { offsetInCU: 0x4FAE3, offset: 0x4FAE3, size: 0x8, addend: 0x0, symName: __ZNKSt3__110unique_ptrINS_11__list_nodeI11TransactionPvEENS_22__allocator_destructorINS_9allocatorIS4_EEEEE3getB8ue170006Ev, symObjAddr: 0x33A70, symBinAddr: 0x100034860, symSize: 0x28 }
  - { offsetInCU: 0x4FB09, offset: 0x4FB09, size: 0x8, addend: 0x0, symName: __ZNSt3__111__list_nodeI11TransactionPvE9__as_linkB8ue170006Ev, symObjAddr: 0x33A98, symBinAddr: 0x100034888, symSize: 0x24 }
  - { offsetInCU: 0x4FB2F, offset: 0x4FB2F, size: 0x8, addend: 0x0, symName: __ZNSt3__110unique_ptrINS_11__list_nodeI11TransactionPvEENS_22__allocator_destructorINS_9allocatorIS4_EEEEE7releaseB8ue170006Ev, symObjAddr: 0x33ABC, symBinAddr: 0x1000348AC, symSize: 0x44 }
  - { offsetInCU: 0x4FB64, offset: 0x4FB64, size: 0x8, addend: 0x0, symName: __ZNSt3__110unique_ptrINS_11__list_nodeI11TransactionPvEENS_22__allocator_destructorINS_9allocatorIS4_EEEEED1B8ue170006Ev, symObjAddr: 0x33B00, symBinAddr: 0x1000348F0, symSize: 0x2C }
  - { offsetInCU: 0x4FB8E, offset: 0x4FB8E, size: 0x8, addend: 0x0, symName: __ZNSt3__116allocator_traitsINS_9allocatorINS_11__list_nodeI11TransactionPvEEEEE8allocateB8ue170006ERS6_m, symObjAddr: 0x33B2C, symBinAddr: 0x10003491C, symSize: 0x2C }
  - { offsetInCU: 0x4FBC1, offset: 0x4FBC1, size: 0x8, addend: 0x0, symName: __ZNSt3__122__allocator_destructorINS_9allocatorINS_11__list_nodeI11TransactionPvEEEEEC1B8ue170006ERS6_m, symObjAddr: 0x33B58, symBinAddr: 0x100034948, symSize: 0x3C }
  - { offsetInCU: 0x4FC0D, offset: 0x4FC0D, size: 0x8, addend: 0x0, symName: __ZNSt3__110unique_ptrINS_11__list_nodeI11TransactionPvEENS_22__allocator_destructorINS_9allocatorIS4_EEEEEC1B8ue170006ILb1EvEEPS4_NS_16__dependent_typeINS_27__unique_ptr_deleter_sfinaeIS8_EEXT_EE20__good_rval_ref_typeE, symObjAddr: 0x33B94, symBinAddr: 0x100034984, symSize: 0x3C }
  - { offsetInCU: 0x4FC5E, offset: 0x4FC5E, size: 0x8, addend: 0x0, symName: __ZNSt3__19allocatorINS_11__list_nodeI11TransactionPvEEE8allocateB8ue170006Em, symObjAddr: 0x33BD0, symBinAddr: 0x1000349C0, symSize: 0x5C }
  - { offsetInCU: 0x4FC9D, offset: 0x4FC9D, size: 0x8, addend: 0x0, symName: __ZNSt3__116allocator_traitsINS_9allocatorINS_11__list_nodeI11TransactionPvEEEEE8max_sizeB8ue170006IS6_vvEEmRKS6_, symObjAddr: 0x33C2C, symBinAddr: 0x100034A1C, symSize: 0x28 }
  - { offsetInCU: 0x4FCC9, offset: 0x4FCC9, size: 0x8, addend: 0x0, symName: __ZNSt3__122__allocator_destructorINS_9allocatorINS_11__list_nodeI11TransactionPvEEEEEC2B8ue170006ERS6_m, symObjAddr: 0x33C54, symBinAddr: 0x100034A44, symSize: 0x2C }
  - { offsetInCU: 0x4FD0F, offset: 0x4FD0F, size: 0x8, addend: 0x0, symName: __ZNSt3__110unique_ptrINS_11__list_nodeI11TransactionPvEENS_22__allocator_destructorINS_9allocatorIS4_EEEEEC2B8ue170006ILb1EvEEPS4_NS_16__dependent_typeINS_27__unique_ptr_deleter_sfinaeIS8_EEXT_EE20__good_rval_ref_typeE, symObjAddr: 0x33C80, symBinAddr: 0x100034A70, symSize: 0x48 }
  - { offsetInCU: 0x4FD60, offset: 0x4FD60, size: 0x8, addend: 0x0, symName: __ZNSt3__117__compressed_pairIPNS_11__list_nodeI11TransactionPvEENS_22__allocator_destructorINS_9allocatorIS4_EEEEEC1B8ue170006IRS5_S9_EEOT_OT0_, symObjAddr: 0x33CC8, symBinAddr: 0x100034AB8, symSize: 0x3C }
  - { offsetInCU: 0x4FDB8, offset: 0x4FDB8, size: 0x8, addend: 0x0, symName: __ZNSt3__117__compressed_pairIPNS_11__list_nodeI11TransactionPvEENS_22__allocator_destructorINS_9allocatorIS4_EEEEEC2B8ue170006IRS5_S9_EEOT_OT0_, symObjAddr: 0x33D04, symBinAddr: 0x100034AF4, symSize: 0x48 }
  - { offsetInCU: 0x4FE10, offset: 0x4FE10, size: 0x8, addend: 0x0, symName: __ZNSt3__122__compressed_pair_elemIPNS_11__list_nodeI11TransactionPvEELi0ELb0EEC2B8ue170006IRS5_vEEOT_, symObjAddr: 0x33D4C, symBinAddr: 0x100034B3C, symSize: 0x24 }
  - { offsetInCU: 0x4FE52, offset: 0x4FE52, size: 0x8, addend: 0x0, symName: __ZNSt3__122__compressed_pair_elemINS_22__allocator_destructorINS_9allocatorINS_11__list_nodeI11TransactionPvEEEEEELi1ELb0EEC2B8ue170006IS8_vEEOT_, symObjAddr: 0x33D70, symBinAddr: 0x100034B60, symSize: 0x24 }
  - { offsetInCU: 0x4FE9A, offset: 0x4FE9A, size: 0x8, addend: 0x0, symName: __ZNKSt3__117__compressed_pairIPNS_11__list_nodeI11TransactionPvEENS_22__allocator_destructorINS_9allocatorIS4_EEEEE5firstB8ue170006Ev, symObjAddr: 0x33DD0, symBinAddr: 0x100034BC0, symSize: 0x24 }
  - { offsetInCU: 0x4FEC0, offset: 0x4FEC0, size: 0x8, addend: 0x0, symName: __ZNKSt3__122__compressed_pair_elemIPNS_11__list_nodeI11TransactionPvEELi0ELb0EE5__getB8ue170006Ev, symObjAddr: 0x33DF4, symBinAddr: 0x100034BE4, symSize: 0x14 }
  - { offsetInCU: 0x4FEE6, offset: 0x4FEE6, size: 0x8, addend: 0x0, symName: __ZNSt3__117__compressed_pairIPNS_11__list_nodeI11TransactionPvEENS_22__allocator_destructorINS_9allocatorIS4_EEEEE5firstB8ue170006Ev, symObjAddr: 0x33E08, symBinAddr: 0x100034BF8, symSize: 0x24 }
  - { offsetInCU: 0x4FF0C, offset: 0x4FF0C, size: 0x8, addend: 0x0, symName: __ZNSt3__122__compressed_pair_elemIPNS_11__list_nodeI11TransactionPvEELi0ELb0EE5__getB8ue170006Ev, symObjAddr: 0x33E2C, symBinAddr: 0x100034C1C, symSize: 0x14 }
  - { offsetInCU: 0x4FF32, offset: 0x4FF32, size: 0x8, addend: 0x0, symName: __ZNSt3__110unique_ptrINS_11__list_nodeI11TransactionPvEENS_22__allocator_destructorINS_9allocatorIS4_EEEEED2B8ue170006Ev, symObjAddr: 0x33E40, symBinAddr: 0x100034C30, symSize: 0x30 }
  - { offsetInCU: 0x4FF5C, offset: 0x4FF5C, size: 0x8, addend: 0x0, symName: __ZNSt3__110unique_ptrINS_11__list_nodeI11TransactionPvEENS_22__allocator_destructorINS_9allocatorIS4_EEEEE5resetB8ue170006EPS4_, symObjAddr: 0x33E70, symBinAddr: 0x100034C60, symSize: 0x78 }
  - { offsetInCU: 0x4FFA0, offset: 0x4FFA0, size: 0x8, addend: 0x0, symName: __ZNSt3__117__compressed_pairIPNS_11__list_nodeI11TransactionPvEENS_22__allocator_destructorINS_9allocatorIS4_EEEEE6secondB8ue170006Ev, symObjAddr: 0x33EE8, symBinAddr: 0x100034CD8, symSize: 0x28 }
  - { offsetInCU: 0x4FFC6, offset: 0x4FFC6, size: 0x8, addend: 0x0, symName: __ZNSt3__122__allocator_destructorINS_9allocatorINS_11__list_nodeI11TransactionPvEEEEEclB8ue170006EPS5_, symObjAddr: 0x33F10, symBinAddr: 0x100034D00, symSize: 0x34 }
  - { offsetInCU: 0x4FFFA, offset: 0x4FFFA, size: 0x8, addend: 0x0, symName: __ZNSt3__122__compressed_pair_elemINS_22__allocator_destructorINS_9allocatorINS_11__list_nodeI11TransactionPvEEEEEELi1ELb0EE5__getB8ue170006Ev, symObjAddr: 0x33F44, symBinAddr: 0x100034D34, symSize: 0x14 }
  - { offsetInCU: 0x50020, offset: 0x50020, size: 0x8, addend: 0x0, symName: __ZNSt3__14listINS0_I11TransactionNS_9allocatorIS1_EEEENS2_IS4_EEE15__allocate_nodeB8ue170006ERNS2_INS_11__list_nodeIS4_PvEEEE, symObjAddr: 0x33F58, symBinAddr: 0x100034D48, symSize: 0x70 }
  - { offsetInCU: 0x50064, offset: 0x50064, size: 0x8, addend: 0x0, symName: __ZNSt3__116allocator_traitsINS_9allocatorINS_11__list_nodeINS_4listI11TransactionNS1_IS4_EEEEPvEEEEE9constructB8ue170006IS6_JRKS6_EvvEEvRS9_PT_DpOT0_, symObjAddr: 0x33FC8, symBinAddr: 0x100034DB8, symSize: 0x30 }
  - { offsetInCU: 0x500B9, offset: 0x500B9, size: 0x8, addend: 0x0, symName: __ZNKSt3__110unique_ptrINS_11__list_nodeINS_4listI11TransactionNS_9allocatorIS3_EEEEPvEENS_22__allocator_destructorINS4_IS8_EEEEEptB8ue170006Ev, symObjAddr: 0x33FF8, symBinAddr: 0x100034DE8, symSize: 0x28 }
  - { offsetInCU: 0x500DF, offset: 0x500DF, size: 0x8, addend: 0x0, symName: __ZNSt3__14listINS0_I11TransactionNS_9allocatorIS1_EEEENS2_IS4_EEE20__link_nodes_at_backEPNS_16__list_node_baseIS4_PvEESA_, symObjAddr: 0x34020, symBinAddr: 0x100034E10, symSize: 0x60 }
  - { offsetInCU: 0x50125, offset: 0x50125, size: 0x8, addend: 0x0, symName: __ZNKSt3__110unique_ptrINS_11__list_nodeINS_4listI11TransactionNS_9allocatorIS3_EEEEPvEENS_22__allocator_destructorINS4_IS8_EEEEE3getB8ue170006Ev, symObjAddr: 0x34080, symBinAddr: 0x100034E70, symSize: 0x28 }
  - { offsetInCU: 0x5014B, offset: 0x5014B, size: 0x8, addend: 0x0, symName: __ZNSt3__111__list_nodeINS_4listI11TransactionNS_9allocatorIS2_EEEEPvE9__as_linkB8ue170006Ev, symObjAddr: 0x340A8, symBinAddr: 0x100034E98, symSize: 0x24 }
  - { offsetInCU: 0x50171, offset: 0x50171, size: 0x8, addend: 0x0, symName: __ZNSt3__110unique_ptrINS_11__list_nodeINS_4listI11TransactionNS_9allocatorIS3_EEEEPvEENS_22__allocator_destructorINS4_IS8_EEEEE7releaseB8ue170006Ev, symObjAddr: 0x340CC, symBinAddr: 0x100034EBC, symSize: 0x44 }
  - { offsetInCU: 0x501A6, offset: 0x501A6, size: 0x8, addend: 0x0, symName: __ZNSt3__110unique_ptrINS_11__list_nodeINS_4listI11TransactionNS_9allocatorIS3_EEEEPvEENS_22__allocator_destructorINS4_IS8_EEEEED1B8ue170006Ev, symObjAddr: 0x34110, symBinAddr: 0x100034F00, symSize: 0x2C }
  - { offsetInCU: 0x501D0, offset: 0x501D0, size: 0x8, addend: 0x0, symName: __ZNSt3__116allocator_traitsINS_9allocatorINS_11__list_nodeINS_4listI11TransactionNS1_IS4_EEEEPvEEEEE8allocateB8ue170006ERS9_m, symObjAddr: 0x3413C, symBinAddr: 0x100034F2C, symSize: 0x2C }
  - { offsetInCU: 0x50203, offset: 0x50203, size: 0x8, addend: 0x0, symName: __ZNSt3__122__allocator_destructorINS_9allocatorINS_11__list_nodeINS_4listI11TransactionNS1_IS4_EEEEPvEEEEEC1B8ue170006ERS9_m, symObjAddr: 0x34168, symBinAddr: 0x100034F58, symSize: 0x3C }
  - { offsetInCU: 0x5024F, offset: 0x5024F, size: 0x8, addend: 0x0, symName: __ZNSt3__110unique_ptrINS_11__list_nodeINS_4listI11TransactionNS_9allocatorIS3_EEEEPvEENS_22__allocator_destructorINS4_IS8_EEEEEC1B8ue170006ILb1EvEEPS8_NS_16__dependent_typeINS_27__unique_ptr_deleter_sfinaeISB_EEXT_EE20__good_rval_ref_typeE, symObjAddr: 0x341A4, symBinAddr: 0x100034F94, symSize: 0x3C }
  - { offsetInCU: 0x502A0, offset: 0x502A0, size: 0x8, addend: 0x0, symName: __ZNSt3__19allocatorINS_11__list_nodeINS_4listI11TransactionNS0_IS3_EEEEPvEEE8allocateB8ue170006Em, symObjAddr: 0x341E0, symBinAddr: 0x100034FD0, symSize: 0x5C }
  - { offsetInCU: 0x502DF, offset: 0x502DF, size: 0x8, addend: 0x0, symName: __ZNSt3__116allocator_traitsINS_9allocatorINS_11__list_nodeINS_4listI11TransactionNS1_IS4_EEEEPvEEEEE8max_sizeB8ue170006IS9_vvEEmRKS9_, symObjAddr: 0x3423C, symBinAddr: 0x10003502C, symSize: 0x28 }
  - { offsetInCU: 0x5030B, offset: 0x5030B, size: 0x8, addend: 0x0, symName: __ZNSt3__122__allocator_destructorINS_9allocatorINS_11__list_nodeINS_4listI11TransactionNS1_IS4_EEEEPvEEEEEC2B8ue170006ERS9_m, symObjAddr: 0x34264, symBinAddr: 0x100035054, symSize: 0x2C }
  - { offsetInCU: 0x50351, offset: 0x50351, size: 0x8, addend: 0x0, symName: __ZNSt3__110unique_ptrINS_11__list_nodeINS_4listI11TransactionNS_9allocatorIS3_EEEEPvEENS_22__allocator_destructorINS4_IS8_EEEEEC2B8ue170006ILb1EvEEPS8_NS_16__dependent_typeINS_27__unique_ptr_deleter_sfinaeISB_EEXT_EE20__good_rval_ref_typeE, symObjAddr: 0x34290, symBinAddr: 0x100035080, symSize: 0x48 }
  - { offsetInCU: 0x503A2, offset: 0x503A2, size: 0x8, addend: 0x0, symName: __ZNSt3__117__compressed_pairIPNS_11__list_nodeINS_4listI11TransactionNS_9allocatorIS3_EEEEPvEENS_22__allocator_destructorINS4_IS8_EEEEEC1B8ue170006IRS9_SC_EEOT_OT0_, symObjAddr: 0x342D8, symBinAddr: 0x1000350C8, symSize: 0x3C }
  - { offsetInCU: 0x503FA, offset: 0x503FA, size: 0x8, addend: 0x0, symName: __ZNSt3__117__compressed_pairIPNS_11__list_nodeINS_4listI11TransactionNS_9allocatorIS3_EEEEPvEENS_22__allocator_destructorINS4_IS8_EEEEEC2B8ue170006IRS9_SC_EEOT_OT0_, symObjAddr: 0x34314, symBinAddr: 0x100035104, symSize: 0x48 }
  - { offsetInCU: 0x50452, offset: 0x50452, size: 0x8, addend: 0x0, symName: __ZNSt3__122__compressed_pair_elemIPNS_11__list_nodeINS_4listI11TransactionNS_9allocatorIS3_EEEEPvEELi0ELb0EEC2B8ue170006IRS9_vEEOT_, symObjAddr: 0x3435C, symBinAddr: 0x10003514C, symSize: 0x24 }
  - { offsetInCU: 0x50494, offset: 0x50494, size: 0x8, addend: 0x0, symName: __ZNSt3__122__compressed_pair_elemINS_22__allocator_destructorINS_9allocatorINS_11__list_nodeINS_4listI11TransactionNS2_IS5_EEEEPvEEEEEELi1ELb0EEC2B8ue170006ISB_vEEOT_, symObjAddr: 0x34380, symBinAddr: 0x100035170, symSize: 0x24 }
  - { offsetInCU: 0x504D6, offset: 0x504D6, size: 0x8, addend: 0x0, symName: __ZNKSt3__117__compressed_pairIPNS_11__list_nodeINS_4listI11TransactionNS_9allocatorIS3_EEEEPvEENS_22__allocator_destructorINS4_IS8_EEEEE5firstB8ue170006Ev, symObjAddr: 0x343E0, symBinAddr: 0x1000351D0, symSize: 0x24 }
  - { offsetInCU: 0x504FC, offset: 0x504FC, size: 0x8, addend: 0x0, symName: __ZNKSt3__122__compressed_pair_elemIPNS_11__list_nodeINS_4listI11TransactionNS_9allocatorIS3_EEEEPvEELi0ELb0EE5__getB8ue170006Ev, symObjAddr: 0x34404, symBinAddr: 0x1000351F4, symSize: 0x14 }
  - { offsetInCU: 0x50522, offset: 0x50522, size: 0x8, addend: 0x0, symName: __ZNSt3__117__compressed_pairIPNS_11__list_nodeINS_4listI11TransactionNS_9allocatorIS3_EEEEPvEENS_22__allocator_destructorINS4_IS8_EEEEE5firstB8ue170006Ev, symObjAddr: 0x34418, symBinAddr: 0x100035208, symSize: 0x24 }
  - { offsetInCU: 0x50548, offset: 0x50548, size: 0x8, addend: 0x0, symName: __ZNSt3__122__compressed_pair_elemIPNS_11__list_nodeINS_4listI11TransactionNS_9allocatorIS3_EEEEPvEELi0ELb0EE5__getB8ue170006Ev, symObjAddr: 0x3443C, symBinAddr: 0x10003522C, symSize: 0x14 }
  - { offsetInCU: 0x5056E, offset: 0x5056E, size: 0x8, addend: 0x0, symName: __ZNSt3__110unique_ptrINS_11__list_nodeINS_4listI11TransactionNS_9allocatorIS3_EEEEPvEENS_22__allocator_destructorINS4_IS8_EEEEED2B8ue170006Ev, symObjAddr: 0x34450, symBinAddr: 0x100035240, symSize: 0x30 }
  - { offsetInCU: 0x50598, offset: 0x50598, size: 0x8, addend: 0x0, symName: __ZNSt3__110unique_ptrINS_11__list_nodeINS_4listI11TransactionNS_9allocatorIS3_EEEEPvEENS_22__allocator_destructorINS4_IS8_EEEEE5resetB8ue170006EPS8_, symObjAddr: 0x34480, symBinAddr: 0x100035270, symSize: 0x78 }
  - { offsetInCU: 0x505DC, offset: 0x505DC, size: 0x8, addend: 0x0, symName: __ZNSt3__117__compressed_pairIPNS_11__list_nodeINS_4listI11TransactionNS_9allocatorIS3_EEEEPvEENS_22__allocator_destructorINS4_IS8_EEEEE6secondB8ue170006Ev, symObjAddr: 0x344F8, symBinAddr: 0x1000352E8, symSize: 0x28 }
  - { offsetInCU: 0x50602, offset: 0x50602, size: 0x8, addend: 0x0, symName: __ZNSt3__122__allocator_destructorINS_9allocatorINS_11__list_nodeINS_4listI11TransactionNS1_IS4_EEEEPvEEEEEclB8ue170006EPS8_, symObjAddr: 0x34520, symBinAddr: 0x100035310, symSize: 0x34 }
  - { offsetInCU: 0x50636, offset: 0x50636, size: 0x8, addend: 0x0, symName: __ZNSt3__122__compressed_pair_elemINS_22__allocator_destructorINS_9allocatorINS_11__list_nodeINS_4listI11TransactionNS2_IS5_EEEEPvEEEEEELi1ELb0EE5__getB8ue170006Ev, symObjAddr: 0x34554, symBinAddr: 0x100035344, symSize: 0x14 }
  - { offsetInCU: 0x5065C, offset: 0x5065C, size: 0x8, addend: 0x0, symName: __ZNSt3__110__list_impINS_4listI11TransactionNS_9allocatorIS2_EEEENS3_IS5_EEE5beginB8ue170006Ev, symObjAddr: 0x34568, symBinAddr: 0x100035358, symSize: 0x30 }
  - { offsetInCU: 0x50682, offset: 0x50682, size: 0x8, addend: 0x0, symName: __ZNSt3__114pointer_traitsIPNS_4listI11TransactionNS_9allocatorIS2_EEEEE10pointer_toB8ue170006ERS5_, symObjAddr: 0x34598, symBinAddr: 0x100035388, symSize: 0x14 }
  - { offsetInCU: 0x506A5, offset: 0x506A5, size: 0x8, addend: 0x0, symName: __ZNSt3__121__list_const_iteratorI11TransactionPvEC2B8ue170006ERKNS_15__list_iteratorIS1_S2_EE, symObjAddr: 0x345AC, symBinAddr: 0x10003539C, symSize: 0x24 }
  - { offsetInCU: 0x506DE, offset: 0x506DE, size: 0x8, addend: 0x0, symName: __ZNSt3__115__list_iteratorINS_12basic_stringIcNS_11char_traitsIcEENS_9allocatorIcEEEEPvEppB8ue170006Ev, symObjAddr: 0x34600, symBinAddr: 0x1000353F0, symSize: 0x20 }
  - { offsetInCU: 0x50704, offset: 0x50704, size: 0x8, addend: 0x0, symName: __ZNSt3__114pointer_traitsIP11TransactionE10pointer_toB8ue170006ERS1_, symObjAddr: 0x34620, symBinAddr: 0x100035410, symSize: 0x14 }
  - { offsetInCU: 0x50727, offset: 0x50727, size: 0x8, addend: 0x0, symName: __ZNSt3__14listINS_12basic_stringIcNS_11char_traitsIcEENS_9allocatorIcEEEENS4_IS6_EEEC2B8ue170006Ev, symObjAddr: 0x34634, symBinAddr: 0x100035424, symSize: 0x2C }
  - { offsetInCU: 0x50751, offset: 0x50751, size: 0x8, addend: 0x0, symName: __ZNSt3__110__list_impINS_12basic_stringIcNS_11char_traitsIcEENS_9allocatorIcEEEENS4_IS6_EEEC2Ev, symObjAddr: 0x34660, symBinAddr: 0x100035450, symSize: 0x50 }
  - { offsetInCU: 0x5077D, offset: 0x5077D, size: 0x8, addend: 0x0, symName: __ZNSt3__116__list_node_baseINS_12basic_stringIcNS_11char_traitsIcEENS_9allocatorIcEEEEPvEC1B8ue170006Ev, symObjAddr: 0x346B0, symBinAddr: 0x1000354A0, symSize: 0x2C }
  - { offsetInCU: 0x507A7, offset: 0x507A7, size: 0x8, addend: 0x0, symName: __ZNSt3__117__compressed_pairImNS_9allocatorINS_11__list_nodeINS_12basic_stringIcNS_11char_traitsIcEENS1_IcEEEEPvEEEEEC1B8ue170006IiNS_18__default_init_tagEEEOT_OT0_, symObjAddr: 0x346DC, symBinAddr: 0x1000354CC, symSize: 0x3C }
  - { offsetInCU: 0x507FF, offset: 0x507FF, size: 0x8, addend: 0x0, symName: __ZNSt3__116__list_node_baseINS_12basic_stringIcNS_11char_traitsIcEENS_9allocatorIcEEEEPvEC2B8ue170006Ev, symObjAddr: 0x34718, symBinAddr: 0x100035508, symSize: 0x4C }
  - { offsetInCU: 0x50829, offset: 0x50829, size: 0x8, addend: 0x0, symName: __ZNSt3__117__compressed_pairImNS_9allocatorINS_11__list_nodeINS_12basic_stringIcNS_11char_traitsIcEENS1_IcEEEEPvEEEEEC2B8ue170006IiNS_18__default_init_tagEEEOT_OT0_, symObjAddr: 0x34764, symBinAddr: 0x100035554, symSize: 0x40 }
  - { offsetInCU: 0x50881, offset: 0x50881, size: 0x8, addend: 0x0, symName: __ZNSt3__122__compressed_pair_elemINS_9allocatorINS_11__list_nodeINS_12basic_stringIcNS_11char_traitsIcEENS1_IcEEEEPvEEEELi1ELb1EEC2B8ue170006ENS_18__default_init_tagE, symObjAddr: 0x347A4, symBinAddr: 0x100035594, symSize: 0x2C }
  - { offsetInCU: 0x508B6, offset: 0x508B6, size: 0x8, addend: 0x0, symName: __ZNSt3__19allocatorINS_11__list_nodeINS_12basic_stringIcNS_11char_traitsIcEENS0_IcEEEEPvEEEC2B8ue170006Ev, symObjAddr: 0x347D0, symBinAddr: 0x1000355C0, symSize: 0x2C }
  - { offsetInCU: 0x508E0, offset: 0x508E0, size: 0x8, addend: 0x0, symName: __ZNSt3__116__non_trivial_ifILb1ENS_9allocatorINS_11__list_nodeINS_12basic_stringIcNS_11char_traitsIcEENS1_IcEEEEPvEEEEEC2B8ue170006Ev, symObjAddr: 0x347FC, symBinAddr: 0x1000355EC, symSize: 0x14 }
  - { offsetInCU: 0x5090A, offset: 0x5090A, size: 0x8, addend: 0x0, symName: __ZNSt3__14listINS_12basic_stringIcNS_11char_traitsIcEENS_9allocatorIcEEEENS4_IS6_EEE15__allocate_nodeB8ue170006ERNS4_INS_11__list_nodeIS6_PvEEEE, symObjAddr: 0x34810, symBinAddr: 0x100035600, symSize: 0x70 }
  - { offsetInCU: 0x5094E, offset: 0x5094E, size: 0x8, addend: 0x0, symName: __ZNSt3__116allocator_traitsINS_9allocatorINS_11__list_nodeINS_12basic_stringIcNS_11char_traitsIcEENS1_IcEEEEPvEEEEE9constructB8ue170006IS7_JRKS7_EvvEEvRSA_PT_DpOT0_, symObjAddr: 0x34880, symBinAddr: 0x100035670, symSize: 0x30 }
  - { offsetInCU: 0x509A3, offset: 0x509A3, size: 0x8, addend: 0x0, symName: __ZNKSt3__110unique_ptrINS_11__list_nodeINS_12basic_stringIcNS_11char_traitsIcEENS_9allocatorIcEEEEPvEENS_22__allocator_destructorINS5_IS9_EEEEEptB8ue170006Ev, symObjAddr: 0x348B0, symBinAddr: 0x1000356A0, symSize: 0x28 }
  - { offsetInCU: 0x509C9, offset: 0x509C9, size: 0x8, addend: 0x0, symName: __ZNSt3__14listINS_12basic_stringIcNS_11char_traitsIcEENS_9allocatorIcEEEENS4_IS6_EEE20__link_nodes_at_backEPNS_16__list_node_baseIS6_PvEESC_, symObjAddr: 0x348D8, symBinAddr: 0x1000356C8, symSize: 0x60 }
  - { offsetInCU: 0x50A0F, offset: 0x50A0F, size: 0x8, addend: 0x0, symName: __ZNKSt3__110unique_ptrINS_11__list_nodeINS_12basic_stringIcNS_11char_traitsIcEENS_9allocatorIcEEEEPvEENS_22__allocator_destructorINS5_IS9_EEEEE3getB8ue170006Ev, symObjAddr: 0x34938, symBinAddr: 0x100035728, symSize: 0x28 }
  - { offsetInCU: 0x50A35, offset: 0x50A35, size: 0x8, addend: 0x0, symName: __ZNSt3__111__list_nodeINS_12basic_stringIcNS_11char_traitsIcEENS_9allocatorIcEEEEPvE9__as_linkB8ue170006Ev, symObjAddr: 0x34960, symBinAddr: 0x100035750, symSize: 0x24 }
  - { offsetInCU: 0x50A5B, offset: 0x50A5B, size: 0x8, addend: 0x0, symName: __ZNSt3__110unique_ptrINS_11__list_nodeINS_12basic_stringIcNS_11char_traitsIcEENS_9allocatorIcEEEEPvEENS_22__allocator_destructorINS5_IS9_EEEEE7releaseB8ue170006Ev, symObjAddr: 0x34984, symBinAddr: 0x100035774, symSize: 0x44 }
  - { offsetInCU: 0x50A90, offset: 0x50A90, size: 0x8, addend: 0x0, symName: __ZNSt3__110unique_ptrINS_11__list_nodeINS_12basic_stringIcNS_11char_traitsIcEENS_9allocatorIcEEEEPvEENS_22__allocator_destructorINS5_IS9_EEEEED1B8ue170006Ev, symObjAddr: 0x349C8, symBinAddr: 0x1000357B8, symSize: 0x2C }
  - { offsetInCU: 0x50ABA, offset: 0x50ABA, size: 0x8, addend: 0x0, symName: __ZNSt3__116allocator_traitsINS_9allocatorINS_11__list_nodeINS_12basic_stringIcNS_11char_traitsIcEENS1_IcEEEEPvEEEEE8allocateB8ue170006ERSA_m, symObjAddr: 0x349F4, symBinAddr: 0x1000357E4, symSize: 0x2C }
  - { offsetInCU: 0x50AED, offset: 0x50AED, size: 0x8, addend: 0x0, symName: __ZNSt3__122__allocator_destructorINS_9allocatorINS_11__list_nodeINS_12basic_stringIcNS_11char_traitsIcEENS1_IcEEEEPvEEEEEC1B8ue170006ERSA_m, symObjAddr: 0x34A20, symBinAddr: 0x100035810, symSize: 0x3C }
  - { offsetInCU: 0x50B39, offset: 0x50B39, size: 0x8, addend: 0x0, symName: __ZNSt3__110unique_ptrINS_11__list_nodeINS_12basic_stringIcNS_11char_traitsIcEENS_9allocatorIcEEEEPvEENS_22__allocator_destructorINS5_IS9_EEEEEC1B8ue170006ILb1EvEEPS9_NS_16__dependent_typeINS_27__unique_ptr_deleter_sfinaeISC_EEXT_EE20__good_rval_ref_typeE, symObjAddr: 0x34A5C, symBinAddr: 0x10003584C, symSize: 0x3C }
  - { offsetInCU: 0x50B8A, offset: 0x50B8A, size: 0x8, addend: 0x0, symName: __ZNSt3__19allocatorINS_11__list_nodeINS_12basic_stringIcNS_11char_traitsIcEENS0_IcEEEEPvEEE8allocateB8ue170006Em, symObjAddr: 0x34A98, symBinAddr: 0x100035888, symSize: 0x5C }
  - { offsetInCU: 0x50BC9, offset: 0x50BC9, size: 0x8, addend: 0x0, symName: __ZNSt3__116allocator_traitsINS_9allocatorINS_11__list_nodeINS_12basic_stringIcNS_11char_traitsIcEENS1_IcEEEEPvEEEEE8max_sizeB8ue170006ISA_vvEEmRKSA_, symObjAddr: 0x34AF4, symBinAddr: 0x1000358E4, symSize: 0x28 }
  - { offsetInCU: 0x50BF5, offset: 0x50BF5, size: 0x8, addend: 0x0, symName: __ZNSt3__122__allocator_destructorINS_9allocatorINS_11__list_nodeINS_12basic_stringIcNS_11char_traitsIcEENS1_IcEEEEPvEEEEEC2B8ue170006ERSA_m, symObjAddr: 0x34B1C, symBinAddr: 0x10003590C, symSize: 0x2C }
  - { offsetInCU: 0x50C3B, offset: 0x50C3B, size: 0x8, addend: 0x0, symName: __ZNSt3__110unique_ptrINS_11__list_nodeINS_12basic_stringIcNS_11char_traitsIcEENS_9allocatorIcEEEEPvEENS_22__allocator_destructorINS5_IS9_EEEEEC2B8ue170006ILb1EvEEPS9_NS_16__dependent_typeINS_27__unique_ptr_deleter_sfinaeISC_EEXT_EE20__good_rval_ref_typeE, symObjAddr: 0x34B48, symBinAddr: 0x100035938, symSize: 0x48 }
  - { offsetInCU: 0x50C8C, offset: 0x50C8C, size: 0x8, addend: 0x0, symName: __ZNSt3__117__compressed_pairIPNS_11__list_nodeINS_12basic_stringIcNS_11char_traitsIcEENS_9allocatorIcEEEEPvEENS_22__allocator_destructorINS5_IS9_EEEEEC1B8ue170006IRSA_SD_EEOT_OT0_, symObjAddr: 0x34B90, symBinAddr: 0x100035980, symSize: 0x3C }
  - { offsetInCU: 0x50CE4, offset: 0x50CE4, size: 0x8, addend: 0x0, symName: __ZNSt3__117__compressed_pairIPNS_11__list_nodeINS_12basic_stringIcNS_11char_traitsIcEENS_9allocatorIcEEEEPvEENS_22__allocator_destructorINS5_IS9_EEEEEC2B8ue170006IRSA_SD_EEOT_OT0_, symObjAddr: 0x34BCC, symBinAddr: 0x1000359BC, symSize: 0x48 }
  - { offsetInCU: 0x50D3C, offset: 0x50D3C, size: 0x8, addend: 0x0, symName: __ZNSt3__122__compressed_pair_elemIPNS_11__list_nodeINS_12basic_stringIcNS_11char_traitsIcEENS_9allocatorIcEEEEPvEELi0ELb0EEC2B8ue170006IRSA_vEEOT_, symObjAddr: 0x34C14, symBinAddr: 0x100035A04, symSize: 0x24 }
  - { offsetInCU: 0x50D7E, offset: 0x50D7E, size: 0x8, addend: 0x0, symName: __ZNSt3__122__compressed_pair_elemINS_22__allocator_destructorINS_9allocatorINS_11__list_nodeINS_12basic_stringIcNS_11char_traitsIcEENS2_IcEEEEPvEEEEEELi1ELb0EEC2B8ue170006ISC_vEEOT_, symObjAddr: 0x34C38, symBinAddr: 0x100035A28, symSize: 0x24 }
  - { offsetInCU: 0x50DC0, offset: 0x50DC0, size: 0x8, addend: 0x0, symName: __ZNKSt3__117__compressed_pairIPNS_11__list_nodeINS_12basic_stringIcNS_11char_traitsIcEENS_9allocatorIcEEEEPvEENS_22__allocator_destructorINS5_IS9_EEEEE5firstB8ue170006Ev, symObjAddr: 0x34C5C, symBinAddr: 0x100035A4C, symSize: 0x24 }
  - { offsetInCU: 0x50DE6, offset: 0x50DE6, size: 0x8, addend: 0x0, symName: __ZNKSt3__122__compressed_pair_elemIPNS_11__list_nodeINS_12basic_stringIcNS_11char_traitsIcEENS_9allocatorIcEEEEPvEELi0ELb0EE5__getB8ue170006Ev, symObjAddr: 0x34C80, symBinAddr: 0x100035A70, symSize: 0x14 }
  - { offsetInCU: 0x50E0C, offset: 0x50E0C, size: 0x8, addend: 0x0, symName: __ZNSt3__117__compressed_pairIPNS_11__list_nodeINS_12basic_stringIcNS_11char_traitsIcEENS_9allocatorIcEEEEPvEENS_22__allocator_destructorINS5_IS9_EEEEE5firstB8ue170006Ev, symObjAddr: 0x34C94, symBinAddr: 0x100035A84, symSize: 0x24 }
  - { offsetInCU: 0x50E32, offset: 0x50E32, size: 0x8, addend: 0x0, symName: __ZNSt3__122__compressed_pair_elemIPNS_11__list_nodeINS_12basic_stringIcNS_11char_traitsIcEENS_9allocatorIcEEEEPvEELi0ELb0EE5__getB8ue170006Ev, symObjAddr: 0x34CB8, symBinAddr: 0x100035AA8, symSize: 0x14 }
  - { offsetInCU: 0x50E58, offset: 0x50E58, size: 0x8, addend: 0x0, symName: __ZNSt3__110unique_ptrINS_11__list_nodeINS_12basic_stringIcNS_11char_traitsIcEENS_9allocatorIcEEEEPvEENS_22__allocator_destructorINS5_IS9_EEEEED2B8ue170006Ev, symObjAddr: 0x34CCC, symBinAddr: 0x100035ABC, symSize: 0x30 }
  - { offsetInCU: 0x50E82, offset: 0x50E82, size: 0x8, addend: 0x0, symName: __ZNSt3__110unique_ptrINS_11__list_nodeINS_12basic_stringIcNS_11char_traitsIcEENS_9allocatorIcEEEEPvEENS_22__allocator_destructorINS5_IS9_EEEEE5resetB8ue170006EPS9_, symObjAddr: 0x34CFC, symBinAddr: 0x100035AEC, symSize: 0x78 }
  - { offsetInCU: 0x50EC6, offset: 0x50EC6, size: 0x8, addend: 0x0, symName: __ZNSt3__117__compressed_pairIPNS_11__list_nodeINS_12basic_stringIcNS_11char_traitsIcEENS_9allocatorIcEEEEPvEENS_22__allocator_destructorINS5_IS9_EEEEE6secondB8ue170006Ev, symObjAddr: 0x34D74, symBinAddr: 0x100035B64, symSize: 0x28 }
  - { offsetInCU: 0x50EEC, offset: 0x50EEC, size: 0x8, addend: 0x0, symName: __ZNSt3__122__allocator_destructorINS_9allocatorINS_11__list_nodeINS_12basic_stringIcNS_11char_traitsIcEENS1_IcEEEEPvEEEEEclB8ue170006EPS9_, symObjAddr: 0x34D9C, symBinAddr: 0x100035B8C, symSize: 0x34 }
  - { offsetInCU: 0x50F20, offset: 0x50F20, size: 0x8, addend: 0x0, symName: __ZNSt3__122__compressed_pair_elemINS_22__allocator_destructorINS_9allocatorINS_11__list_nodeINS_12basic_stringIcNS_11char_traitsIcEENS2_IcEEEEPvEEEEEELi1ELb0EE5__getB8ue170006Ev, symObjAddr: 0x34DD0, symBinAddr: 0x100035BC0, symSize: 0x14 }
