---
triple:          'arm64-apple-darwin'
binary-path:     '/Users/folaosibo/Documents/AIICOInternshipProjects/MatchingAlgorithm/Functions'
relocations:
  - { offsetInCU: 0x95, offset: 0x95, size: 0x8, addend: 0x0, symName: __ZN8nlohmann16json_abi_v3_11_36detail12static_constINS1_10to_json_fnEE5valueE, symObjAddr: 0x32D13, symBinAddr: 0x10003FC43, symSize: 0x0 }
  - { offsetInCU: 0x16CE, offset: 0x16CE, size: 0x8, addend: 0x0, symName: __ZN8nlohmann16json_abi_v3_11_36detail6concatINSt3__112basic_stringIcNS3_11char_traitsIcEENS3_9allocatorIcEEEEJS9_S9_RKS9_EEET_DpOT0_, symObjAddr: 0xFBF8, symBinAddr: 0x100011170, symSize: 0xD8 }
  - { offsetInCU: 0x1748, offset: 0x1748, size: 0x8, addend: 0x0, symName: __ZN8nlohmann16json_abi_v3_11_36detail13concat_lengthINSt3__112basic_stringIcNS3_11char_traitsIcEENS3_9allocatorIcEEEEJS9_S9_EEEmRKT_DpRKT0_, symObjAddr: 0xFE14, symBinAddr: 0x10001138C, symSize: 0x48 }
  - { offsetInCU: 0x17AD, offset: 0x17AD, size: 0x8, addend: 0x0, symName: __ZN8nlohmann16json_abi_v3_11_36detail11concat_intoINSt3__112basic_stringIcNS3_11char_traitsIcEENS3_9allocatorIcEEEES9_JS9_RKS9_ELi0EEEvRT_OT0_DpOT1_, symObjAddr: 0xFE5C, symBinAddr: 0x1000113D4, symSize: 0x44 }
  - { offsetInCU: 0x182C, offset: 0x182C, size: 0x8, addend: 0x0, symName: __ZN8nlohmann16json_abi_v3_11_36detail13concat_lengthINSt3__112basic_stringIcNS3_11char_traitsIcEENS3_9allocatorIcEEEEJS9_EEEmRKT_DpRKT0_, symObjAddr: 0xFF28, symBinAddr: 0x1000114A0, symSize: 0x40 }
  - { offsetInCU: 0x187D, offset: 0x187D, size: 0x8, addend: 0x0, symName: __ZN8nlohmann16json_abi_v3_11_36detail13concat_lengthINSt3__112basic_stringIcNS3_11char_traitsIcEENS3_9allocatorIcEEEEJEEEmRKT_DpRKT0_, symObjAddr: 0xFF68, symBinAddr: 0x1000114E0, symSize: 0x38 }
  - { offsetInCU: 0x18B9, offset: 0x18B9, size: 0x8, addend: 0x0, symName: __ZN8nlohmann16json_abi_v3_11_36detail13concat_lengthEv, symObjAddr: 0xFFA0, symBinAddr: 0x100011518, symSize: 0x8 }
  - { offsetInCU: 0x18D7, offset: 0x18D7, size: 0x8, addend: 0x0, symName: __ZN8nlohmann16json_abi_v3_11_36detail11concat_intoINSt3__112basic_stringIcNS3_11char_traitsIcEENS3_9allocatorIcEEEES9_JRKS9_ELi0EEEvRT_OT0_DpOT1_, symObjAddr: 0xFFF4, symBinAddr: 0x10001156C, symSize: 0x3C }
  - { offsetInCU: 0x1942, offset: 0x1942, size: 0x8, addend: 0x0, symName: __ZN8nlohmann16json_abi_v3_11_36detail11concat_intoINSt3__112basic_stringIcNS3_11char_traitsIcEENS3_9allocatorIcEEEERKS9_JELi0EEEvRT_OT0_DpOT1_, symObjAddr: 0x10030, symBinAddr: 0x1000115A8, symSize: 0x34 }
  - { offsetInCU: 0x1998, offset: 0x1998, size: 0x8, addend: 0x0, symName: __ZN8nlohmann16json_abi_v3_11_36detail11concat_intoINSt3__112basic_stringIcNS3_11char_traitsIcEENS3_9allocatorIcEEEEEEvRT_, symObjAddr: 0x10064, symBinAddr: 0x1000115DC, symSize: 0x10 }
  - { offsetInCU: 0x19C7, offset: 0x19C7, size: 0x8, addend: 0x0, symName: __ZN8nlohmann16json_abi_v3_11_36detail6concatINSt3__112basic_stringIcNS3_11char_traitsIcEENS3_9allocatorIcEEEEJRA17_KcRKS9_cS9_RA3_SA_EEET_DpOT0_, symObjAddr: 0x10074, symBinAddr: 0x1000115EC, symSize: 0xF0 }
  - { offsetInCU: 0x1A69, offset: 0x1A69, size: 0x8, addend: 0x0, symName: __ZN8nlohmann16json_abi_v3_11_36detail13concat_lengthIJNSt3__112basic_stringIcNS3_11char_traitsIcEENS3_9allocatorIcEEEEcS9_A3_cEEEmPKcDpRKT_, symObjAddr: 0x10164, symBinAddr: 0x1000116DC, symSize: 0x58 }
  - { offsetInCU: 0x1AED, offset: 0x1AED, size: 0x8, addend: 0x0, symName: __ZN8nlohmann16json_abi_v3_11_36detail11concat_intoINSt3__112basic_stringIcNS3_11char_traitsIcEENS3_9allocatorIcEEEERA17_KcJRKS9_cS9_RA3_SA_ELi0EEEvRT_OT0_DpOT1_, symObjAddr: 0x101BC, symBinAddr: 0x100011734, symSize: 0x54 }
  - { offsetInCU: 0x1B94, offset: 0x1B94, size: 0x8, addend: 0x0, symName: __ZN8nlohmann16json_abi_v3_11_36detail13concat_lengthINSt3__112basic_stringIcNS3_11char_traitsIcEENS3_9allocatorIcEEEEJcS9_A3_cEEEmRKT_DpRKT0_, symObjAddr: 0x10210, symBinAddr: 0x100011788, symSize: 0x54 }
  - { offsetInCU: 0x1C0D, offset: 0x1C0D, size: 0x8, addend: 0x0, symName: __ZN8nlohmann16json_abi_v3_11_36detail13concat_lengthIJNSt3__112basic_stringIcNS3_11char_traitsIcEENS3_9allocatorIcEEEEA3_cEEEmcDpRKT_, symObjAddr: 0x10264, symBinAddr: 0x1000117DC, symSize: 0x34 }
  - { offsetInCU: 0x1C65, offset: 0x1C65, size: 0x8, addend: 0x0, symName: __ZN8nlohmann16json_abi_v3_11_36detail13concat_lengthINSt3__112basic_stringIcNS3_11char_traitsIcEENS3_9allocatorIcEEEEJA3_cEEEmRKT_DpRKT0_, symObjAddr: 0x10298, symBinAddr: 0x100011810, symSize: 0x40 }
  - { offsetInCU: 0x1CB6, offset: 0x1CB6, size: 0x8, addend: 0x0, symName: __ZN8nlohmann16json_abi_v3_11_36detail13concat_lengthIJEEEmPKcDpRKT_, symObjAddr: 0x102D8, symBinAddr: 0x100011850, symSize: 0x38 }
  - { offsetInCU: 0x1CE9, offset: 0x1CE9, size: 0x8, addend: 0x0, symName: __ZN8nlohmann16json_abi_v3_11_36detail11concat_intoINSt3__112basic_stringIcNS3_11char_traitsIcEENS3_9allocatorIcEEEERKS9_JcS9_RA3_KcELi0EEEvRT_OT0_DpOT1_, symObjAddr: 0x10310, symBinAddr: 0x100011888, symSize: 0x4C }
  - { offsetInCU: 0x1D7C, offset: 0x1D7C, size: 0x8, addend: 0x0, symName: __ZN8nlohmann16json_abi_v3_11_36detail11concat_intoINSt3__112basic_stringIcNS3_11char_traitsIcEENS3_9allocatorIcEEEEcJS9_RA3_KcELi0EEEvRT_OT0_DpOT1_, symObjAddr: 0x1035C, symBinAddr: 0x1000118D4, symSize: 0x48 }
  - { offsetInCU: 0x1DFB, offset: 0x1DFB, size: 0x8, addend: 0x0, symName: __ZN8nlohmann16json_abi_v3_11_36detail11concat_intoINSt3__112basic_stringIcNS3_11char_traitsIcEENS3_9allocatorIcEEEES9_JRA3_KcELi0EEEvRT_OT0_DpOT1_, symObjAddr: 0x103D8, symBinAddr: 0x100011950, symSize: 0x3C }
  - { offsetInCU: 0x1E66, offset: 0x1E66, size: 0x8, addend: 0x0, symName: __ZN8nlohmann16json_abi_v3_11_36detail11concat_intoINSt3__112basic_stringIcNS3_11char_traitsIcEENS3_9allocatorIcEEEERA3_KcJELi0EEEvRT_OT0_DpOT1_, symObjAddr: 0x10414, symBinAddr: 0x10001198C, symSize: 0x34 }
  - { offsetInCU: 0x2017, offset: 0x2017, size: 0x8, addend: 0x0, symName: __ZN8nlohmann16json_abi_v3_11_36detail13input_adapterERNSt3__113basic_istreamIcNS2_11char_traitsIcEEEE, symObjAddr: 0x10744, symBinAddr: 0x100011CBC, symSize: 0x38 }
  - { offsetInCU: 0x29BC, offset: 0x29BC, size: 0x8, addend: 0x0, symName: __ZN8nlohmann16json_abi_v3_11_36detail6concatINSt3__112basic_stringIcNS3_11char_traitsIcEENS3_9allocatorIcEEEEJRA26_KcS9_cEEET_DpOT0_, symObjAddr: 0x1C034, symBinAddr: 0x10001D5AC, symSize: 0xD8 }
  - { offsetInCU: 0x2A36, offset: 0x2A36, size: 0x8, addend: 0x0, symName: __ZN8nlohmann16json_abi_v3_11_36detail6concatINSt3__112basic_stringIcNS3_11char_traitsIcEENS3_9allocatorIcEEEEJRA24_KcS9_EEET_DpOT0_, symObjAddr: 0x1CB30, symBinAddr: 0x10001E0A8, symSize: 0xCC }
  - { offsetInCU: 0x2A9C, offset: 0x2A9C, size: 0x8, addend: 0x0, symName: __ZN8nlohmann16json_abi_v3_11_36detail13concat_lengthIJNSt3__112basic_stringIcNS3_11char_traitsIcEENS3_9allocatorIcEEEEEEEmPKcDpRKT_, symObjAddr: 0x1E6E0, symBinAddr: 0x10001FC58, symSize: 0x40 }
  - { offsetInCU: 0x2AE4, offset: 0x2AE4, size: 0x8, addend: 0x0, symName: __ZN8nlohmann16json_abi_v3_11_36detail11concat_intoINSt3__112basic_stringIcNS3_11char_traitsIcEENS3_9allocatorIcEEEERA24_KcJS9_ELi0EEEvRT_OT0_DpOT1_, symObjAddr: 0x1E720, symBinAddr: 0x10001FC98, symSize: 0x3C }
  - { offsetInCU: 0x2B4F, offset: 0x2B4F, size: 0x8, addend: 0x0, symName: __ZN8nlohmann16json_abi_v3_11_36detail11concat_intoINSt3__112basic_stringIcNS3_11char_traitsIcEENS3_9allocatorIcEEEES9_JELi0EEEvRT_OT0_DpOT1_, symObjAddr: 0x1E75C, symBinAddr: 0x10001FCD4, symSize: 0x34 }
  - { offsetInCU: 0x2CE9, offset: 0x2CE9, size: 0x8, addend: 0x0, symName: __ZN8nlohmann16json_abi_v3_11_36detail6concatINSt3__112basic_stringIcNS3_11char_traitsIcEENS3_9allocatorIcEEEEJRA25_KcPSA_EEET_DpOT0_, symObjAddr: 0x24930, symBinAddr: 0x100025EA8, symSize: 0xCC }
  - { offsetInCU: 0x2D4F, offset: 0x2D4F, size: 0x8, addend: 0x0, symName: __ZN8nlohmann16json_abi_v3_11_36detail13concat_lengthIJPKcEEEmS4_DpRKT_, symObjAddr: 0x258C0, symBinAddr: 0x100026E38, symSize: 0x44 }
  - { offsetInCU: 0x2D97, offset: 0x2D97, size: 0x8, addend: 0x0, symName: __ZN8nlohmann16json_abi_v3_11_36detail11concat_intoINSt3__112basic_stringIcNS3_11char_traitsIcEENS3_9allocatorIcEEEERA25_KcJPSA_ELi0EEEvRT_OT0_DpOT1_, symObjAddr: 0x25904, symBinAddr: 0x100026E7C, symSize: 0x3C }
  - { offsetInCU: 0x2E02, offset: 0x2E02, size: 0x8, addend: 0x0, symName: __ZN8nlohmann16json_abi_v3_11_36detail11concat_intoINSt3__112basic_stringIcNS3_11char_traitsIcEENS3_9allocatorIcEEEEPKcJELi0EEEvRT_OT0_DpOT1_, symObjAddr: 0x25940, symBinAddr: 0x100026EB8, symSize: 0x38 }
  - { offsetInCU: 0x2E58, offset: 0x2E58, size: 0x8, addend: 0x0, symName: __ZN8nlohmann16json_abi_v3_11_36detail7to_jsonINS0_10basic_jsonINSt3__13mapENS4_6vectorENS4_12basic_stringIcNS4_11char_traitsIcEENS4_9allocatorIcEEEEbxydSA_NS0_14adl_serializerENS6_IhNSA_IhEEEEvEESC_Li0EEEvRT_RKT0_, symObjAddr: 0x25B78, symBinAddr: 0x1000270F0, symSize: 0x2C }
  - { offsetInCU: 0x2EDA, offset: 0x2EDA, size: 0x8, addend: 0x0, symName: __ZN8nlohmann16json_abi_v3_11_36detail6concatINSt3__112basic_stringIcNS3_11char_traitsIcEENS3_9allocatorIcEEEEJRA23_KcS9_EEET_DpOT0_, symObjAddr: 0x260DC, symBinAddr: 0x100027654, symSize: 0xCC }
  - { offsetInCU: 0x2F40, offset: 0x2F40, size: 0x8, addend: 0x0, symName: __ZN8nlohmann16json_abi_v3_11_36detail11concat_intoINSt3__112basic_stringIcNS3_11char_traitsIcEENS3_9allocatorIcEEEERA23_KcJS9_ELi0EEEvRT_OT0_DpOT1_, symObjAddr: 0x261A8, symBinAddr: 0x100027720, symSize: 0x3C }
  - { offsetInCU: 0x2FAB, offset: 0x2FAB, size: 0x8, addend: 0x0, symName: __ZN8nlohmann16json_abi_v3_11_36detail13concat_lengthIJNSt3__112basic_stringIcNS3_11char_traitsIcEENS3_9allocatorIcEEEEcEEEmPKcDpRKT_, symObjAddr: 0x262F8, symBinAddr: 0x100027870, symSize: 0x48 }
  - { offsetInCU: 0x3007, offset: 0x3007, size: 0x8, addend: 0x0, symName: __ZN8nlohmann16json_abi_v3_11_36detail11concat_intoINSt3__112basic_stringIcNS3_11char_traitsIcEENS3_9allocatorIcEEEERA26_KcJS9_cELi0EEEvRT_OT0_DpOT1_, symObjAddr: 0x26340, symBinAddr: 0x1000278B8, symSize: 0x44 }
  - { offsetInCU: 0x3086, offset: 0x3086, size: 0x8, addend: 0x0, symName: __ZN8nlohmann16json_abi_v3_11_36detail13concat_lengthINSt3__112basic_stringIcNS3_11char_traitsIcEENS3_9allocatorIcEEEEJcEEEmRKT_DpRKT0_, symObjAddr: 0x26384, symBinAddr: 0x1000278FC, symSize: 0x44 }
  - { offsetInCU: 0x30D7, offset: 0x30D7, size: 0x8, addend: 0x0, symName: __ZN8nlohmann16json_abi_v3_11_36detail13concat_lengthIJEEEmcDpRKT_, symObjAddr: 0x263C8, symBinAddr: 0x100027940, symSize: 0x24 }
  - { offsetInCU: 0x3106, offset: 0x3106, size: 0x8, addend: 0x0, symName: __ZN8nlohmann16json_abi_v3_11_36detail11concat_intoINSt3__112basic_stringIcNS3_11char_traitsIcEENS3_9allocatorIcEEEES9_JcELi0EEEvRT_OT0_DpOT1_, symObjAddr: 0x263EC, symBinAddr: 0x100027964, symSize: 0x3C }
  - { offsetInCU: 0x3171, offset: 0x3171, size: 0x8, addend: 0x0, symName: __ZN8nlohmann16json_abi_v3_11_36detail11concat_intoINSt3__112basic_stringIcNS3_11char_traitsIcEENS3_9allocatorIcEEEEcJELi0EEEvRT_OT0_DpOT1_, symObjAddr: 0x26428, symBinAddr: 0x1000279A0, symSize: 0x38 }
  - { offsetInCU: 0x31C7, offset: 0x31C7, size: 0x8, addend: 0x0, symName: __ZN8nlohmann16json_abi_v3_11_36detail7to_jsonINS0_10basic_jsonINSt3__13mapENS4_6vectorENS4_12basic_stringIcNS4_11char_traitsIcEENS4_9allocatorIcEEEEbxydSA_NS0_14adl_serializerENS6_IhNSA_IhEEEEvEEdLi0EEEvRT_T0_, symObjAddr: 0x26A60, symBinAddr: 0x100027FD8, symSize: 0x2C }
  - { offsetInCU: 0x3249, offset: 0x3249, size: 0x8, addend: 0x0, symName: __ZN8nlohmann16json_abi_v3_11_36detail7to_jsonINS0_10basic_jsonINSt3__13mapENS4_6vectorENS4_12basic_stringIcNS4_11char_traitsIcEENS4_9allocatorIcEEEEbxydSA_NS0_14adl_serializerENS6_IhNSA_IhEEEEvEEbLi0EEEvRT_T0_, symObjAddr: 0x270D4, symBinAddr: 0x10002864C, symSize: 0x38 }
  - { offsetInCU: 0x32CB, offset: 0x32CB, size: 0x8, addend: 0x0, symName: __ZN8nlohmann16json_abi_v3_11_36detail7to_jsonINS0_10basic_jsonINSt3__13mapENS4_6vectorENS4_12basic_stringIcNS4_11char_traitsIcEENS4_9allocatorIcEEEEbxydSA_NS0_14adl_serializerENS6_IhNSA_IhEEEEvEExLi0EEEvRT_T0_, symObjAddr: 0x27C38, symBinAddr: 0x1000291B0, symSize: 0x2C }
  - { offsetInCU: 0x334D, offset: 0x334D, size: 0x8, addend: 0x0, symName: __ZN8nlohmann16json_abi_v3_11_36detail7to_jsonINS0_10basic_jsonINSt3__13mapENS4_6vectorENS4_12basic_stringIcNS4_11char_traitsIcEENS4_9allocatorIcEEEEbxydSA_NS0_14adl_serializerENS6_IhNSA_IhEEEEvEEyLi0EEEvRT_T0_, symObjAddr: 0x28784, symBinAddr: 0x100029CFC, symSize: 0x2C }
  - { offsetInCU: 0x33CF, offset: 0x33CF, size: 0x8, addend: 0x0, symName: __ZN8nlohmann16json_abi_v3_11_36detail6concatINSt3__112basic_stringIcNS3_11char_traitsIcEENS3_9allocatorIcEEEEJS9_RA12_KcS9_RA3_SA_S9_RKS9_EEET_DpOT0_, symObjAddr: 0x28AC8, symBinAddr: 0x10002A040, symSize: 0xFC }
  - { offsetInCU: 0x3485, offset: 0x3485, size: 0x8, addend: 0x0, symName: __ZN8nlohmann16json_abi_v3_11_36detail13concat_lengthINSt3__112basic_stringIcNS3_11char_traitsIcEENS3_9allocatorIcEEEEJA12_cS9_A3_cS9_S9_EEEmRKT_DpRKT0_, symObjAddr: 0x28CC4, symBinAddr: 0x10002A23C, symSize: 0x60 }
  - { offsetInCU: 0x3526, offset: 0x3526, size: 0x8, addend: 0x0, symName: __ZN8nlohmann16json_abi_v3_11_36detail11concat_intoINSt3__112basic_stringIcNS3_11char_traitsIcEENS3_9allocatorIcEEEES9_JRA12_KcS9_RA3_SA_S9_RKS9_ELi0EEEvRT_OT0_DpOT1_, symObjAddr: 0x28D24, symBinAddr: 0x10002A29C, symSize: 0x5C }
  - { offsetInCU: 0x35E1, offset: 0x35E1, size: 0x8, addend: 0x0, symName: __ZN8nlohmann16json_abi_v3_11_36detail13concat_lengthIJNSt3__112basic_stringIcNS3_11char_traitsIcEENS3_9allocatorIcEEEEA3_cS9_S9_EEEmPKcDpRKT_, symObjAddr: 0x28D80, symBinAddr: 0x10002A2F8, symSize: 0x58 }
  - { offsetInCU: 0x3665, offset: 0x3665, size: 0x8, addend: 0x0, symName: __ZN8nlohmann16json_abi_v3_11_36detail13concat_lengthINSt3__112basic_stringIcNS3_11char_traitsIcEENS3_9allocatorIcEEEEJA3_cS9_S9_EEEmRKT_DpRKT0_, symObjAddr: 0x28DD8, symBinAddr: 0x10002A350, symSize: 0x50 }
  - { offsetInCU: 0x36DE, offset: 0x36DE, size: 0x8, addend: 0x0, symName: __ZN8nlohmann16json_abi_v3_11_36detail13concat_lengthIJNSt3__112basic_stringIcNS3_11char_traitsIcEENS3_9allocatorIcEEEES9_EEEmPKcDpRKT_, symObjAddr: 0x28E28, symBinAddr: 0x10002A3A0, symSize: 0x48 }
  - { offsetInCU: 0x373A, offset: 0x373A, size: 0x8, addend: 0x0, symName: __ZN8nlohmann16json_abi_v3_11_36detail11concat_intoINSt3__112basic_stringIcNS3_11char_traitsIcEENS3_9allocatorIcEEEERA12_KcJS9_RA3_SA_S9_RKS9_ELi0EEEvRT_OT0_DpOT1_, symObjAddr: 0x28E70, symBinAddr: 0x10002A3E8, symSize: 0x54 }
  - { offsetInCU: 0x37E1, offset: 0x37E1, size: 0x8, addend: 0x0, symName: __ZN8nlohmann16json_abi_v3_11_36detail11concat_intoINSt3__112basic_stringIcNS3_11char_traitsIcEENS3_9allocatorIcEEEES9_JRA3_KcS9_RKS9_ELi0EEEvRT_OT0_DpOT1_, symObjAddr: 0x28EC4, symBinAddr: 0x10002A43C, symSize: 0x4C }
  - { offsetInCU: 0x3874, offset: 0x3874, size: 0x8, addend: 0x0, symName: __ZN8nlohmann16json_abi_v3_11_36detail11concat_intoINSt3__112basic_stringIcNS3_11char_traitsIcEENS3_9allocatorIcEEEERA3_KcJS9_RKS9_ELi0EEEvRT_OT0_DpOT1_, symObjAddr: 0x28F10, symBinAddr: 0x10002A488, symSize: 0x44 }
  - { offsetInCU: 0x38F3, offset: 0x38F3, size: 0x8, addend: 0x0, symName: __ZN8nlohmann16json_abi_v3_11_36detail6concatINSt3__112basic_stringIcNS3_11char_traitsIcEENS3_9allocatorIcEEEEJRA10_KcS9_SC_S9_EEET_DpOT0_, symObjAddr: 0x28F54, symBinAddr: 0x10002A4CC, symSize: 0xE4 }
  - { offsetInCU: 0x3981, offset: 0x3981, size: 0x8, addend: 0x0, symName: __ZN8nlohmann16json_abi_v3_11_36detail13concat_lengthIJNSt3__112basic_stringIcNS3_11char_traitsIcEENS3_9allocatorIcEEEEA10_cS9_EEEmPKcDpRKT_, symObjAddr: 0x29038, symBinAddr: 0x10002A5B0, symSize: 0x50 }
  - { offsetInCU: 0x39F1, offset: 0x39F1, size: 0x8, addend: 0x0, symName: __ZN8nlohmann16json_abi_v3_11_36detail11concat_intoINSt3__112basic_stringIcNS3_11char_traitsIcEENS3_9allocatorIcEEEERA10_KcJS9_SC_S9_ELi0EEEvRT_OT0_DpOT1_, symObjAddr: 0x29088, symBinAddr: 0x10002A600, symSize: 0x4C }
  - { offsetInCU: 0x3A84, offset: 0x3A84, size: 0x8, addend: 0x0, symName: __ZN8nlohmann16json_abi_v3_11_36detail13concat_lengthINSt3__112basic_stringIcNS3_11char_traitsIcEENS3_9allocatorIcEEEEJA10_cS9_EEEmRKT_DpRKT0_, symObjAddr: 0x290D4, symBinAddr: 0x10002A64C, symSize: 0x48 }
  - { offsetInCU: 0x3AE9, offset: 0x3AE9, size: 0x8, addend: 0x0, symName: __ZN8nlohmann16json_abi_v3_11_36detail11concat_intoINSt3__112basic_stringIcNS3_11char_traitsIcEENS3_9allocatorIcEEEES9_JRA10_KcS9_ELi0EEEvRT_OT0_DpOT1_, symObjAddr: 0x2911C, symBinAddr: 0x10002A694, symSize: 0x44 }
  - { offsetInCU: 0x3B68, offset: 0x3B68, size: 0x8, addend: 0x0, symName: __ZN8nlohmann16json_abi_v3_11_36detail11concat_intoINSt3__112basic_stringIcNS3_11char_traitsIcEENS3_9allocatorIcEEEERA10_KcJS9_ELi0EEEvRT_OT0_DpOT1_, symObjAddr: 0x29160, symBinAddr: 0x10002A6D8, symSize: 0x3C }
  - { offsetInCU: 0x3BD3, offset: 0x3BD3, size: 0x8, addend: 0x0, symName: __ZN8nlohmann16json_abi_v3_11_36detail6concatINSt3__112basic_stringIcNS3_11char_traitsIcEENS3_9allocatorIcEEEEJRA15_KcRKS9_cEEET_DpOT0_, symObjAddr: 0x2922C, symBinAddr: 0x10002A7A4, symSize: 0xD8 }
  - { offsetInCU: 0x3C4D, offset: 0x3C4D, size: 0x8, addend: 0x0, symName: __ZN8nlohmann16json_abi_v3_11_36detail6concatINSt3__112basic_stringIcNS3_11char_traitsIcEENS3_9allocatorIcEEEEJPKcRA15_SA_S9_cEEET_DpOT0_, symObjAddr: 0x29330, symBinAddr: 0x10002A8A8, symSize: 0xE8 }
  - { offsetInCU: 0x3CDB, offset: 0x3CDB, size: 0x8, addend: 0x0, symName: __ZN8nlohmann16json_abi_v3_11_36detail6concatINSt3__112basic_stringIcNS3_11char_traitsIcEENS3_9allocatorIcEEEEJRA12_KcPSA_EEET_DpOT0_, symObjAddr: 0x29430, symBinAddr: 0x10002A9A8, symSize: 0xC4 }
  - { offsetInCU: 0x3D41, offset: 0x3D41, size: 0x8, addend: 0x0, symName: __ZN8nlohmann16json_abi_v3_11_36detail11concat_intoINSt3__112basic_stringIcNS3_11char_traitsIcEENS3_9allocatorIcEEEERA15_KcJRKS9_cELi0EEEvRT_OT0_DpOT1_, symObjAddr: 0x29680, symBinAddr: 0x10002ABF8, symSize: 0x44 }
  - { offsetInCU: 0x3DC0, offset: 0x3DC0, size: 0x8, addend: 0x0, symName: __ZN8nlohmann16json_abi_v3_11_36detail11concat_intoINSt3__112basic_stringIcNS3_11char_traitsIcEENS3_9allocatorIcEEEERKS9_JcELi0EEEvRT_OT0_DpOT1_, symObjAddr: 0x296C4, symBinAddr: 0x10002AC3C, symSize: 0x3C }
  - { offsetInCU: 0x3E2B, offset: 0x3E2B, size: 0x8, addend: 0x0, symName: __ZN8nlohmann16json_abi_v3_11_36detail13concat_lengthIJA15_cNSt3__112basic_stringIcNS4_11char_traitsIcEENS4_9allocatorIcEEEEcEEEmPKcDpRKT_, symObjAddr: 0x29700, symBinAddr: 0x10002AC78, symSize: 0x50 }
  - { offsetInCU: 0x3E9B, offset: 0x3E9B, size: 0x8, addend: 0x0, symName: __ZN8nlohmann16json_abi_v3_11_36detail11concat_intoINSt3__112basic_stringIcNS3_11char_traitsIcEENS3_9allocatorIcEEEEPKcJRA15_SA_S9_cELi0EEEvRT_OT0_DpOT1_, symObjAddr: 0x29750, symBinAddr: 0x10002ACC8, symSize: 0x50 }
  - { offsetInCU: 0x3F2E, offset: 0x3F2E, size: 0x8, addend: 0x0, symName: __ZN8nlohmann16json_abi_v3_11_36detail11concat_intoINSt3__112basic_stringIcNS3_11char_traitsIcEENS3_9allocatorIcEEEERA15_KcJS9_cELi0EEEvRT_OT0_DpOT1_, symObjAddr: 0x297A0, symBinAddr: 0x10002AD18, symSize: 0x44 }
  - { offsetInCU: 0x3FAD, offset: 0x3FAD, size: 0x8, addend: 0x0, symName: __ZN8nlohmann16json_abi_v3_11_36detail11concat_intoINSt3__112basic_stringIcNS3_11char_traitsIcEENS3_9allocatorIcEEEERA12_KcJPSA_ELi0EEEvRT_OT0_DpOT1_, symObjAddr: 0x297E4, symBinAddr: 0x10002AD5C, symSize: 0x3C }
  - { offsetInCU: 0x4018, offset: 0x4018, size: 0x8, addend: 0x0, symName: __ZN8nlohmann16json_abi_v3_11_36detail6concatINSt3__112basic_stringIcNS3_11char_traitsIcEENS3_9allocatorIcEEEEJRA51_KcPSA_EEET_DpOT0_, symObjAddr: 0x2C4B0, symBinAddr: 0x10002DA28, symSize: 0xC4 }
  - { offsetInCU: 0x407E, offset: 0x407E, size: 0x8, addend: 0x0, symName: __ZN8nlohmann16json_abi_v3_11_36detail11concat_intoINSt3__112basic_stringIcNS3_11char_traitsIcEENS3_9allocatorIcEEEERA51_KcJPSA_ELi0EEEvRT_OT0_DpOT1_, symObjAddr: 0x2C9C4, symBinAddr: 0x10002DF3C, symSize: 0x3C }
  - { offsetInCU: 0x40E9, offset: 0x40E9, size: 0x8, addend: 0x0, symName: __ZN8nlohmann16json_abi_v3_11_36detaileqENS1_20primitive_iterator_tES2_, symObjAddr: 0x2D204, symBinAddr: 0x10002E77C, symSize: 0x28 }
  - { offsetInCU: 0x413B, offset: 0x413B, size: 0x8, addend: 0x0, symName: __ZN8nlohmann16json_abi_v3_11_36detail9from_jsonINS0_10basic_jsonINSt3__13mapENS4_6vectorENS4_12basic_stringIcNS4_11char_traitsIcEENS4_9allocatorIcEEEEbxydSA_NS0_14adl_serializerENS6_IhNSA_IhEEEEvEEiLi0EEEvRKT_RT0_, symObjAddr: 0x2D980, symBinAddr: 0x10002EEF8, symSize: 0x1A0 }
  - { offsetInCU: 0x418C, offset: 0x418C, size: 0x8, addend: 0x0, symName: __ZN8nlohmann16json_abi_v3_11_36detail6concatINSt3__112basic_stringIcNS3_11char_traitsIcEENS3_9allocatorIcEEEEJRA29_KcPSA_EEET_DpOT0_, symObjAddr: 0x2DC00, symBinAddr: 0x10002F178, symSize: 0xC4 }
  - { offsetInCU: 0x41F2, offset: 0x41F2, size: 0x8, addend: 0x0, symName: __ZN8nlohmann16json_abi_v3_11_36detail11concat_intoINSt3__112basic_stringIcNS3_11char_traitsIcEENS3_9allocatorIcEEEERA29_KcJPSA_ELi0EEEvRT_OT0_DpOT1_, symObjAddr: 0x2DED4, symBinAddr: 0x10002F44C, symSize: 0x3C }
  - { offsetInCU: 0x425D, offset: 0x425D, size: 0x8, addend: 0x0, symName: __ZN8nlohmann16json_abi_v3_11_36detail9from_jsonINS0_10basic_jsonINSt3__13mapENS4_6vectorENS4_12basic_stringIcNS4_11char_traitsIcEENS4_9allocatorIcEEEEbxydSA_NS0_14adl_serializerENS6_IhNSA_IhEEEEvEEEEvRKT_RNSH_8string_tE, symObjAddr: 0x2E048, symBinAddr: 0x10002F5C0, symSize: 0x118 }
  - { offsetInCU: 0x429F, offset: 0x429F, size: 0x8, addend: 0x0, symName: __ZN8nlohmann16json_abi_v3_11_36detail6concatINSt3__112basic_stringIcNS3_11char_traitsIcEENS3_9allocatorIcEEEEJRA52_KcPSA_EEET_DpOT0_, symObjAddr: 0x2EDEC, symBinAddr: 0x100030364, symSize: 0xC4 }
  - { offsetInCU: 0x4305, offset: 0x4305, size: 0x8, addend: 0x0, symName: __ZN8nlohmann16json_abi_v3_11_36detail11concat_intoINSt3__112basic_stringIcNS3_11char_traitsIcEENS3_9allocatorIcEEEERA52_KcJPSA_ELi0EEEvRT_OT0_DpOT1_, symObjAddr: 0x2EEB0, symBinAddr: 0x100030428, symSize: 0x3C }
  - { offsetInCU: 0x5F67, offset: 0x5F67, size: 0x8, addend: 0x0, symName: __ZN8nlohmann16json_abi_v3_11_3rsERNSt3__113basic_istreamIcNS1_11char_traitsIcEEEERNS0_10basic_jsonINS1_3mapENS1_6vectorENS1_12basic_stringIcS4_NS1_9allocatorIcEEEEbxydSB_NS0_14adl_serializerENS9_IhNSB_IhEEEEvEE, symObjAddr: 0x3388, symBinAddr: 0x100004900, symSize: 0x120 }
  - { offsetInCU: 0x6188, offset: 0x6188, size: 0x8, addend: 0x0, symName: __ZNSt3__119piecewise_constructE, symObjAddr: 0x32D14, symBinAddr: 0x10003FC44, symSize: 0x0 }
  - { offsetInCU: 0x1ED6E, offset: 0x1ED6E, size: 0x8, addend: 0x0, symName: __ZNSt3__17advanceB8ue170006IPN8nlohmann16json_abi_v3_11_310basic_jsonINS_3mapENS_6vectorENS_12basic_stringIcNS_11char_traitsIcEENS_9allocatorIcEEEEbxydS9_NS2_14adl_serializerENS5_IhNS9_IhEEEEvEEllvEEvRT_T0_, symObjAddr: 0x8BE0, symBinAddr: 0x10000A158, symSize: 0x38 }
  - { offsetInCU: 0x1EFEE, offset: 0x1EFEE, size: 0x8, addend: 0x0, symName: __ZNSt3__17advanceB8ue170006INS_16reverse_iteratorIPN8nlohmann16json_abi_v3_11_310basic_jsonINS_3mapENS_6vectorENS_12basic_stringIcNS_11char_traitsIcEENS_9allocatorIcEEEEbxydSA_NS3_14adl_serializerENS6_IhNSA_IhEEEEvEEEEllvEEvRT_T0_, symObjAddr: 0x901C, symBinAddr: 0x10000A594, symSize: 0x38 }
  - { offsetInCU: 0x1F155, offset: 0x1F155, size: 0x8, addend: 0x0, symName: __ZNSt3__124__put_character_sequenceB8ue170006IcNS_11char_traitsIcEEEERNS_13basic_ostreamIT_T0_EES7_PKS4_m, symObjAddr: 0xC950, symBinAddr: 0x10000DEC8, symSize: 0x1EC }
  - { offsetInCU: 0x239FA, offset: 0x239FA, size: 0x8, addend: 0x0, symName: __ZNSt3__17advanceB8ue170006INS_21__tree_const_iteratorINS_12__value_typeINS_12basic_stringIcNS_11char_traitsIcEENS_9allocatorIcEEEEN8nlohmann16json_abi_v3_11_310basic_jsonINS_3mapENS_6vectorES8_bxydS6_NSA_14adl_serializerENSD_IhNS6_IhEEEEvEEEEPNS_11__tree_nodeISI_PvEElEEllvEEvRT_T0_, symObjAddr: 0x20B58, symBinAddr: 0x1000220D0, symSize: 0x38 }
  - { offsetInCU: 0x2401B, offset: 0x2401B, size: 0x8, addend: 0x0, symName: __ZNSt3__17advanceB8ue170006INS_14__map_iteratorINS_15__tree_iteratorINS_12__value_typeINS_12basic_stringIcNS_11char_traitsIcEENS_9allocatorIcEEEEN8nlohmann16json_abi_v3_11_310basic_jsonINS_3mapENS_6vectorES9_bxydS7_NSB_14adl_serializerENSE_IhNS7_IhEEEEvEEEEPNS_11__tree_nodeISJ_PvEElEEEEiivEEvRT_T0_, symObjAddr: 0x2D22C, symBinAddr: 0x10002E7A4, symSize: 0x40 }
  - { offsetInCU: 0x240A2, offset: 0x240A2, size: 0x8, addend: 0x0, symName: __ZNSt3__17advanceB8ue170006INS_11__wrap_iterIPN8nlohmann16json_abi_v3_11_310basic_jsonINS_3mapENS_6vectorENS_12basic_stringIcNS_11char_traitsIcEENS_9allocatorIcEEEEbxydSA_NS3_14adl_serializerENS6_IhNSA_IhEEEEvEEEEiivEEvRT_T0_, symObjAddr: 0x2D26C, symBinAddr: 0x10002E7E4, symSize: 0x40 }
  - { offsetInCU: 0x25F2A, offset: 0x25F2A, size: 0x8, addend: 0x0, symName: __ZNSt3__15beginB8ue170006INS_4listI11TransactionNS_9allocatorIS2_EEEEEEDTcldtfp_5beginEERT_, symObjAddr: 0x2F0, symBinAddr: 0x100001868, symSize: 0x2C }
  - { offsetInCU: 0x25F5F, offset: 0x25F5F, size: 0x8, addend: 0x0, symName: __ZNSt3__1neB8ue170006ERKNS_15__list_iteratorI11TransactionPvEES5_, symObjAddr: 0x31C, symBinAddr: 0x100001894, symSize: 0x34 }
  - { offsetInCU: 0x25F9D, offset: 0x25F9D, size: 0x8, addend: 0x0, symName: __ZNSt3__13endB8ue170006INS_4listI11TransactionNS_9allocatorIS2_EEEEEEDTcldtfp_3endEERT_, symObjAddr: 0x350, symBinAddr: 0x1000018C8, symSize: 0x2C }
  - { offsetInCU: 0x25FD3, offset: 0x25FD3, size: 0x8, addend: 0x0, symName: __ZNSt3__19transformB8ue170006INS_11__wrap_iterIPcEES3_PFiiEEET0_T_S7_S6_T1_, symObjAddr: 0x1CDC, symBinAddr: 0x100003254, symSize: 0x98 }
  - { offsetInCU: 0x26D6C, offset: 0x26D6C, size: 0x8, addend: 0x0, symName: __ZNSt3__15beginB8ue170006INS_4listINS_12basic_stringIcNS_11char_traitsIcEENS_9allocatorIcEEEENS5_IS7_EEEEEEDTcldtfp_5beginEERT_, symObjAddr: 0x212C, symBinAddr: 0x1000036A4, symSize: 0x2C }
  - { offsetInCU: 0x26DA1, offset: 0x26DA1, size: 0x8, addend: 0x0, symName: __ZNSt3__1neB8ue170006ERKNS_15__list_iteratorINS_12basic_stringIcNS_11char_traitsIcEENS_9allocatorIcEEEEPvEESA_, symObjAddr: 0x2158, symBinAddr: 0x1000036D0, symSize: 0x34 }
  - { offsetInCU: 0x26DDF, offset: 0x26DDF, size: 0x8, addend: 0x0, symName: __ZNSt3__13endB8ue170006INS_4listINS_12basic_stringIcNS_11char_traitsIcEENS_9allocatorIcEEEENS5_IS7_EEEEEEDTcldtfp_3endEERT_, symObjAddr: 0x218C, symBinAddr: 0x100003704, symSize: 0x2C }
  - { offsetInCU: 0x26E14, offset: 0x26E14, size: 0x8, addend: 0x0, symName: __ZNSt3__1lsB8ue170006INS_11char_traitsIcEEEERNS_13basic_ostreamIcT_EES6_PKc, symObjAddr: 0x257C, symBinAddr: 0x100003AF4, symSize: 0x48 }
  - { offsetInCU: 0x26E5A, offset: 0x26E5A, size: 0x8, addend: 0x0, symName: __ZNSt3__14endsB8ue170006IcNS_11char_traitsIcEEEERNS_13basic_ostreamIT_T0_EES7_, symObjAddr: 0x25F0, symBinAddr: 0x100003B68, symSize: 0x2C }
  - { offsetInCU: 0x26E9B, offset: 0x26E9B, size: 0x8, addend: 0x0, symName: __ZNSt3__15beginB8ue170006INS_4listINS1_I11TransactionNS_9allocatorIS2_EEEENS3_IS5_EEEEEEDTcldtfp_5beginEERT_, symObjAddr: 0x261C, symBinAddr: 0x100003B94, symSize: 0x2C }
  - { offsetInCU: 0x26ED0, offset: 0x26ED0, size: 0x8, addend: 0x0, symName: __ZNSt3__1neB8ue170006ERKNS_15__list_iteratorINS_4listI11TransactionNS_9allocatorIS2_EEEEPvEES9_, symObjAddr: 0x2648, symBinAddr: 0x100003BC0, symSize: 0x34 }
  - { offsetInCU: 0x26F0E, offset: 0x26F0E, size: 0x8, addend: 0x0, symName: __ZNSt3__13endB8ue170006INS_4listINS1_I11TransactionNS_9allocatorIS2_EEEENS3_IS5_EEEEEEDTcldtfp_3endEERT_, symObjAddr: 0x267C, symBinAddr: 0x100003BF4, symSize: 0x2C }
  - { offsetInCU: 0x26F43, offset: 0x26F43, size: 0x8, addend: 0x0, symName: __ZNSt3__1eqB8ue170006ERKNS_15__list_iteratorI11TransactionPvEES5_, symObjAddr: 0x26D4, symBinAddr: 0x100003C4C, symSize: 0x30 }
  - { offsetInCU: 0x26F80, offset: 0x26F80, size: 0x8, addend: 0x0, symName: __ZNSt3__14endlB8ue170006IcNS_11char_traitsIcEEEERNS_13basic_ostreamIT_T0_EES7_, symObjAddr: 0x2900, symBinAddr: 0x100003E78, symSize: 0x58 }
  - { offsetInCU: 0x26FC0, offset: 0x26FC0, size: 0x8, addend: 0x0, symName: __ZNSt3__1eqB8ue170006ERKNS_15__list_iteratorINS_4listI11TransactionNS_9allocatorIS2_EEEEPvEES9_, symObjAddr: 0x2958, symBinAddr: 0x100003ED0, symSize: 0x30 }
  - { offsetInCU: 0x26FFE, offset: 0x26FFE, size: 0x8, addend: 0x0, symName: __ZNSt3__19remove_ifB8ue170006INS_11__wrap_iterIPcEEPFiiEEET_S6_S6_T0_, symObjAddr: 0x2B98, symBinAddr: 0x100004110, symSize: 0x114 }
  - { offsetInCU: 0x27940, offset: 0x27940, size: 0x8, addend: 0x0, symName: __ZNSt3__110destroy_atB8ue170006I11TransactionLi0EEEvPT_, symObjAddr: 0x5384, symBinAddr: 0x1000068FC, symSize: 0x24 }
  - { offsetInCU: 0x27977, offset: 0x27977, size: 0x8, addend: 0x0, symName: __ZNSt3__112__destroy_atB8ue170006I11TransactionLi0EEEvPT_, symObjAddr: 0x53A8, symBinAddr: 0x100006920, symSize: 0x24 }
  - { offsetInCU: 0x279AD, offset: 0x279AD, size: 0x8, addend: 0x0, symName: __ZNSt3__119__libcpp_deallocateB8ue170006EPvmm, symObjAddr: 0x5410, symBinAddr: 0x100006988, symSize: 0x60 }
  - { offsetInCU: 0x27A13, offset: 0x27A13, size: 0x8, addend: 0x0, symName: __ZNSt3__124__is_overaligned_for_newB8ue170006Em, symObjAddr: 0x5470, symBinAddr: 0x1000069E8, symSize: 0x20 }
  - { offsetInCU: 0x27A41, offset: 0x27A41, size: 0x8, addend: 0x0, symName: __ZNSt3__127__do_deallocate_handle_sizeB8ue170006IJSt11align_val_tEEEvPvmDpT_, symObjAddr: 0x5490, symBinAddr: 0x100006A08, symSize: 0x30 }
  - { offsetInCU: 0x27A94, offset: 0x27A94, size: 0x8, addend: 0x0, symName: __ZNSt3__127__do_deallocate_handle_sizeB8ue170006IJEEEvPvmDpT_, symObjAddr: 0x54C0, symBinAddr: 0x100006A38, symSize: 0x28 }
  - { offsetInCU: 0x27AD2, offset: 0x27AD2, size: 0x8, addend: 0x0, symName: __ZNSt3__124__libcpp_operator_deleteB8ue170006IJPvSt11align_val_tEEEvDpT_, symObjAddr: 0x54E8, symBinAddr: 0x100006A60, symSize: 0x2C }
  - { offsetInCU: 0x27B1B, offset: 0x27B1B, size: 0x8, addend: 0x0, symName: __ZNSt3__124__libcpp_operator_deleteB8ue170006IJPvEEEvDpT_, symObjAddr: 0x5514, symBinAddr: 0x100006A8C, symSize: 0x24 }
  - { offsetInCU: 0x27B84, offset: 0x27B84, size: 0x8, addend: 0x0, symName: __ZNSt3__110destroy_atB8ue170006INS_4listI11TransactionNS_9allocatorIS2_EEEELi0EEEvPT_, symObjAddr: 0x58E8, symBinAddr: 0x100006E60, symSize: 0x24 }
  - { offsetInCU: 0x27BBB, offset: 0x27BBB, size: 0x8, addend: 0x0, symName: __ZNSt3__112__destroy_atB8ue170006INS_4listI11TransactionNS_9allocatorIS2_EEEELi0EEEvPT_, symObjAddr: 0x590C, symBinAddr: 0x100006E84, symSize: 0x24 }
  - { offsetInCU: 0x27BF2, offset: 0x27BF2, size: 0x8, addend: 0x0, symName: __ZNSt3__1neB8ue170006IPcEEbRKNS_11__wrap_iterIT_EES6_, symObjAddr: 0x59E0, symBinAddr: 0x100006F58, symSize: 0x34 }
  - { offsetInCU: 0x27C36, offset: 0x27C36, size: 0x8, addend: 0x0, symName: __ZNSt3__1eqB8ue170006IPcEEbRKNS_11__wrap_iterIT_EES6_, symObjAddr: 0x5A4C, symBinAddr: 0x100006FC4, symSize: 0x48 }
  - { offsetInCU: 0x27CAD, offset: 0x27CAD, size: 0x8, addend: 0x0, symName: __ZNSt3__13minB8ue170006ImEERKT_S3_S3_, symObjAddr: 0x60E8, symBinAddr: 0x100007660, symSize: 0x2C }
  - { offsetInCU: 0x27CF1, offset: 0x27CF1, size: 0x8, addend: 0x0, symName: __ZNSt3__112__to_addressB8ue170006IKcEEPT_S3_, symObjAddr: 0x6114, symBinAddr: 0x10000768C, symSize: 0x14 }
  - { offsetInCU: 0x27D5A, offset: 0x27D5A, size: 0x8, addend: 0x0, symName: __ZNSt3__13minB8ue170006ImNS_6__lessIvvEEEERKT_S5_S5_T0_, symObjAddr: 0x61E0, symBinAddr: 0x100007758, symSize: 0x54 }
  - { offsetInCU: 0x27DFA, offset: 0x27DFA, size: 0x8, addend: 0x0, symName: __ZNSt3__110destroy_atB8ue170006INS_12basic_stringIcNS_11char_traitsIcEENS_9allocatorIcEEEELi0EEEvPT_, symObjAddr: 0x65F0, symBinAddr: 0x100007B68, symSize: 0x24 }
  - { offsetInCU: 0x27E31, offset: 0x27E31, size: 0x8, addend: 0x0, symName: __ZNSt3__112__destroy_atB8ue170006INS_12basic_stringIcNS_11char_traitsIcEENS_9allocatorIcEEEELi0EEEvPT_, symObjAddr: 0x6614, symBinAddr: 0x100007B8C, symSize: 0x24 }
  - { offsetInCU: 0x27E68, offset: 0x27E68, size: 0x8, addend: 0x0, symName: __ZNSt3__1miB8ue170006IPKcPcEEDTmicldtfp_4baseEcldtfp0_4baseEERKNS_11__wrap_iterIT_EERKNS5_IT0_EE, symObjAddr: 0x678C, symBinAddr: 0x100007D04, symSize: 0x40 }
  - { offsetInCU: 0x27EB5, offset: 0x27EB5, size: 0x8, addend: 0x0, symName: __ZNSt3__1miB8ue170006IPKcS2_EEDTmicldtfp_4baseEcldtfp0_4baseEERKNS_11__wrap_iterIT_EERKNS4_IT0_EE, symObjAddr: 0x67CC, symBinAddr: 0x100007D44, symSize: 0x40 }
  - { offsetInCU: 0x27F02, offset: 0x27F02, size: 0x8, addend: 0x0, symName: __ZNSt3__17find_ifB8ue170006INS_11__wrap_iterIPcEERPFiiEEET_S7_S7_T0_, symObjAddr: 0x6888, symBinAddr: 0x100007E00, symSize: 0x8C }
  - { offsetInCU: 0x27F5D, offset: 0x27F5D, size: 0x8, addend: 0x0, symName: __ZNSt3__118__constexpr_strlenB8ue170006EPKc, symObjAddr: 0x6B48, symBinAddr: 0x1000080C0, symSize: 0x24 }
  - { offsetInCU: 0x27F8A, offset: 0x27F8A, size: 0x8, addend: 0x0, symName: __ZNSt3__14moveB8ue170006INS_11__wrap_iterIPN8nlohmann16json_abi_v3_11_310basic_jsonINS_3mapENS_6vectorENS_12basic_stringIcNS_11char_traitsIcEENS_9allocatorIcEEEEbxydSA_NS3_14adl_serializerENS6_IhNSA_IhEEEEvEEEENS_20back_insert_iteratorINS6_ISG_NSA_ISG_EEEEEEEET0_T_SO_SN_, symObjAddr: 0x7550, symBinAddr: 0x100008AC8, symSize: 0x60 }
  - { offsetInCU: 0x27FE5, offset: 0x27FE5, size: 0x8, addend: 0x0, symName: __ZNSt3__113back_inserterB8ue170006INS_6vectorIN8nlohmann16json_abi_v3_11_310basic_jsonINS_3mapES1_NS_12basic_stringIcNS_11char_traitsIcEENS_9allocatorIcEEEEbxydS9_NS3_14adl_serializerENS1_IhNS9_IhEEEEvEENS9_ISF_EEEEEENS_20back_insert_iteratorIT_EERSJ_, symObjAddr: 0x7610, symBinAddr: 0x100008B88, symSize: 0x2C }
  - { offsetInCU: 0x2801A, offset: 0x2801A, size: 0x8, addend: 0x0, symName: __ZNSt3__1neB8ue170006ERKNS_14__map_iteratorINS_15__tree_iteratorINS_12__value_typeINS_12basic_stringIcNS_11char_traitsIcEENS_9allocatorIcEEEEN8nlohmann16json_abi_v3_11_310basic_jsonINS_3mapENS_6vectorES8_bxydS6_NSA_14adl_serializerENSD_IhNS6_IhEEEEvEEEEPNS_11__tree_nodeISI_PvEElEEEESQ_, symObjAddr: 0x76D4, symBinAddr: 0x100008C4C, symSize: 0x30 }
  - { offsetInCU: 0x2893B, offset: 0x2893B, size: 0x8, addend: 0x0, symName: __ZNSt3__120__throw_length_errorB8ue170006EPKc, symObjAddr: 0x8038, symBinAddr: 0x1000095B0, symSize: 0x64 }
  - { offsetInCU: 0x28966, offset: 0x28966, size: 0x8, addend: 0x0, symName: __ZNSt3__119__allocate_at_leastB8ue170006INS_9allocatorIN8nlohmann16json_abi_v3_11_310basic_jsonINS_3mapENS_6vectorENS_12basic_stringIcNS_11char_traitsIcEENS1_IcEEEEbxydS1_NS3_14adl_serializerENS6_IhNS1_IhEEEEvEEEEEENS_19__allocation_resultINS_16allocator_traitsIT_E7pointerEEERSJ_m, symObjAddr: 0x8264, symBinAddr: 0x1000097DC, symSize: 0x40 }
  - { offsetInCU: 0x289A9, offset: 0x289A9, size: 0x8, addend: 0x0, symName: __ZNSt3__117__libcpp_allocateB8ue170006Emm, symObjAddr: 0x83E8, symBinAddr: 0x100009960, symSize: 0x60 }
  - { offsetInCU: 0x28A04, offset: 0x28A04, size: 0x8, addend: 0x0, symName: __ZNSt3__121__libcpp_operator_newB8ue170006IJmSt11align_val_tEEEPvDpT_, symObjAddr: 0x8448, symBinAddr: 0x1000099C0, symSize: 0x2C }
  - { offsetInCU: 0x28A51, offset: 0x28A51, size: 0x8, addend: 0x0, symName: __ZNSt3__121__libcpp_operator_newB8ue170006IJmEEEPvDpT_, symObjAddr: 0x8474, symBinAddr: 0x1000099EC, symSize: 0x24 }
  - { offsetInCU: 0x28A8A, offset: 0x28A8A, size: 0x8, addend: 0x0, symName: __ZNSt3__142__uninitialized_allocator_move_if_noexceptB8ue170006INS_9allocatorIN8nlohmann16json_abi_v3_11_310basic_jsonINS_3mapENS_6vectorENS_12basic_stringIcNS_11char_traitsIcEENS1_IcEEEEbxydS1_NS3_14adl_serializerENS6_IhNS1_IhEEEEvEEEENS_16reverse_iteratorIPSF_EESJ_SJ_EET2_RT_T0_T1_SK_, symObjAddr: 0x85C8, symBinAddr: 0x100009B40, symSize: 0x12C }
  - { offsetInCU: 0x28B2B, offset: 0x28B2B, size: 0x8, addend: 0x0, symName: __ZNSt3__14swapB8ue170006IPN8nlohmann16json_abi_v3_11_310basic_jsonINS_3mapENS_6vectorENS_12basic_stringIcNS_11char_traitsIcEENS_9allocatorIcEEEEbxydS9_NS2_14adl_serializerENS5_IhNS9_IhEEEEvEEEENS_9enable_ifIXaasr21is_move_constructibleIT_EE5valuesr18is_move_assignableISI_EE5valueEvE4typeERSI_SL_, symObjAddr: 0x8740, symBinAddr: 0x100009CB8, symSize: 0x3C }
  - { offsetInCU: 0x28B7D, offset: 0x28B7D, size: 0x8, addend: 0x0, symName: __ZNSt3__112__to_addressB8ue170006IN8nlohmann16json_abi_v3_11_310basic_jsonINS_3mapENS_6vectorENS_12basic_stringIcNS_11char_traitsIcEENS_9allocatorIcEEEEbxydS9_NS2_14adl_serializerENS5_IhNS9_IhEEEEvEEEEPT_SH_, symObjAddr: 0x8898, symBinAddr: 0x100009E10, symSize: 0x14 }
  - { offsetInCU: 0x28BB3, offset: 0x28BB3, size: 0x8, addend: 0x0, symName: __ZNSt3__122__make_exception_guardB8ue170006INS_29_AllocatorDestroyRangeReverseINS_9allocatorIN8nlohmann16json_abi_v3_11_310basic_jsonINS_3mapENS_6vectorENS_12basic_stringIcNS_11char_traitsIcEENS2_IcEEEEbxydS2_NS4_14adl_serializerENS7_IhNS2_IhEEEEvEEEENS_16reverse_iteratorIPSG_EEEEEENS_28__exception_guard_exceptionsIT_EESN_, symObjAddr: 0x88AC, symBinAddr: 0x100009E24, symSize: 0x4C }
  - { offsetInCU: 0x28BEA, offset: 0x28BEA, size: 0x8, addend: 0x0, symName: __ZNSt3__1neB8ue170006IPN8nlohmann16json_abi_v3_11_310basic_jsonINS_3mapENS_6vectorENS_12basic_stringIcNS_11char_traitsIcEENS_9allocatorIcEEEEbxydS9_NS2_14adl_serializerENS5_IhNS9_IhEEEEvEESG_EEbRKNS_16reverse_iteratorIT_EERKNSH_IT0_EE, symObjAddr: 0x893C, symBinAddr: 0x100009EB4, symSize: 0x48 }
  - { offsetInCU: 0x28C37, offset: 0x28C37, size: 0x8, addend: 0x0, symName: __ZNSt3__112__to_addressB8ue170006INS_16reverse_iteratorIPN8nlohmann16json_abi_v3_11_310basic_jsonINS_3mapENS_6vectorENS_12basic_stringIcNS_11char_traitsIcEENS_9allocatorIcEEEEbxydSA_NS3_14adl_serializerENS6_IhNSA_IhEEEEvEEEEvEEu7__decayIDTclsr19__to_address_helperIT_EE6__callclsr3stdE7declvalIRKSJ_EEEEESL_, symObjAddr: 0x89B4, symBinAddr: 0x100009F2C, symSize: 0x24 }
  - { offsetInCU: 0x28C95, offset: 0x28C95, size: 0x8, addend: 0x0, symName: __ZNSt3__112construct_atB8ue170006IN8nlohmann16json_abi_v3_11_310basic_jsonINS_3mapENS_6vectorENS_12basic_stringIcNS_11char_traitsIcEENS_9allocatorIcEEEEbxydS9_NS2_14adl_serializerENS5_IhNS9_IhEEEEvEEJSF_EPSF_EEPT_SI_DpOT0_, symObjAddr: 0x8B04, symBinAddr: 0x10000A07C, symSize: 0x3C }
  - { offsetInCU: 0x28D31, offset: 0x28D31, size: 0x8, addend: 0x0, symName: __ZNSt3__14prevB8ue170006IPN8nlohmann16json_abi_v3_11_310basic_jsonINS_3mapENS_6vectorENS_12basic_stringIcNS_11char_traitsIcEENS_9allocatorIcEEEEbxydS9_NS2_14adl_serializerENS5_IhNS9_IhEEEEvEEEENS_9enable_ifIXsr29__has_input_iterator_categoryIT_EE5valueESI_E4typeESI_NS_15iterator_traitsISI_E15difference_typeE, symObjAddr: 0x8BA4, symBinAddr: 0x10000A11C, symSize: 0x3C }
  - { offsetInCU: 0x28D75, offset: 0x28D75, size: 0x8, addend: 0x0, symName: __ZNSt3__121__convert_to_integralB8ue170006El, symObjAddr: 0x8C18, symBinAddr: 0x10000A190, symSize: 0x14 }
  - { offsetInCU: 0x28DA2, offset: 0x28DA2, size: 0x8, addend: 0x0, symName: __ZNSt3__19__advanceB8ue170006IPN8nlohmann16json_abi_v3_11_310basic_jsonINS_3mapENS_6vectorENS_12basic_stringIcNS_11char_traitsIcEENS_9allocatorIcEEEEbxydS9_NS2_14adl_serializerENS5_IhNS9_IhEEEEvEEEEvRT_NS_15iterator_traitsISH_E15difference_typeENS_26random_access_iterator_tagE, symObjAddr: 0x8C2C, symBinAddr: 0x10000A1A4, symSize: 0x28 }
  - { offsetInCU: 0x28DEC, offset: 0x28DEC, size: 0x8, addend: 0x0, symName: __ZNSt3__119__allocator_destroyB8ue170006INS_9allocatorIN8nlohmann16json_abi_v3_11_310basic_jsonINS_3mapENS_6vectorENS_12basic_stringIcNS_11char_traitsIcEENS1_IcEEEEbxydS1_NS3_14adl_serializerENS6_IhNS1_IhEEEEvEEEENS_16reverse_iteratorINSH_IPSF_EEEESK_EEvRT_T0_T1_, symObjAddr: 0x8D58, symBinAddr: 0x10000A2D0, symSize: 0x70 }
  - { offsetInCU: 0x28E52, offset: 0x28E52, size: 0x8, addend: 0x0, symName: __ZNSt3__1neB8ue170006INS_16reverse_iteratorIPN8nlohmann16json_abi_v3_11_310basic_jsonINS_3mapENS_6vectorENS_12basic_stringIcNS_11char_traitsIcEENS_9allocatorIcEEEEbxydSA_NS3_14adl_serializerENS6_IhNSA_IhEEEEvEEEESI_EEbRKNS1_IT_EERKNS1_IT0_EE, symObjAddr: 0x8E04, symBinAddr: 0x10000A37C, symSize: 0x60 }
  - { offsetInCU: 0x28E9F, offset: 0x28E9F, size: 0x8, addend: 0x0, symName: __ZNSt3__112__to_addressB8ue170006INS_16reverse_iteratorINS1_IPN8nlohmann16json_abi_v3_11_310basic_jsonINS_3mapENS_6vectorENS_12basic_stringIcNS_11char_traitsIcEENS_9allocatorIcEEEEbxydSA_NS3_14adl_serializerENS6_IhNSA_IhEEEEvEEEEEEvEEu7__decayIDTclsr19__to_address_helperIT_EE6__callclsr3stdE7declvalIRKSK_EEEEESM_, symObjAddr: 0x8E8C, symBinAddr: 0x10000A404, symSize: 0x24 }
  - { offsetInCU: 0x28ED6, offset: 0x28ED6, size: 0x8, addend: 0x0, symName: __ZNSt3__110destroy_atB8ue170006IN8nlohmann16json_abi_v3_11_310basic_jsonINS_3mapENS_6vectorENS_12basic_stringIcNS_11char_traitsIcEENS_9allocatorIcEEEEbxydS9_NS2_14adl_serializerENS5_IhNS9_IhEEEEvEELi0EEEvPT_, symObjAddr: 0x8F04, symBinAddr: 0x10000A47C, symSize: 0x24 }
  - { offsetInCU: 0x28F0D, offset: 0x28F0D, size: 0x8, addend: 0x0, symName: __ZNSt3__112__destroy_atB8ue170006IN8nlohmann16json_abi_v3_11_310basic_jsonINS_3mapENS_6vectorENS_12basic_stringIcNS_11char_traitsIcEENS_9allocatorIcEEEEbxydS9_NS2_14adl_serializerENS5_IhNS9_IhEEEEvEELi0EEEvPT_, symObjAddr: 0x8F28, symBinAddr: 0x10000A4A0, symSize: 0x24 }
  - { offsetInCU: 0x28F6D, offset: 0x28F6D, size: 0x8, addend: 0x0, symName: __ZNSt3__14prevB8ue170006INS_16reverse_iteratorIPN8nlohmann16json_abi_v3_11_310basic_jsonINS_3mapENS_6vectorENS_12basic_stringIcNS_11char_traitsIcEENS_9allocatorIcEEEEbxydSA_NS3_14adl_serializerENS6_IhNSA_IhEEEEvEEEEEENS_9enable_ifIXsr29__has_input_iterator_categoryIT_EE5valueESK_E4typeESK_NS_15iterator_traitsISK_E15difference_typeE, symObjAddr: 0x8FD0, symBinAddr: 0x10000A548, symSize: 0x4C }
  - { offsetInCU: 0x28FB1, offset: 0x28FB1, size: 0x8, addend: 0x0, symName: __ZNSt3__19__advanceB8ue170006INS_16reverse_iteratorIPN8nlohmann16json_abi_v3_11_310basic_jsonINS_3mapENS_6vectorENS_12basic_stringIcNS_11char_traitsIcEENS_9allocatorIcEEEEbxydSA_NS3_14adl_serializerENS6_IhNSA_IhEEEEvEEEEEEvRT_NS_15iterator_traitsISJ_E15difference_typeENS_26random_access_iterator_tagE, symObjAddr: 0x9054, symBinAddr: 0x10000A5CC, symSize: 0x2C }
  - { offsetInCU: 0x28FFB, offset: 0x28FFB, size: 0x8, addend: 0x0, symName: __ZNSt3__16__moveB8ue170006INS_17_ClassicAlgPolicyENS_11__wrap_iterIPN8nlohmann16json_abi_v3_11_310basic_jsonINS_3mapENS_6vectorENS_12basic_stringIcNS_11char_traitsIcEENS_9allocatorIcEEEEbxydSB_NS4_14adl_serializerENS7_IhNSB_IhEEEEvEEEESJ_NS_20back_insert_iteratorINS7_ISH_NSB_ISH_EEEEEEEENS_4pairIT0_T2_EESP_T1_SQ_, symObjAddr: 0x93A8, symBinAddr: 0x10000A920, symSize: 0x5C }
  - { offsetInCU: 0x29068, offset: 0x29068, size: 0x8, addend: 0x0, symName: __ZNSt3__123__dispatch_copy_or_moveB8ue170006INS_17_ClassicAlgPolicyENS_11__move_loopIS1_EENS_14__move_trivialENS_11__wrap_iterIPN8nlohmann16json_abi_v3_11_310basic_jsonINS_3mapENS_6vectorENS_12basic_stringIcNS_11char_traitsIcEENS_9allocatorIcEEEEbxydSE_NS7_14adl_serializerENSA_IhNSE_IhEEEEvEEEESM_NS_20back_insert_iteratorINSA_ISK_NSE_ISK_EEEEEEEENS_4pairIT2_T4_EESS_T3_ST_, symObjAddr: 0x9404, symBinAddr: 0x10000A97C, symSize: 0x5C }
  - { offsetInCU: 0x290E7, offset: 0x290E7, size: 0x8, addend: 0x0, symName: __ZNSt3__121__unwrap_and_dispatchB8ue170006INS_10__overloadINS_11__move_loopINS_17_ClassicAlgPolicyEEENS_14__move_trivialEEENS_11__wrap_iterIPN8nlohmann16json_abi_v3_11_310basic_jsonINS_3mapENS_6vectorENS_12basic_stringIcNS_11char_traitsIcEENS_9allocatorIcEEEEbxydSG_NS9_14adl_serializerENSC_IhNSG_IhEEEEvEEEESO_NS_20back_insert_iteratorINSC_ISM_NSG_ISM_EEEEEELi0EEENS_4pairIT0_T2_EESU_T1_SV_, symObjAddr: 0x9460, symBinAddr: 0x10000A9D8, symSize: 0xE8 }
  - { offsetInCU: 0x29177, offset: 0x29177, size: 0x8, addend: 0x0, symName: __ZNSt3__114__unwrap_rangeB8ue170006INS_11__wrap_iterIPN8nlohmann16json_abi_v3_11_310basic_jsonINS_3mapENS_6vectorENS_12basic_stringIcNS_11char_traitsIcEENS_9allocatorIcEEEEbxydSA_NS3_14adl_serializerENS6_IhNSA_IhEEEEvEEEESI_EEDaT_T0_, symObjAddr: 0x9548, symBinAddr: 0x10000AAC0, symSize: 0x4C }
  - { offsetInCU: 0x293B0, offset: 0x293B0, size: 0x8, addend: 0x0, symName: __ZNSt3__113__unwrap_iterB8ue170006INS_20back_insert_iteratorINS_6vectorIN8nlohmann16json_abi_v3_11_310basic_jsonINS_3mapES2_NS_12basic_stringIcNS_11char_traitsIcEENS_9allocatorIcEEEEbxydSA_NS4_14adl_serializerENS2_IhNSA_IhEEEEvEENSA_ISG_EEEEEENS_18__unwrap_iter_implISJ_Lb0EEELi0EEEDTclsrT0_8__unwrapclsr3stdE7declvalIT_EEEESN_, symObjAddr: 0x962C, symBinAddr: 0x10000ABA4, symSize: 0x34 }
  - { offsetInCU: 0x293F4, offset: 0x293F4, size: 0x8, addend: 0x0, symName: __ZNSt3__19make_pairB8ue170006INS_11__wrap_iterIPN8nlohmann16json_abi_v3_11_310basic_jsonINS_3mapENS_6vectorENS_12basic_stringIcNS_11char_traitsIcEENS_9allocatorIcEEEEbxydSA_NS3_14adl_serializerENS6_IhNSA_IhEEEEvEEEENS_20back_insert_iteratorINS6_ISG_NSA_ISG_EEEEEEEENS_4pairINS_18__unwrap_ref_decayIT_E4typeENSO_IT0_E4typeEEEOSP_OSS_, symObjAddr: 0x9660, symBinAddr: 0x10000ABD8, symSize: 0x38 }
  - { offsetInCU: 0x29444, offset: 0x29444, size: 0x8, addend: 0x0, symName: __ZNSt3__114__rewrap_rangeB8ue170006INS_11__wrap_iterIPN8nlohmann16json_abi_v3_11_310basic_jsonINS_3mapENS_6vectorENS_12basic_stringIcNS_11char_traitsIcEENS_9allocatorIcEEEEbxydSA_NS3_14adl_serializerENS6_IhNSA_IhEEEEvEEEESI_SH_EET0_SJ_T1_, symObjAddr: 0x9698, symBinAddr: 0x10000AC10, symSize: 0x3C }
  - { offsetInCU: 0x2949A, offset: 0x2949A, size: 0x8, addend: 0x0, symName: __ZNSt3__113__rewrap_iterB8ue170006INS_20back_insert_iteratorINS_6vectorIN8nlohmann16json_abi_v3_11_310basic_jsonINS_3mapES2_NS_12basic_stringIcNS_11char_traitsIcEENS_9allocatorIcEEEEbxydSA_NS4_14adl_serializerENS2_IhNSA_IhEEEEvEENSA_ISG_EEEEEESJ_NS_18__unwrap_iter_implISJ_Lb0EEEEET_SM_T0_, symObjAddr: 0x96D4, symBinAddr: 0x10000AC4C, symSize: 0x54 }
  - { offsetInCU: 0x2960C, offset: 0x2960C, size: 0x8, addend: 0x0, symName: __ZNSt3__113__unwrap_iterB8ue170006INS_11__wrap_iterIPN8nlohmann16json_abi_v3_11_310basic_jsonINS_3mapENS_6vectorENS_12basic_stringIcNS_11char_traitsIcEENS_9allocatorIcEEEEbxydSA_NS3_14adl_serializerENS6_IhNSA_IhEEEEvEEEENS_18__unwrap_iter_implISI_Lb1EEELi0EEEDTclsrT0_8__unwrapclsr3stdE7declvalIT_EEEESM_, symObjAddr: 0x9790, symBinAddr: 0x10000AD08, symSize: 0x2C }
  - { offsetInCU: 0x296A4, offset: 0x296A4, size: 0x8, addend: 0x0, symName: __ZNSt3__112__to_addressB8ue170006INS_11__wrap_iterIPN8nlohmann16json_abi_v3_11_310basic_jsonINS_3mapENS_6vectorENS_12basic_stringIcNS_11char_traitsIcEENS_9allocatorIcEEEEbxydSA_NS3_14adl_serializerENS6_IhNSA_IhEEEEvEEEEvEEu7__decayIDTclsr19__to_address_helperIT_EE6__callclsr3stdE7declvalIRKSJ_EEEEESL_, symObjAddr: 0x9820, symBinAddr: 0x10000AD98, symSize: 0x24 }
  - { offsetInCU: 0x29811, offset: 0x29811, size: 0x8, addend: 0x0, symName: __ZNSt3__19make_pairB8ue170006IPN8nlohmann16json_abi_v3_11_310basic_jsonINS_3mapENS_6vectorENS_12basic_stringIcNS_11char_traitsIcEENS_9allocatorIcEEEEbxydS9_NS2_14adl_serializerENS5_IhNS9_IhEEEEvEENS_20back_insert_iteratorINS5_ISF_NS9_ISF_EEEEEEEENS_4pairINS_18__unwrap_ref_decayIT_E4typeENSM_IT0_E4typeEEEOSN_OSQ_, symObjAddr: 0x9974, symBinAddr: 0x10000AEEC, symSize: 0x38 }
  - { offsetInCU: 0x2997D, offset: 0x2997D, size: 0x8, addend: 0x0, symName: __ZNSt3__113__rewrap_iterB8ue170006INS_11__wrap_iterIPN8nlohmann16json_abi_v3_11_310basic_jsonINS_3mapENS_6vectorENS_12basic_stringIcNS_11char_traitsIcEENS_9allocatorIcEEEEbxydSA_NS3_14adl_serializerENS6_IhNSA_IhEEEEvEEEESH_NS_18__unwrap_iter_implISI_Lb1EEEEET_SL_T0_, symObjAddr: 0x9AE8, symBinAddr: 0x10000B060, symSize: 0x4C }
  - { offsetInCU: 0x29A05, offset: 0x29A05, size: 0x8, addend: 0x0, symName: __ZNSt3__1neB8ue170006ERKNS_15__tree_iteratorINS_12__value_typeINS_12basic_stringIcNS_11char_traitsIcEENS_9allocatorIcEEEEN8nlohmann16json_abi_v3_11_310basic_jsonINS_3mapENS_6vectorES7_bxydS5_NS9_14adl_serializerENSC_IhNS5_IhEEEEvEEEEPNS_11__tree_nodeISH_PvEElEESO_, symObjAddr: 0x9ED4, symBinAddr: 0x10000B44C, symSize: 0x34 }
  - { offsetInCU: 0x29A42, offset: 0x29A42, size: 0x8, addend: 0x0, symName: __ZNSt3__1eqB8ue170006ERKNS_15__tree_iteratorINS_12__value_typeINS_12basic_stringIcNS_11char_traitsIcEENS_9allocatorIcEEEEN8nlohmann16json_abi_v3_11_310basic_jsonINS_3mapENS_6vectorES7_bxydS5_NS9_14adl_serializerENSC_IhNS5_IhEEEEvEEEEPNS_11__tree_nodeISH_PvEElEESO_, symObjAddr: 0x9F08, symBinAddr: 0x10000B480, symSize: 0x30 }
  - { offsetInCU: 0x29AB2, offset: 0x29AB2, size: 0x8, addend: 0x0, symName: __ZNSt3__17launderB8ue170006INS_4pairIKNS_12basic_stringIcNS_11char_traitsIcEENS_9allocatorIcEEEEN8nlohmann16json_abi_v3_11_310basic_jsonINS_3mapENS_6vectorES7_bxydS5_NSA_14adl_serializerENSD_IhNS5_IhEEEEvEEEEEEPT_SK_, symObjAddr: 0x9FB4, symBinAddr: 0x10000B52C, symSize: 0x24 }
  - { offsetInCU: 0x29AE9, offset: 0x29AE9, size: 0x8, addend: 0x0, symName: __ZNSt3__19__launderB8ue170006INS_4pairIKNS_12basic_stringIcNS_11char_traitsIcEENS_9allocatorIcEEEEN8nlohmann16json_abi_v3_11_310basic_jsonINS_3mapENS_6vectorES7_bxydS5_NSA_14adl_serializerENSD_IhNS5_IhEEEEvEEEEEEPT_SK_, symObjAddr: 0x9FD8, symBinAddr: 0x10000B550, symSize: 0x14 }
  - { offsetInCU: 0x29B21, offset: 0x29B21, size: 0x8, addend: 0x0, symName: __ZNSt3__13maxB8ue170006ImEERKT_S3_S3_, symObjAddr: 0xA2D4, symBinAddr: 0x10000B84C, symSize: 0x2C }
  - { offsetInCU: 0x29B65, offset: 0x29B65, size: 0x8, addend: 0x0, symName: __ZNSt3__13maxB8ue170006ImNS_6__lessIvvEEEERKT_S5_S5_T0_, symObjAddr: 0xA300, symBinAddr: 0x10000B878, symSize: 0x54 }
  - { offsetInCU: 0x29BC0, offset: 0x29BC0, size: 0x8, addend: 0x0, symName: __ZNSt3__116__tree_next_iterB8ue170006IPNS_15__tree_end_nodeIPNS_16__tree_node_baseIPvEEEES5_EET_T0_, symObjAddr: 0xA38C, symBinAddr: 0x10000B904, symSize: 0x90 }
  - { offsetInCU: 0x29BFF, offset: 0x29BFF, size: 0x8, addend: 0x0, symName: __ZNSt3__110__tree_minB8ue170006IPNS_16__tree_node_baseIPvEEEET_S5_, symObjAddr: 0xA41C, symBinAddr: 0x10000B994, symSize: 0x40 }
  - { offsetInCU: 0x29C35, offset: 0x29C35, size: 0x8, addend: 0x0, symName: __ZNSt3__120__tree_is_left_childB8ue170006IPNS_16__tree_node_baseIPvEEEEbT_, symObjAddr: 0xA45C, symBinAddr: 0x10000B9D4, symSize: 0x2C }
  - { offsetInCU: 0x29C6B, offset: 0x29C6B, size: 0x8, addend: 0x0, symName: __ZNSt3__110destroy_atB8ue170006INS_4pairIKNS_12basic_stringIcNS_11char_traitsIcEENS_9allocatorIcEEEEN8nlohmann16json_abi_v3_11_310basic_jsonINS_3mapENS_6vectorES7_bxydS5_NSA_14adl_serializerENSD_IhNS5_IhEEEEvEEEELi0EEEvPT_, symObjAddr: 0xA934, symBinAddr: 0x10000BEAC, symSize: 0x24 }
  - { offsetInCU: 0x29CA2, offset: 0x29CA2, size: 0x8, addend: 0x0, symName: __ZNSt3__112__destroy_atB8ue170006INS_4pairIKNS_12basic_stringIcNS_11char_traitsIcEENS_9allocatorIcEEEEN8nlohmann16json_abi_v3_11_310basic_jsonINS_3mapENS_6vectorES7_bxydS5_NSA_14adl_serializerENSD_IhNS5_IhEEEEvEEEELi0EEEvPT_, symObjAddr: 0xA958, symBinAddr: 0x10000BED0, symSize: 0x24 }
  - { offsetInCU: 0x29CD9, offset: 0x29CD9, size: 0x8, addend: 0x0, symName: __ZNSt3__110destroy_atB8ue170006INS_3mapINS_12basic_stringIcNS_11char_traitsIcEENS_9allocatorIcEEEEN8nlohmann16json_abi_v3_11_310basic_jsonIS1_NS_6vectorES7_bxydS5_NS9_14adl_serializerENSB_IhNS5_IhEEEEvEENS_4lessIvEENS5_INS_4pairIKS7_SF_EEEEEELi0EEEvPT_, symObjAddr: 0xAC14, symBinAddr: 0x10000C18C, symSize: 0x24 }
  - { offsetInCU: 0x29D10, offset: 0x29D10, size: 0x8, addend: 0x0, symName: __ZNSt3__112__destroy_atB8ue170006INS_3mapINS_12basic_stringIcNS_11char_traitsIcEENS_9allocatorIcEEEEN8nlohmann16json_abi_v3_11_310basic_jsonIS1_NS_6vectorES7_bxydS5_NS9_14adl_serializerENSB_IhNS5_IhEEEEvEENS_4lessIvEENS5_INS_4pairIKS7_SF_EEEEEELi0EEEvPT_, symObjAddr: 0xAC38, symBinAddr: 0x10000C1B0, symSize: 0x24 }
  - { offsetInCU: 0x29D47, offset: 0x29D47, size: 0x8, addend: 0x0, symName: __ZNSt3__110destroy_atB8ue170006INS_6vectorIN8nlohmann16json_abi_v3_11_310basic_jsonINS_3mapES1_NS_12basic_stringIcNS_11char_traitsIcEENS_9allocatorIcEEEEbxydS9_NS3_14adl_serializerENS1_IhNS9_IhEEEEvEENS9_ISF_EEEELi0EEEvPT_, symObjAddr: 0xAD9C, symBinAddr: 0x10000C314, symSize: 0x24 }
  - { offsetInCU: 0x29D7E, offset: 0x29D7E, size: 0x8, addend: 0x0, symName: __ZNSt3__112__destroy_atB8ue170006INS_6vectorIN8nlohmann16json_abi_v3_11_310basic_jsonINS_3mapES1_NS_12basic_stringIcNS_11char_traitsIcEENS_9allocatorIcEEEEbxydS9_NS3_14adl_serializerENS1_IhNS9_IhEEEEvEENS9_ISF_EEEELi0EEEvPT_, symObjAddr: 0xADC0, symBinAddr: 0x10000C338, symSize: 0x24 }
  - { offsetInCU: 0x29DB5, offset: 0x29DB5, size: 0x8, addend: 0x0, symName: __ZNSt3__110destroy_atB8ue170006IN8nlohmann16json_abi_v3_11_327byte_container_with_subtypeINS_6vectorIhNS_9allocatorIhEEEEEELi0EEEvPT_, symObjAddr: 0xAEEC, symBinAddr: 0x10000C464, symSize: 0x24 }
  - { offsetInCU: 0x29DEC, offset: 0x29DEC, size: 0x8, addend: 0x0, symName: __ZNSt3__112__destroy_atB8ue170006IN8nlohmann16json_abi_v3_11_327byte_container_with_subtypeINS_6vectorIhNS_9allocatorIhEEEEEELi0EEEvPT_, symObjAddr: 0xAF10, symBinAddr: 0x10000C488, symSize: 0x24 }
  - { offsetInCU: 0x29E23, offset: 0x29E23, size: 0x8, addend: 0x0, symName: __ZNSt3__112__to_addressB8ue170006IhEEPT_S2_, symObjAddr: 0xB2DC, symBinAddr: 0x10000C854, symSize: 0x14 }
  - { offsetInCU: 0x29E59, offset: 0x29E59, size: 0x8, addend: 0x0, symName: __ZNSt3__110destroy_atB8ue170006IhLi0EEEvPT_, symObjAddr: 0xB2F0, symBinAddr: 0x10000C868, symSize: 0x24 }
  - { offsetInCU: 0x29E90, offset: 0x29E90, size: 0x8, addend: 0x0, symName: __ZNSt3__112__destroy_atB8ue170006IhLi0EEEvPT_, symObjAddr: 0xB314, symBinAddr: 0x10000C88C, symSize: 0x10 }
  - { offsetInCU: 0x29F0D, offset: 0x29F0D, size: 0x8, addend: 0x0, symName: __ZNSt3__112construct_atB8ue170006INS_4listI11TransactionNS_9allocatorIS2_EEEEJS5_EPS5_EEPT_S8_DpOT0_, symObjAddr: 0xBDF4, symBinAddr: 0x10000D36C, symSize: 0x3C }
  - { offsetInCU: 0x29FC5, offset: 0x29FC5, size: 0x8, addend: 0x0, symName: __ZNSt3__112construct_atB8ue170006I11TransactionJRKS1_EPS1_EEPT_S6_DpOT0_, symObjAddr: 0xC710, symBinAddr: 0x10000DC88, symSize: 0x3C }
  - { offsetInCU: 0x2A037, offset: 0x2A037, size: 0x8, addend: 0x0, symName: __ZNSt3__1eqB8ue170006ERKNS_15__list_iteratorINS_12basic_stringIcNS_11char_traitsIcEENS_9allocatorIcEEEEPvEESA_, symObjAddr: 0xC900, symBinAddr: 0x10000DE78, symSize: 0x30 }
  - { offsetInCU: 0x2A074, offset: 0x2A074, size: 0x8, addend: 0x0, symName: __ZNSt3__116__pad_and_outputB8ue170006IcNS_11char_traitsIcEEEENS_19ostreambuf_iteratorIT_T0_EES6_PKS4_S8_S8_RNS_8ios_baseES4_, symObjAddr: 0xCB58, symBinAddr: 0x10000E0D0, symSize: 0x240 }
  - { offsetInCU: 0x2A145, offset: 0x2A145, size: 0x8, addend: 0x0, symName: __ZNSt3__112__to_addressB8ue170006IcEEPT_S2_, symObjAddr: 0xCFC8, symBinAddr: 0x10000E540, symSize: 0x14 }
  - { offsetInCU: 0x2A17B, offset: 0x2A17B, size: 0x8, addend: 0x0, symName: __ZNSt3__19use_facetB8ue170006INS_5ctypeIcEEEERKT_RKNS_6localeE, symObjAddr: 0xD120, symBinAddr: 0x10000E698, symSize: 0x2C }
  - { offsetInCU: 0x2A6C1, offset: 0x2A6C1, size: 0x8, addend: 0x0, symName: __ZNSt3__112construct_atB8ue170006INS_12basic_stringIcNS_11char_traitsIcEENS_9allocatorIcEEEEJRKS6_EPS6_EEPT_SB_DpOT0_, symObjAddr: 0xD7F4, symBinAddr: 0x10000ED6C, symSize: 0x3C }
  - { offsetInCU: 0x2AB32, offset: 0x2AB32, size: 0x8, addend: 0x0, symName: __ZNSt3__1eqB8ue170006INS_3mapINS_12basic_stringIcNS_11char_traitsIcEENS_9allocatorIcEEEEN8nlohmann16json_abi_v3_11_310basic_jsonIS1_NS_6vectorES7_bxydS5_NS9_14adl_serializerENSB_IhNS5_IhEEEEvEENS_4lessIvEENS5_INS_4pairIKS7_SF_EEEEEEZNSF_6createISM_JEEEPT_DpOT0_EUlPSM_E_EEbRKNS_10unique_ptrISO_T0_EEDn, symObjAddr: 0xE420, symBinAddr: 0x10000F998, symSize: 0x30 }
  - { offsetInCU: 0x2ABA5, offset: 0x2ABA5, size: 0x8, addend: 0x0, symName: __ZNSt3__112construct_atB8ue170006INS_3mapINS_12basic_stringIcNS_11char_traitsIcEENS_9allocatorIcEEEEN8nlohmann16json_abi_v3_11_310basic_jsonIS1_NS_6vectorES7_bxydS5_NS9_14adl_serializerENSB_IhNS5_IhEEEEvEENS_4lessIvEENS5_INS_4pairIKS7_SF_EEEEEEJEPSM_EEPT_SP_DpOT0_, symObjAddr: 0xE658, symBinAddr: 0x10000FBD0, symSize: 0x34 }
  - { offsetInCU: 0x2B002, offset: 0x2B002, size: 0x8, addend: 0x0, symName: __ZNSt3__1eqB8ue170006INS_6vectorIN8nlohmann16json_abi_v3_11_310basic_jsonINS_3mapES1_NS_12basic_stringIcNS_11char_traitsIcEENS_9allocatorIcEEEEbxydS9_NS3_14adl_serializerENS1_IhNS9_IhEEEEvEENS9_ISF_EEEEZNSF_6createISH_JEEEPT_DpOT0_EUlPSH_E_EEbRKNS_10unique_ptrISJ_T0_EEDn, symObjAddr: 0xEC38, symBinAddr: 0x1000101B0, symSize: 0x30 }
  - { offsetInCU: 0x2B075, offset: 0x2B075, size: 0x8, addend: 0x0, symName: __ZNSt3__112construct_atB8ue170006INS_6vectorIN8nlohmann16json_abi_v3_11_310basic_jsonINS_3mapES1_NS_12basic_stringIcNS_11char_traitsIcEENS_9allocatorIcEEEEbxydS9_NS3_14adl_serializerENS1_IhNS9_IhEEEEvEENS9_ISF_EEEEJEPSH_EEPT_SK_DpOT0_, symObjAddr: 0xEE70, symBinAddr: 0x1000103E8, symSize: 0x34 }
  - { offsetInCU: 0x2B41E, offset: 0x2B41E, size: 0x8, addend: 0x0, symName: __ZNSt3__1eqB8ue170006INS_12basic_stringIcNS_11char_traitsIcEENS_9allocatorIcEEEEZN8nlohmann16json_abi_v3_11_310basic_jsonINS_3mapENS_6vectorES6_bxydS4_NS8_14adl_serializerENSB_IhNS4_IhEEEEvE6createIS6_JRA1_KcEEEPT_DpOT0_EUlPS6_E_EEbRKNS_10unique_ptrISK_T0_EEDn, symObjAddr: 0xF128, symBinAddr: 0x1000106A0, symSize: 0x30 }
  - { offsetInCU: 0x2B46A, offset: 0x2B46A, size: 0x8, addend: 0x0, symName: __ZNSt3__112construct_atB8ue170006INS_12basic_stringIcNS_11char_traitsIcEENS_9allocatorIcEEEEJRA1_KcEPS6_EEPT_SC_DpOT0_, symObjAddr: 0xF360, symBinAddr: 0x1000108D8, symSize: 0x3C }
  - { offsetInCU: 0x2B8DB, offset: 0x2B8DB, size: 0x8, addend: 0x0, symName: __ZNSt3__1eqB8ue170006IN8nlohmann16json_abi_v3_11_327byte_container_with_subtypeINS_6vectorIhNS_9allocatorIhEEEEEEZNS2_10basic_jsonINS_3mapES4_NS_12basic_stringIcNS_11char_traitsIcEENS5_IcEEEEbxydS5_NS2_14adl_serializerES7_vE6createIS8_JEEEPT_DpOT0_EUlPS8_E_EEbRKNS_10unique_ptrISJ_T0_EEDn, symObjAddr: 0xF618, symBinAddr: 0x100010B90, symSize: 0x30 }
  - { offsetInCU: 0x2B94E, offset: 0x2B94E, size: 0x8, addend: 0x0, symName: __ZNSt3__112construct_atB8ue170006IN8nlohmann16json_abi_v3_11_327byte_container_with_subtypeINS_6vectorIhNS_9allocatorIhEEEEEEJEPS8_EEPT_SB_DpOT0_, symObjAddr: 0xF850, symBinAddr: 0x100010DC8, symSize: 0x34 }
  - { offsetInCU: 0x2BF64, offset: 0x2BF64, size: 0x8, addend: 0x0, symName: __ZNSt3__112construct_atB8ue170006IcJcEPcEEPT_S3_DpOT0_, symObjAddr: 0x13C50, symBinAddr: 0x1000151C8, symSize: 0x2C }
  - { offsetInCU: 0x2BFD7, offset: 0x2BFD7, size: 0x8, addend: 0x0, symName: __ZNSt3__119__allocate_at_leastB8ue170006INS_9allocatorIcEEEENS_19__allocation_resultINS_16allocator_traitsIT_E7pointerEEERS5_m, symObjAddr: 0x141D4, symBinAddr: 0x10001574C, symSize: 0x40 }
  - { offsetInCU: 0x2C01A, offset: 0x2C01A, size: 0x8, addend: 0x0, symName: __ZNSt3__142__uninitialized_allocator_move_if_noexceptB8ue170006INS_9allocatorIcEENS_16reverse_iteratorIPcEES5_cvEET1_RT_T0_S9_S6_, symObjAddr: 0x14440, symBinAddr: 0x1000159B8, symSize: 0x78 }
  - { offsetInCU: 0x2C098, offset: 0x2C098, size: 0x8, addend: 0x0, symName: __ZNSt3__14swapB8ue170006IPcEENS_9enable_ifIXaasr21is_move_constructibleIT_EE5valuesr18is_move_assignableIS3_EE5valueEvE4typeERS3_S6_, symObjAddr: 0x14504, symBinAddr: 0x100015A7C, symSize: 0x3C }
  - { offsetInCU: 0x2C0EA, offset: 0x2C0EA, size: 0x8, addend: 0x0, symName: __ZNSt3__14moveB8ue170006INS_16reverse_iteratorIPcEES3_EET0_T_S5_S4_, symObjAddr: 0x14634, symBinAddr: 0x100015BAC, symSize: 0x78 }
  - { offsetInCU: 0x2C145, offset: 0x2C145, size: 0x8, addend: 0x0, symName: __ZNSt3__16__moveB8ue170006INS_17_ClassicAlgPolicyENS_16reverse_iteratorIPcEES4_S4_EENS_4pairIT0_T2_EES6_T1_S7_, symObjAddr: 0x146AC, symBinAddr: 0x100015C24, symSize: 0x64 }
  - { offsetInCU: 0x2C1B2, offset: 0x2C1B2, size: 0x8, addend: 0x0, symName: __ZNSt3__123__dispatch_copy_or_moveB8ue170006INS_17_ClassicAlgPolicyENS_11__move_loopIS1_EENS_14__move_trivialENS_16reverse_iteratorIPcEES7_S7_EENS_4pairIT2_T4_EES9_T3_SA_, symObjAddr: 0x14710, symBinAddr: 0x100015C88, symSize: 0x64 }
  - { offsetInCU: 0x2C231, offset: 0x2C231, size: 0x8, addend: 0x0, symName: __ZNSt3__121__unwrap_and_dispatchB8ue170006INS_10__overloadINS_11__move_loopINS_17_ClassicAlgPolicyEEENS_14__move_trivialEEENS_16reverse_iteratorIPcEES9_S9_Li0EEENS_4pairIT0_T2_EESB_T1_SC_, symObjAddr: 0x14774, symBinAddr: 0x100015CEC, symSize: 0x12C }
  - { offsetInCU: 0x2C2C2, offset: 0x2C2C2, size: 0x8, addend: 0x0, symName: __ZNSt3__114__unwrap_rangeB8ue170006INS_16reverse_iteratorIPcEES3_EEDaT_T0_, symObjAddr: 0x148A0, symBinAddr: 0x100015E18, symSize: 0x4C }
  - { offsetInCU: 0x2C3E3, offset: 0x2C3E3, size: 0x8, addend: 0x0, symName: __ZNSt3__113__unwrap_iterB8ue170006INS_16reverse_iteratorIPcEENS_18__unwrap_iter_implIS3_Lb0EEELi0EEEDTclsrT0_8__unwrapclsr3stdE7declvalIT_EEEES7_, symObjAddr: 0x1498C, symBinAddr: 0x100015F04, symSize: 0x44 }
  - { offsetInCU: 0x2C427, offset: 0x2C427, size: 0x8, addend: 0x0, symName: __ZNSt3__19make_pairB8ue170006INS_16reverse_iteratorIPcEES3_EENS_4pairINS_18__unwrap_ref_decayIT_E4typeENS5_IT0_E4typeEEEOS6_OS9_, symObjAddr: 0x149D0, symBinAddr: 0x100015F48, symSize: 0x38 }
  - { offsetInCU: 0x2C477, offset: 0x2C477, size: 0x8, addend: 0x0, symName: __ZNSt3__114__rewrap_rangeB8ue170006INS_16reverse_iteratorIPcEES3_S3_EET0_S4_T1_, symObjAddr: 0x14A08, symBinAddr: 0x100015F80, symSize: 0x5C }
  - { offsetInCU: 0x2C4CD, offset: 0x2C4CD, size: 0x8, addend: 0x0, symName: __ZNSt3__113__rewrap_iterB8ue170006INS_16reverse_iteratorIPcEES3_NS_18__unwrap_iter_implIS3_Lb0EEEEET_S6_T0_, symObjAddr: 0x14A64, symBinAddr: 0x100015FDC, symSize: 0x74 }
  - { offsetInCU: 0x2C573, offset: 0x2C573, size: 0x8, addend: 0x0, symName: __ZNSt3__1neB8ue170006IPcS1_EEbRKNS_16reverse_iteratorIT_EERKNS2_IT0_EE, symObjAddr: 0x14BCC, symBinAddr: 0x100016144, symSize: 0x48 }
  - { offsetInCU: 0x2C62C, offset: 0x2C62C, size: 0x8, addend: 0x0, symName: __ZNSt3__110destroy_atB8ue170006IcLi0EEEvPT_, symObjAddr: 0x14F50, symBinAddr: 0x1000164C8, symSize: 0x24 }
  - { offsetInCU: 0x2C663, offset: 0x2C663, size: 0x8, addend: 0x0, symName: __ZNSt3__112__destroy_atB8ue170006IcLi0EEEvPT_, symObjAddr: 0x14F74, symBinAddr: 0x1000164EC, symSize: 0x10 }
  - { offsetInCU: 0x2C69B, offset: 0x2C69B, size: 0x8, addend: 0x0, symName: __ZNSt3__119__allocate_at_leastB8ue170006INS_9allocatorImEEEENS_19__allocation_resultINS_16allocator_traitsIT_E7pointerEEERS5_m, symObjAddr: 0x1A134, symBinAddr: 0x10001B6AC, symSize: 0x40 }
  - { offsetInCU: 0x2C6DF, offset: 0x2C6DF, size: 0x8, addend: 0x0, symName: __ZNSt3__16__copyB8ue170006INS_17_ClassicAlgPolicyENS_14__bit_iteratorINS_6vectorIbNS_9allocatorIbEEEELb0ELm0EEES7_S7_EENS_4pairIT0_T2_EES9_T1_SA_, symObjAddr: 0x1A29C, symBinAddr: 0x10001B814, symSize: 0x88 }
  - { offsetInCU: 0x2C74F, offset: 0x2C74F, size: 0x8, addend: 0x0, symName: __ZNSt3__123__dispatch_copy_or_moveB8ue170006INS_17_ClassicAlgPolicyENS_11__copy_loopIS1_EENS_14__copy_trivialENS_14__bit_iteratorINS_6vectorIbNS_9allocatorIbEEEELb0ELm0EEESA_SA_EENS_4pairIT2_T4_EESC_T3_SD_, symObjAddr: 0x1A3BC, symBinAddr: 0x10001B934, symSize: 0x88 }
  - { offsetInCU: 0x2C7D1, offset: 0x2C7D1, size: 0x8, addend: 0x0, symName: __ZNSt3__121__unwrap_and_dispatchB8ue170006INS_10__overloadINS_11__copy_loopINS_17_ClassicAlgPolicyEEENS_14__copy_trivialEEENS_14__bit_iteratorINS_6vectorIbNS_9allocatorIbEEEELb0ELm0EEESC_SC_Li0EEENS_4pairIT0_T2_EESE_T1_SF_, symObjAddr: 0x1A444, symBinAddr: 0x10001B9BC, symSize: 0x15C }
  - { offsetInCU: 0x2C865, offset: 0x2C865, size: 0x8, addend: 0x0, symName: __ZNSt3__114__unwrap_rangeB8ue170006INS_14__bit_iteratorINS_6vectorIbNS_9allocatorIbEEEELb0ELm0EEES6_EEDaT_T0_, symObjAddr: 0x1A5A0, symBinAddr: 0x10001BB18, symSize: 0x6C }
  - { offsetInCU: 0x2C9DA, offset: 0x2C9DA, size: 0x8, addend: 0x0, symName: __ZNSt3__113__unwrap_iterB8ue170006INS_14__bit_iteratorINS_6vectorIbNS_9allocatorIbEEEELb0ELm0EEENS_18__unwrap_iter_implIS6_Lb0EEELi0EEEDTclsrT0_8__unwrapclsr3stdE7declvalIT_EEEESA_, symObjAddr: 0x1A6C4, symBinAddr: 0x10001BC3C, symSize: 0x44 }
  - { offsetInCU: 0x2CA1F, offset: 0x2CA1F, size: 0x8, addend: 0x0, symName: __ZNSt3__19make_pairB8ue170006INS_14__bit_iteratorINS_6vectorIbNS_9allocatorIbEEEELb0ELm0EEES6_EENS_4pairINS_18__unwrap_ref_decayIT_E4typeENS8_IT0_E4typeEEEOS9_OSC_, symObjAddr: 0x1A708, symBinAddr: 0x10001BC80, symSize: 0x40 }
  - { offsetInCU: 0x2CA6F, offset: 0x2CA6F, size: 0x8, addend: 0x0, symName: __ZNSt3__114__rewrap_rangeB8ue170006INS_14__bit_iteratorINS_6vectorIbNS_9allocatorIbEEEELb0ELm0EEES6_S6_EET0_S7_T1_, symObjAddr: 0x1A748, symBinAddr: 0x10001BCC0, symSize: 0x6C }
  - { offsetInCU: 0x2CAC7, offset: 0x2CAC7, size: 0x8, addend: 0x0, symName: __ZNSt3__113__rewrap_iterB8ue170006INS_14__bit_iteratorINS_6vectorIbNS_9allocatorIbEEEELb0ELm0EEES6_NS_18__unwrap_iter_implIS6_Lb0EEEEET_S9_T0_, symObjAddr: 0x1A7B4, symBinAddr: 0x10001BD2C, symSize: 0x74 }
  - { offsetInCU: 0x2CB6E, offset: 0x2CB6E, size: 0x8, addend: 0x0, symName: __ZNSt3__1neB8ue170006ERKNS_14__bit_iteratorINS_6vectorIbNS_9allocatorIbEEEELb0ELm0EEES7_, symObjAddr: 0x1A938, symBinAddr: 0x10001BEB0, symSize: 0x34 }
  - { offsetInCU: 0x2CBAB, offset: 0x2CBAB, size: 0x8, addend: 0x0, symName: __ZNSt3__1eqB8ue170006ERKNS_14__bit_iteratorINS_6vectorIbNS_9allocatorIbEEEELb0ELm0EEES7_, symObjAddr: 0x1AA4C, symBinAddr: 0x10001BFC4, symSize: 0x64 }
  - { offsetInCU: 0x2CC31, offset: 0x2CC31, size: 0x8, addend: 0x0, symName: __ZNSt3__14swapB8ue170006IPmEENS_9enable_ifIXaasr21is_move_constructibleIT_EE5valuesr18is_move_assignableIS3_EE5valueEvE4typeERS3_S6_, symObjAddr: 0x1ACBC, symBinAddr: 0x10001C234, symSize: 0x3C }
  - { offsetInCU: 0x2CC83, offset: 0x2CC83, size: 0x8, addend: 0x0, symName: __ZNSt3__14swapB8ue170006ImEENS_9enable_ifIXaasr21is_move_constructibleIT_EE5valuesr18is_move_assignableIS2_EE5valueEvE4typeERS2_S5_, symObjAddr: 0x1ACF8, symBinAddr: 0x10001C270, symSize: 0x3C }
  - { offsetInCU: 0x2CCD5, offset: 0x2CCD5, size: 0x8, addend: 0x0, symName: __ZNSt3__116__swap_allocatorB8ue170006INS_9allocatorImEEEEvRT_S4_NS_17integral_constantIbLb0EEE, symObjAddr: 0x1AD34, symBinAddr: 0x10001C2AC, symSize: 0x14 }
  - { offsetInCU: 0x2CD1A, offset: 0x2CD1A, size: 0x8, addend: 0x0, symName: __ZNSt3__112__to_addressB8ue170006IPN8nlohmann16json_abi_v3_11_310basic_jsonINS_3mapENS_6vectorENS_12basic_stringIcNS_11char_traitsIcEENS_9allocatorIcEEEEbxydS9_NS2_14adl_serializerENS5_IhNS9_IhEEEEvEEEEPT_SI_, symObjAddr: 0x1B2A4, symBinAddr: 0x10001C81C, symSize: 0x14 }
  - { offsetInCU: 0x2CD50, offset: 0x2CD50, size: 0x8, addend: 0x0, symName: __ZNSt3__110destroy_atB8ue170006IPN8nlohmann16json_abi_v3_11_310basic_jsonINS_3mapENS_6vectorENS_12basic_stringIcNS_11char_traitsIcEENS_9allocatorIcEEEEbxydS9_NS2_14adl_serializerENS5_IhNS9_IhEEEEvEELi0EEEvPT_, symObjAddr: 0x1B2B8, symBinAddr: 0x10001C830, symSize: 0x24 }
  - { offsetInCU: 0x2CD87, offset: 0x2CD87, size: 0x8, addend: 0x0, symName: __ZNSt3__112__destroy_atB8ue170006IPN8nlohmann16json_abi_v3_11_310basic_jsonINS_3mapENS_6vectorENS_12basic_stringIcNS_11char_traitsIcEENS_9allocatorIcEEEEbxydS9_NS2_14adl_serializerENS5_IhNS9_IhEEEEvEELi0EEEvPT_, symObjAddr: 0x1B2DC, symBinAddr: 0x10001C854, symSize: 0x10 }
  - { offsetInCU: 0x2CEF1, offset: 0x2CEF1, size: 0x8, addend: 0x0, symName: __ZNSt3__125__throw_bad_function_callB8ue170006Ev, symObjAddr: 0x1CC68, symBinAddr: 0x10001E1E0, symSize: 0x38 }
  - { offsetInCU: 0x2CF69, offset: 0x2CF69, size: 0x8, addend: 0x0, symName: __ZNSt3__112construct_atB8ue170006IPN8nlohmann16json_abi_v3_11_310basic_jsonINS_3mapENS_6vectorENS_12basic_stringIcNS_11char_traitsIcEENS_9allocatorIcEEEEbxydS9_NS2_14adl_serializerENS5_IhNS9_IhEEEEvEEJRKSG_EPSG_EEPT_SL_DpOT0_, symObjAddr: 0x1D304, symBinAddr: 0x10001E87C, symSize: 0x2C }
  - { offsetInCU: 0x2CFDC, offset: 0x2CFDC, size: 0x8, addend: 0x0, symName: __ZNSt3__119__allocate_at_leastB8ue170006INS_9allocatorIPN8nlohmann16json_abi_v3_11_310basic_jsonINS_3mapENS_6vectorENS_12basic_stringIcNS_11char_traitsIcEENS1_IcEEEEbxydS1_NS3_14adl_serializerENS6_IhNS1_IhEEEEvEEEEEENS_19__allocation_resultINS_16allocator_traitsIT_E7pointerEEERSK_m, symObjAddr: 0x1D798, symBinAddr: 0x10001ED10, symSize: 0x40 }
  - { offsetInCU: 0x2D01F, offset: 0x2D01F, size: 0x8, addend: 0x0, symName: __ZNSt3__142__uninitialized_allocator_move_if_noexceptB8ue170006INS_9allocatorIPN8nlohmann16json_abi_v3_11_310basic_jsonINS_3mapENS_6vectorENS_12basic_stringIcNS_11char_traitsIcEENS1_IcEEEEbxydS1_NS3_14adl_serializerENS6_IhNS1_IhEEEEvEEEENS_16reverse_iteratorIPSG_EESK_SG_vEET1_RT_T0_SO_SL_, symObjAddr: 0x1D94C, symBinAddr: 0x10001EEC4, symSize: 0x78 }
  - { offsetInCU: 0x2D09D, offset: 0x2D09D, size: 0x8, addend: 0x0, symName: __ZNSt3__14swapB8ue170006IPPN8nlohmann16json_abi_v3_11_310basic_jsonINS_3mapENS_6vectorENS_12basic_stringIcNS_11char_traitsIcEENS_9allocatorIcEEEEbxydS9_NS2_14adl_serializerENS5_IhNS9_IhEEEEvEEEENS_9enable_ifIXaasr21is_move_constructibleIT_EE5valuesr18is_move_assignableISJ_EE5valueEvE4typeERSJ_SM_, symObjAddr: 0x1DA10, symBinAddr: 0x10001EF88, symSize: 0x3C }
  - { offsetInCU: 0x2D0EF, offset: 0x2D0EF, size: 0x8, addend: 0x0, symName: __ZNSt3__14moveB8ue170006INS_16reverse_iteratorIPPN8nlohmann16json_abi_v3_11_310basic_jsonINS_3mapENS_6vectorENS_12basic_stringIcNS_11char_traitsIcEENS_9allocatorIcEEEEbxydSA_NS3_14adl_serializerENS6_IhNSA_IhEEEEvEEEESJ_EET0_T_SL_SK_, symObjAddr: 0x1DAF8, symBinAddr: 0x10001F070, symSize: 0x78 }
  - { offsetInCU: 0x2D14A, offset: 0x2D14A, size: 0x8, addend: 0x0, symName: __ZNSt3__16__moveB8ue170006INS_17_ClassicAlgPolicyENS_16reverse_iteratorIPPN8nlohmann16json_abi_v3_11_310basic_jsonINS_3mapENS_6vectorENS_12basic_stringIcNS_11char_traitsIcEENS_9allocatorIcEEEEbxydSB_NS4_14adl_serializerENS7_IhNSB_IhEEEEvEEEESK_SK_EENS_4pairIT0_T2_EESM_T1_SN_, symObjAddr: 0x1DB70, symBinAddr: 0x10001F0E8, symSize: 0x64 }
  - { offsetInCU: 0x2D1B7, offset: 0x2D1B7, size: 0x8, addend: 0x0, symName: __ZNSt3__123__dispatch_copy_or_moveB8ue170006INS_17_ClassicAlgPolicyENS_11__move_loopIS1_EENS_14__move_trivialENS_16reverse_iteratorIPPN8nlohmann16json_abi_v3_11_310basic_jsonINS_3mapENS_6vectorENS_12basic_stringIcNS_11char_traitsIcEENS_9allocatorIcEEEEbxydSE_NS7_14adl_serializerENSA_IhNSE_IhEEEEvEEEESN_SN_EENS_4pairIT2_T4_EESP_T3_SQ_, symObjAddr: 0x1DBD4, symBinAddr: 0x10001F14C, symSize: 0x64 }
  - { offsetInCU: 0x2D236, offset: 0x2D236, size: 0x8, addend: 0x0, symName: __ZNSt3__121__unwrap_and_dispatchB8ue170006INS_10__overloadINS_11__move_loopINS_17_ClassicAlgPolicyEEENS_14__move_trivialEEENS_16reverse_iteratorIPPN8nlohmann16json_abi_v3_11_310basic_jsonINS_3mapENS_6vectorENS_12basic_stringIcNS_11char_traitsIcEENS_9allocatorIcEEEEbxydSG_NS9_14adl_serializerENSC_IhNSG_IhEEEEvEEEESP_SP_Li0EEENS_4pairIT0_T2_EESR_T1_SS_, symObjAddr: 0x1DC38, symBinAddr: 0x10001F1B0, symSize: 0x12C }
  - { offsetInCU: 0x2D2C7, offset: 0x2D2C7, size: 0x8, addend: 0x0, symName: __ZNSt3__114__unwrap_rangeB8ue170006INS_16reverse_iteratorIPPN8nlohmann16json_abi_v3_11_310basic_jsonINS_3mapENS_6vectorENS_12basic_stringIcNS_11char_traitsIcEENS_9allocatorIcEEEEbxydSA_NS3_14adl_serializerENS6_IhNSA_IhEEEEvEEEESJ_EEDaT_T0_, symObjAddr: 0x1DD64, symBinAddr: 0x10001F2DC, symSize: 0x4C }
  - { offsetInCU: 0x2D3E8, offset: 0x2D3E8, size: 0x8, addend: 0x0, symName: __ZNSt3__113__unwrap_iterB8ue170006INS_16reverse_iteratorIPPN8nlohmann16json_abi_v3_11_310basic_jsonINS_3mapENS_6vectorENS_12basic_stringIcNS_11char_traitsIcEENS_9allocatorIcEEEEbxydSA_NS3_14adl_serializerENS6_IhNSA_IhEEEEvEEEENS_18__unwrap_iter_implISJ_Lb0EEELi0EEEDTclsrT0_8__unwrapclsr3stdE7declvalIT_EEEESN_, symObjAddr: 0x1DE50, symBinAddr: 0x10001F3C8, symSize: 0x44 }
  - { offsetInCU: 0x2D42C, offset: 0x2D42C, size: 0x8, addend: 0x0, symName: __ZNSt3__19make_pairB8ue170006INS_16reverse_iteratorIPPN8nlohmann16json_abi_v3_11_310basic_jsonINS_3mapENS_6vectorENS_12basic_stringIcNS_11char_traitsIcEENS_9allocatorIcEEEEbxydSA_NS3_14adl_serializerENS6_IhNSA_IhEEEEvEEEESJ_EENS_4pairINS_18__unwrap_ref_decayIT_E4typeENSL_IT0_E4typeEEEOSM_OSP_, symObjAddr: 0x1DE94, symBinAddr: 0x10001F40C, symSize: 0x38 }
  - { offsetInCU: 0x2D47C, offset: 0x2D47C, size: 0x8, addend: 0x0, symName: __ZNSt3__114__rewrap_rangeB8ue170006INS_16reverse_iteratorIPPN8nlohmann16json_abi_v3_11_310basic_jsonINS_3mapENS_6vectorENS_12basic_stringIcNS_11char_traitsIcEENS_9allocatorIcEEEEbxydSA_NS3_14adl_serializerENS6_IhNSA_IhEEEEvEEEESJ_SJ_EET0_SK_T1_, symObjAddr: 0x1DECC, symBinAddr: 0x10001F444, symSize: 0x5C }
  - { offsetInCU: 0x2D4D2, offset: 0x2D4D2, size: 0x8, addend: 0x0, symName: __ZNSt3__113__rewrap_iterB8ue170006INS_16reverse_iteratorIPPN8nlohmann16json_abi_v3_11_310basic_jsonINS_3mapENS_6vectorENS_12basic_stringIcNS_11char_traitsIcEENS_9allocatorIcEEEEbxydSA_NS3_14adl_serializerENS6_IhNSA_IhEEEEvEEEESJ_NS_18__unwrap_iter_implISJ_Lb0EEEEET_SM_T0_, symObjAddr: 0x1DF28, symBinAddr: 0x10001F4A0, symSize: 0x74 }
  - { offsetInCU: 0x2D578, offset: 0x2D578, size: 0x8, addend: 0x0, symName: __ZNSt3__1neB8ue170006IPPN8nlohmann16json_abi_v3_11_310basic_jsonINS_3mapENS_6vectorENS_12basic_stringIcNS_11char_traitsIcEENS_9allocatorIcEEEEbxydS9_NS2_14adl_serializerENS5_IhNS9_IhEEEEvEESH_EEbRKNS_16reverse_iteratorIT_EERKNSI_IT0_EE, symObjAddr: 0x1E090, symBinAddr: 0x10001F608, symSize: 0x48 }
  - { offsetInCU: 0x2D970, offset: 0x2D970, size: 0x8, addend: 0x0, symName: __ZNSt3__1eqB8ue170006INS_3mapINS_12basic_stringIcNS_11char_traitsIcEENS_9allocatorIcEEEEN8nlohmann16json_abi_v3_11_310basic_jsonIS1_NS_6vectorES7_bxydS5_NS9_14adl_serializerENSB_IhNS5_IhEEEEvEENS_4lessIvEENS5_INS_4pairIKS7_SF_EEEEEEZNSF_6createISM_JRKSM_EEEPT_DpOT0_EUlPSM_E_EEbRKNS_10unique_ptrISQ_T0_EEDn, symObjAddr: 0x1F540, symBinAddr: 0x100020AB8, symSize: 0x30 }
  - { offsetInCU: 0x2D9BC, offset: 0x2D9BC, size: 0x8, addend: 0x0, symName: __ZNSt3__112construct_atB8ue170006INS_3mapINS_12basic_stringIcNS_11char_traitsIcEENS_9allocatorIcEEEEN8nlohmann16json_abi_v3_11_310basic_jsonIS1_NS_6vectorES7_bxydS5_NS9_14adl_serializerENSB_IhNS5_IhEEEEvEENS_4lessIvEENS5_INS_4pairIKS7_SF_EEEEEEJRKSM_EPSM_EEPT_SR_DpOT0_, symObjAddr: 0x1F6D0, symBinAddr: 0x100020C48, symSize: 0x3C }
  - { offsetInCU: 0x2DA2E, offset: 0x2DA2E, size: 0x8, addend: 0x0, symName: __ZNSt3__1neB8ue170006ERKNS_20__map_const_iteratorINS_21__tree_const_iteratorINS_12__value_typeINS_12basic_stringIcNS_11char_traitsIcEENS_9allocatorIcEEEEN8nlohmann16json_abi_v3_11_310basic_jsonINS_3mapENS_6vectorES8_bxydS6_NSA_14adl_serializerENSD_IhNS6_IhEEEEvEEEEPNS_11__tree_nodeISI_PvEElEEEESQ_, symObjAddr: 0x1FAF0, symBinAddr: 0x100021068, symSize: 0x30 }
  - { offsetInCU: 0x2DA6B, offset: 0x2DA6B, size: 0x8, addend: 0x0, symName: __ZNSt3__1neB8ue170006ERKNS_21__tree_const_iteratorINS_12__value_typeINS_12basic_stringIcNS_11char_traitsIcEENS_9allocatorIcEEEEN8nlohmann16json_abi_v3_11_310basic_jsonINS_3mapENS_6vectorES7_bxydS5_NS9_14adl_serializerENSC_IhNS5_IhEEEEvEEEEPNS_11__tree_nodeISH_PvEElEESO_, symObjAddr: 0x1FBF8, symBinAddr: 0x100021170, symSize: 0x34 }
  - { offsetInCU: 0x2DAA8, offset: 0x2DAA8, size: 0x8, addend: 0x0, symName: __ZNSt3__1eqB8ue170006ERKNS_21__tree_const_iteratorINS_12__value_typeINS_12basic_stringIcNS_11char_traitsIcEENS_9allocatorIcEEEEN8nlohmann16json_abi_v3_11_310basic_jsonINS_3mapENS_6vectorES7_bxydS5_NS9_14adl_serializerENSC_IhNS5_IhEEEEvEEEEPNS_11__tree_nodeISH_PvEElEESO_, symObjAddr: 0x1FC2C, symBinAddr: 0x1000211A4, symSize: 0x30 }
  - { offsetInCU: 0x2DB0A, offset: 0x2DB0A, size: 0x8, addend: 0x0, symName: __ZNSt3__14nextB8ue170006INS_21__tree_const_iteratorINS_12__value_typeINS_12basic_stringIcNS_11char_traitsIcEENS_9allocatorIcEEEEN8nlohmann16json_abi_v3_11_310basic_jsonINS_3mapENS_6vectorES8_bxydS6_NSA_14adl_serializerENSD_IhNS6_IhEEEEvEEEEPNS_11__tree_nodeISI_PvEElEEEENS_9enable_ifIXsr29__has_input_iterator_categoryIT_EE5valueESP_E4typeESP_NS_15iterator_traitsISP_E15difference_typeE, symObjAddr: 0x20690, symBinAddr: 0x100021C08, symSize: 0x3C }
  - { offsetInCU: 0x2DB4D, offset: 0x2DB4D, size: 0x8, addend: 0x0, symName: __ZNSt3__1ltB8ue170006ENS_15strong_orderingENS_20_CmpUnspecifiedParamE, symObjAddr: 0x207B0, symBinAddr: 0x100021D28, symSize: 0x24 }
  - { offsetInCU: 0x2DB86, offset: 0x2DB86, size: 0x8, addend: 0x0, symName: __ZNSt3__1ssB8ue170006IcNS_11char_traitsIcEENS_9allocatorIcEEEEDaRKNS_12basic_stringIT_T0_T1_EESC_, symObjAddr: 0x207D4, symBinAddr: 0x100021D4C, symSize: 0x5C }
  - { offsetInCU: 0x2DBFA, offset: 0x2DBFA, size: 0x8, addend: 0x0, symName: __ZNSt3__1ssB8ue170006IcNS_11char_traitsIcEEEEDaNS_17basic_string_viewIT_T0_EES7_, symObjAddr: 0x20864, symBinAddr: 0x100021DDC, symSize: 0x7C }
  - { offsetInCU: 0x2DC49, offset: 0x2DC49, size: 0x8, addend: 0x0, symName: __ZNSt3__17launderB8ue170006IKNS_4pairIKNS_12basic_stringIcNS_11char_traitsIcEENS_9allocatorIcEEEEN8nlohmann16json_abi_v3_11_310basic_jsonINS_3mapENS_6vectorES7_bxydS5_NSA_14adl_serializerENSD_IhNS5_IhEEEEvEEEEEEPT_SL_, symObjAddr: 0x20A34, symBinAddr: 0x100021FAC, symSize: 0x24 }
  - { offsetInCU: 0x2DC80, offset: 0x2DC80, size: 0x8, addend: 0x0, symName: __ZNSt3__19__launderB8ue170006IKNS_4pairIKNS_12basic_stringIcNS_11char_traitsIcEENS_9allocatorIcEEEEN8nlohmann16json_abi_v3_11_310basic_jsonINS_3mapENS_6vectorES7_bxydS5_NSA_14adl_serializerENSD_IhNS5_IhEEEEvEEEEEEPT_SL_, symObjAddr: 0x20A58, symBinAddr: 0x100021FD0, symSize: 0x14 }
  - { offsetInCU: 0x2DCB8, offset: 0x2DCB8, size: 0x8, addend: 0x0, symName: __ZNSt3__116__tree_prev_iterB8ue170006IPNS_16__tree_node_baseIPvEEPNS_15__tree_end_nodeIS4_EEEET_T0_, symObjAddr: 0x20A6C, symBinAddr: 0x100021FE4, symSize: 0x88 }
  - { offsetInCU: 0x2DD05, offset: 0x2DD05, size: 0x8, addend: 0x0, symName: __ZNSt3__110__tree_maxB8ue170006IPNS_16__tree_node_baseIPvEEEET_S5_, symObjAddr: 0x20AF4, symBinAddr: 0x10002206C, symSize: 0x40 }
  - { offsetInCU: 0x2DD3B, offset: 0x2DD3B, size: 0x8, addend: 0x0, symName: __ZNSt3__19__advanceB8ue170006INS_21__tree_const_iteratorINS_12__value_typeINS_12basic_stringIcNS_11char_traitsIcEENS_9allocatorIcEEEEN8nlohmann16json_abi_v3_11_310basic_jsonINS_3mapENS_6vectorES8_bxydS6_NSA_14adl_serializerENSD_IhNS6_IhEEEEvEEEEPNS_11__tree_nodeISI_PvEElEEEEvRT_NS_15iterator_traitsISO_E15difference_typeENS_26bidirectional_iterator_tagE, symObjAddr: 0x20B90, symBinAddr: 0x100022108, symSize: 0xA4 }
  - { offsetInCU: 0x2DDCA, offset: 0x2DDCA, size: 0x8, addend: 0x0, symName: __ZNSt3__112construct_atB8ue170006INS_4pairIKNS_12basic_stringIcNS_11char_traitsIcEENS_9allocatorIcEEEEN8nlohmann16json_abi_v3_11_310basic_jsonINS_3mapENS_6vectorES7_bxydS5_NSA_14adl_serializerENSD_IhNS5_IhEEEEvEEEEJRKSI_EPSI_EEPT_SN_DpOT0_, symObjAddr: 0x20F40, symBinAddr: 0x1000224B8, symSize: 0x3C }
  - { offsetInCU: 0x2DE3C, offset: 0x2DE3C, size: 0x8, addend: 0x0, symName: __ZNSt3__127__tree_balance_after_insertB8ue170006IPNS_16__tree_node_baseIPvEEEEvT_S5_, symObjAddr: 0x21094, symBinAddr: 0x10002260C, symSize: 0x27C }
  - { offsetInCU: 0x2DEBA, offset: 0x2DEBA, size: 0x8, addend: 0x0, symName: __ZNSt3__118__tree_left_rotateB8ue170006IPNS_16__tree_node_baseIPvEEEEvT_, symObjAddr: 0x21310, symBinAddr: 0x100022888, symSize: 0xD8 }
  - { offsetInCU: 0x2DEFC, offset: 0x2DEFC, size: 0x8, addend: 0x0, symName: __ZNSt3__119__tree_right_rotateB8ue170006IPNS_16__tree_node_baseIPvEEEEvT_, symObjAddr: 0x213E8, symBinAddr: 0x100022960, symSize: 0xCC }
  - { offsetInCU: 0x2E2B1, offset: 0x2E2B1, size: 0x8, addend: 0x0, symName: __ZNSt3__1eqB8ue170006INS_6vectorIN8nlohmann16json_abi_v3_11_310basic_jsonINS_3mapES1_NS_12basic_stringIcNS_11char_traitsIcEENS_9allocatorIcEEEEbxydS9_NS3_14adl_serializerENS1_IhNS9_IhEEEEvEENS9_ISF_EEEEZNSF_6createISH_JRKSH_EEEPT_DpOT0_EUlPSH_E_EEbRKNS_10unique_ptrISL_T0_EEDn, symObjAddr: 0x21B2C, symBinAddr: 0x1000230A4, symSize: 0x30 }
  - { offsetInCU: 0x2E2FD, offset: 0x2E2FD, size: 0x8, addend: 0x0, symName: __ZNSt3__112construct_atB8ue170006INS_6vectorIN8nlohmann16json_abi_v3_11_310basic_jsonINS_3mapES1_NS_12basic_stringIcNS_11char_traitsIcEENS_9allocatorIcEEEEbxydS9_NS3_14adl_serializerENS1_IhNS9_IhEEEEvEENS9_ISF_EEEEJRKSH_EPSH_EEPT_SM_DpOT0_, symObjAddr: 0x21CBC, symBinAddr: 0x100023234, symSize: 0x3C }
  - { offsetInCU: 0x2E370, offset: 0x2E370, size: 0x8, addend: 0x0, symName: __ZNSt3__122__make_exception_guardB8ue170006INS_6vectorIN8nlohmann16json_abi_v3_11_310basic_jsonINS_3mapES1_NS_12basic_stringIcNS_11char_traitsIcEENS_9allocatorIcEEEEbxydS9_NS3_14adl_serializerENS1_IhNS9_IhEEEEvEENS9_ISF_EEE16__destroy_vectorEEENS_28__exception_guard_exceptionsIT_EESK_, symObjAddr: 0x21F20, symBinAddr: 0x100023498, symSize: 0x40 }
  - { offsetInCU: 0x2E3A5, offset: 0x2E3A5, size: 0x8, addend: 0x0, symName: __ZNSt3__130__uninitialized_allocator_copyB8ue170006INS_9allocatorIN8nlohmann16json_abi_v3_11_310basic_jsonINS_3mapENS_6vectorENS_12basic_stringIcNS_11char_traitsIcEENS1_IcEEEEbxydS1_NS3_14adl_serializerENS6_IhNS1_IhEEEEvEEEEPSF_SH_SH_EET2_RT_T0_T1_SI_, symObjAddr: 0x22138, symBinAddr: 0x1000236B0, symSize: 0x80 }
  - { offsetInCU: 0x2E443, offset: 0x2E443, size: 0x8, addend: 0x0, symName: __ZNSt3__114__unwrap_rangeB8ue170006IPN8nlohmann16json_abi_v3_11_310basic_jsonINS_3mapENS_6vectorENS_12basic_stringIcNS_11char_traitsIcEENS_9allocatorIcEEEEbxydS9_NS2_14adl_serializerENS5_IhNS9_IhEEEEvEESG_EEDaT_T0_, symObjAddr: 0x221B8, symBinAddr: 0x100023730, symSize: 0x3C }
  - { offsetInCU: 0x2E48F, offset: 0x2E48F, size: 0x8, addend: 0x0, symName: __ZNSt3__135__uninitialized_allocator_copy_implB8ue170006INS_9allocatorIN8nlohmann16json_abi_v3_11_310basic_jsonINS_3mapENS_6vectorENS_12basic_stringIcNS_11char_traitsIcEENS1_IcEEEEbxydS1_NS3_14adl_serializerENS6_IhNS1_IhEEEEvEEEEPSF_SH_SH_EET2_RT_T0_T1_SI_, symObjAddr: 0x221F4, symBinAddr: 0x10002376C, symSize: 0xF4 }
  - { offsetInCU: 0x2E52E, offset: 0x2E52E, size: 0x8, addend: 0x0, symName: __ZNSt3__113__unwrap_iterB8ue170006IPN8nlohmann16json_abi_v3_11_310basic_jsonINS_3mapENS_6vectorENS_12basic_stringIcNS_11char_traitsIcEENS_9allocatorIcEEEEbxydS9_NS2_14adl_serializerENS5_IhNS9_IhEEEEvEENS_18__unwrap_iter_implISG_Lb1EEELi0EEEDTclsrT0_8__unwrapclsr3stdE7declvalIT_EEEESK_, symObjAddr: 0x222E8, symBinAddr: 0x100023860, symSize: 0x24 }
  - { offsetInCU: 0x2E573, offset: 0x2E573, size: 0x8, addend: 0x0, symName: __ZNSt3__113__rewrap_iterB8ue170006IPN8nlohmann16json_abi_v3_11_310basic_jsonINS_3mapENS_6vectorENS_12basic_stringIcNS_11char_traitsIcEENS_9allocatorIcEEEEbxydS9_NS2_14adl_serializerENS5_IhNS9_IhEEEEvEESG_NS_18__unwrap_iter_implISG_Lb1EEEEET_SJ_T0_, symObjAddr: 0x2230C, symBinAddr: 0x100023884, symSize: 0x3C }
  - { offsetInCU: 0x2E619, offset: 0x2E619, size: 0x8, addend: 0x0, symName: __ZNSt3__122__make_exception_guardB8ue170006INS_29_AllocatorDestroyRangeReverseINS_9allocatorIN8nlohmann16json_abi_v3_11_310basic_jsonINS_3mapENS_6vectorENS_12basic_stringIcNS_11char_traitsIcEENS2_IcEEEEbxydS2_NS4_14adl_serializerENS7_IhNS2_IhEEEEvEEEEPSG_EEEENS_28__exception_guard_exceptionsIT_EESL_, symObjAddr: 0x223A0, symBinAddr: 0x100023918, symSize: 0x4C }
  - { offsetInCU: 0x2E650, offset: 0x2E650, size: 0x8, addend: 0x0, symName: __ZNSt3__112construct_atB8ue170006IN8nlohmann16json_abi_v3_11_310basic_jsonINS_3mapENS_6vectorENS_12basic_stringIcNS_11char_traitsIcEENS_9allocatorIcEEEEbxydS9_NS2_14adl_serializerENS5_IhNS9_IhEEEEvEEJRSF_EPSF_EEPT_SJ_DpOT0_, symObjAddr: 0x22544, symBinAddr: 0x100023ABC, symSize: 0x3C }
  - { offsetInCU: 0x2E6C2, offset: 0x2E6C2, size: 0x8, addend: 0x0, symName: __ZNSt3__119__allocator_destroyB8ue170006INS_9allocatorIN8nlohmann16json_abi_v3_11_310basic_jsonINS_3mapENS_6vectorENS_12basic_stringIcNS_11char_traitsIcEENS1_IcEEEEbxydS1_NS3_14adl_serializerENS6_IhNS1_IhEEEEvEEEENS_16reverse_iteratorIPSF_EESJ_EEvRT_T0_T1_, symObjAddr: 0x22638, symBinAddr: 0x100023BB0, symSize: 0x70 }
  - { offsetInCU: 0x2EAB8, offset: 0x2EAB8, size: 0x8, addend: 0x0, symName: __ZNSt3__1eqB8ue170006INS_12basic_stringIcNS_11char_traitsIcEENS_9allocatorIcEEEEZN8nlohmann16json_abi_v3_11_310basic_jsonINS_3mapENS_6vectorES6_bxydS4_NS8_14adl_serializerENSB_IhNS4_IhEEEEvE6createIS6_JRKS6_EEEPT_DpOT0_EUlPS6_E_EEbRKNS_10unique_ptrISJ_T0_EEDn, symObjAddr: 0x22AC4, symBinAddr: 0x10002403C, symSize: 0x30 }
  - { offsetInCU: 0x2EE43, offset: 0x2EE43, size: 0x8, addend: 0x0, symName: __ZNSt3__1eqB8ue170006IN8nlohmann16json_abi_v3_11_327byte_container_with_subtypeINS_6vectorIhNS_9allocatorIhEEEEEEZNS2_10basic_jsonINS_3mapES4_NS_12basic_stringIcNS_11char_traitsIcEENS5_IcEEEEbxydS5_NS2_14adl_serializerES7_vE6createIS8_JRKS8_EEEPT_DpOT0_EUlPS8_E_EEbRKNS_10unique_ptrISL_T0_EEDn, symObjAddr: 0x23040, symBinAddr: 0x1000245B8, symSize: 0x30 }
  - { offsetInCU: 0x2EE8F, offset: 0x2EE8F, size: 0x8, addend: 0x0, symName: __ZNSt3__112construct_atB8ue170006IN8nlohmann16json_abi_v3_11_327byte_container_with_subtypeINS_6vectorIhNS_9allocatorIhEEEEEEJRKS8_EPS8_EEPT_SD_DpOT0_, symObjAddr: 0x231D0, symBinAddr: 0x100024748, symSize: 0x3C }
  - { offsetInCU: 0x2EF02, offset: 0x2EF02, size: 0x8, addend: 0x0, symName: __ZNSt3__122__make_exception_guardB8ue170006INS_6vectorIhNS_9allocatorIhEEE16__destroy_vectorEEENS_28__exception_guard_exceptionsIT_EES7_, symObjAddr: 0x234DC, symBinAddr: 0x100024A54, symSize: 0x40 }
  - { offsetInCU: 0x2EF38, offset: 0x2EF38, size: 0x8, addend: 0x0, symName: __ZNSt3__119__allocate_at_leastB8ue170006INS_9allocatorIhEEEENS_19__allocation_resultINS_16allocator_traitsIT_E7pointerEEERS5_m, symObjAddr: 0x23770, symBinAddr: 0x100024CE8, symSize: 0x40 }
  - { offsetInCU: 0x2EF7B, offset: 0x2EF7B, size: 0x8, addend: 0x0, symName: __ZNSt3__130__uninitialized_allocator_copyB8ue170006INS_9allocatorIhEEPhS3_S3_EET2_RT_T0_T1_S4_, symObjAddr: 0x23978, symBinAddr: 0x100024EF0, symSize: 0x80 }
  - { offsetInCU: 0x2F019, offset: 0x2F019, size: 0x8, addend: 0x0, symName: __ZNSt3__114__unwrap_rangeB8ue170006IPhS1_EEDaT_T0_, symObjAddr: 0x23A68, symBinAddr: 0x100024FE0, symSize: 0x3C }
  - { offsetInCU: 0x2F065, offset: 0x2F065, size: 0x8, addend: 0x0, symName: __ZNSt3__135__uninitialized_allocator_copy_implB8ue170006INS_9allocatorIhEEhhhLPv0EEEPT2_RT_PT0_S9_S5_, symObjAddr: 0x23AA4, symBinAddr: 0x10002501C, symSize: 0x38 }
  - { offsetInCU: 0x2F0E7, offset: 0x2F0E7, size: 0x8, addend: 0x0, symName: __ZNSt3__113__unwrap_iterB8ue170006IPhNS_18__unwrap_iter_implIS1_Lb1EEELi0EEEDTclsrT0_8__unwrapclsr3stdE7declvalIT_EEEES5_, symObjAddr: 0x23ADC, symBinAddr: 0x100025054, symSize: 0x24 }
  - { offsetInCU: 0x2F12C, offset: 0x2F12C, size: 0x8, addend: 0x0, symName: __ZNSt3__113__rewrap_iterB8ue170006IPhS1_NS_18__unwrap_iter_implIS1_Lb1EEEEET_S4_T0_, symObjAddr: 0x23B00, symBinAddr: 0x100025078, symSize: 0x3C }
  - { offsetInCU: 0x2F2CD, offset: 0x2F2CD, size: 0x8, addend: 0x0, symName: __ZNSt3__14copyB8ue170006IPhS1_EET0_T_S3_S2_, symObjAddr: 0x23C04, symBinAddr: 0x10002517C, symSize: 0x40 }
  - { offsetInCU: 0x2F328, offset: 0x2F328, size: 0x8, addend: 0x0, symName: __ZNSt3__16__copyB8ue170006INS_17_ClassicAlgPolicyEPhS2_S2_EENS_4pairIT0_T2_EES4_T1_S5_, symObjAddr: 0x23C44, symBinAddr: 0x1000251BC, symSize: 0x44 }
  - { offsetInCU: 0x2F395, offset: 0x2F395, size: 0x8, addend: 0x0, symName: __ZNSt3__123__dispatch_copy_or_moveB8ue170006INS_17_ClassicAlgPolicyENS_11__copy_loopIS1_EENS_14__copy_trivialEPhS5_S5_EENS_4pairIT2_T4_EES7_T3_S8_, symObjAddr: 0x23C88, symBinAddr: 0x100025200, symSize: 0x44 }
  - { offsetInCU: 0x2F414, offset: 0x2F414, size: 0x8, addend: 0x0, symName: __ZNSt3__121__unwrap_and_dispatchB8ue170006INS_10__overloadINS_11__copy_loopINS_17_ClassicAlgPolicyEEENS_14__copy_trivialEEEPhS7_S7_Li0EEENS_4pairIT0_T2_EES9_T1_SA_, symObjAddr: 0x23CCC, symBinAddr: 0x100025244, symSize: 0xB4 }
  - { offsetInCU: 0x2F4E8, offset: 0x2F4E8, size: 0x8, addend: 0x0, symName: __ZNSt3__19make_pairB8ue170006IPhS1_EENS_4pairINS_18__unwrap_ref_decayIT_E4typeENS3_IT0_E4typeEEEOS4_OS7_, symObjAddr: 0x23DC8, symBinAddr: 0x100025340, symSize: 0x38 }
  - { offsetInCU: 0x2F538, offset: 0x2F538, size: 0x8, addend: 0x0, symName: __ZNSt3__114__rewrap_rangeB8ue170006IPhS1_S1_EET0_S2_T1_, symObjAddr: 0x23E00, symBinAddr: 0x100025378, symSize: 0x2C }
  - { offsetInCU: 0x2F58E, offset: 0x2F58E, size: 0x8, addend: 0x0, symName: __ZNSt3__119__copy_trivial_implB8ue170006IhhEENS_4pairIPT_PT0_EES3_S3_S5_, symObjAddr: 0x23E2C, symBinAddr: 0x1000253A4, symSize: 0x78 }
  - { offsetInCU: 0x2F5F7, offset: 0x2F5F7, size: 0x8, addend: 0x0, symName: __ZNSt3__119__constexpr_memmoveB8ue170006IhhLi0EEEPT_S2_PT0_NS_15__element_countE, symObjAddr: 0x23EA4, symBinAddr: 0x10002541C, symSize: 0x64 }
  - { offsetInCU: 0x2F665, offset: 0x2F665, size: 0x8, addend: 0x0, symName: __ZNSt3__19make_pairB8ue170006IRPhS1_EENS_4pairINS_18__unwrap_ref_decayIT_E4typeENS4_IT0_E4typeEEEOS5_OS8_, symObjAddr: 0x23F08, symBinAddr: 0x100025480, symSize: 0x38 }
  - { offsetInCU: 0x2F708, offset: 0x2F708, size: 0x8, addend: 0x0, symName: __ZNSt3__1neB8ue170006IPN8nlohmann16json_abi_v3_11_310basic_jsonINS_3mapENS_6vectorENS_12basic_stringIcNS_11char_traitsIcEENS_9allocatorIcEEEEbxydS9_NS2_14adl_serializerENS5_IhNS9_IhEEEEvEEEEbRKNS_11__wrap_iterIT_EESL_, symObjAddr: 0x24378, symBinAddr: 0x1000258F0, symSize: 0x34 }
  - { offsetInCU: 0x2F77F, offset: 0x2F77F, size: 0x8, addend: 0x0, symName: __ZNSt3__1eqB8ue170006IPN8nlohmann16json_abi_v3_11_310basic_jsonINS_3mapENS_6vectorENS_12basic_stringIcNS_11char_traitsIcEENS_9allocatorIcEEEEbxydS9_NS2_14adl_serializerENS5_IhNS9_IhEEEEvEEEEbRKNS_11__wrap_iterIT_EESL_, symObjAddr: 0x24558, symBinAddr: 0x100025AD0, symSize: 0x48 }
  - { offsetInCU: 0x2F7C2, offset: 0x2F7C2, size: 0x8, addend: 0x0, symName: __ZNSt3__113__tree_removeB8ue170006IPNS_16__tree_node_baseIPvEEEEvT_S5_, symObjAddr: 0x24C6C, symBinAddr: 0x1000261E4, symSize: 0x6E0 }
  - { offsetInCU: 0x2F841, offset: 0x2F841, size: 0x8, addend: 0x0, symName: __ZNSt3__111__tree_nextB8ue170006IPNS_16__tree_node_baseIPvEEEET_S5_, symObjAddr: 0x2534C, symBinAddr: 0x1000268C4, symSize: 0x80 }
  - { offsetInCU: 0x2F877, offset: 0x2F877, size: 0x8, addend: 0x0, symName: __ZNSt3__1miB8ue170006IPKN8nlohmann16json_abi_v3_11_310basic_jsonINS_3mapENS_6vectorENS_12basic_stringIcNS_11char_traitsIcEENS_9allocatorIcEEEEbxydS9_NS2_14adl_serializerENS5_IhNS9_IhEEEEvEESH_EEDTmicldtfp_4baseEcldtfp0_4baseEERKNS_11__wrap_iterIT_EERKNSJ_IT0_EE, symObjAddr: 0x253CC, symBinAddr: 0x100026944, symSize: 0x48 }
  - { offsetInCU: 0x2F8C4, offset: 0x2F8C4, size: 0x8, addend: 0x0, symName: __ZNSt3__14moveB8ue170006IPN8nlohmann16json_abi_v3_11_310basic_jsonINS_3mapENS_6vectorENS_12basic_stringIcNS_11char_traitsIcEENS_9allocatorIcEEEEbxydS9_NS2_14adl_serializerENS5_IhNS9_IhEEEEvEESG_EET0_T_SI_SH_, symObjAddr: 0x25440, symBinAddr: 0x1000269B8, symSize: 0x40 }
  - { offsetInCU: 0x2F91F, offset: 0x2F91F, size: 0x8, addend: 0x0, symName: __ZNSt3__16__moveB8ue170006INS_17_ClassicAlgPolicyEPN8nlohmann16json_abi_v3_11_310basic_jsonINS_3mapENS_6vectorENS_12basic_stringIcNS_11char_traitsIcEENS_9allocatorIcEEEEbxydSA_NS3_14adl_serializerENS6_IhNSA_IhEEEEvEESH_SH_EENS_4pairIT0_T2_EESJ_T1_SK_, symObjAddr: 0x2554C, symBinAddr: 0x100026AC4, symSize: 0x44 }
  - { offsetInCU: 0x2F98C, offset: 0x2F98C, size: 0x8, addend: 0x0, symName: __ZNSt3__123__dispatch_copy_or_moveB8ue170006INS_17_ClassicAlgPolicyENS_11__move_loopIS1_EENS_14__move_trivialEPN8nlohmann16json_abi_v3_11_310basic_jsonINS_3mapENS_6vectorENS_12basic_stringIcNS_11char_traitsIcEENS_9allocatorIcEEEEbxydSD_NS6_14adl_serializerENS9_IhNSD_IhEEEEvEESK_SK_EENS_4pairIT2_T4_EESM_T3_SN_, symObjAddr: 0x25590, symBinAddr: 0x100026B08, symSize: 0x44 }
  - { offsetInCU: 0x2FA0B, offset: 0x2FA0B, size: 0x8, addend: 0x0, symName: __ZNSt3__121__unwrap_and_dispatchB8ue170006INS_10__overloadINS_11__move_loopINS_17_ClassicAlgPolicyEEENS_14__move_trivialEEEPN8nlohmann16json_abi_v3_11_310basic_jsonINS_3mapENS_6vectorENS_12basic_stringIcNS_11char_traitsIcEENS_9allocatorIcEEEEbxydSF_NS8_14adl_serializerENSB_IhNSF_IhEEEEvEESM_SM_Li0EEENS_4pairIT0_T2_EESO_T1_SP_, symObjAddr: 0x255D4, symBinAddr: 0x100026B4C, symSize: 0xB4 }
  - { offsetInCU: 0x2FA99, offset: 0x2FA99, size: 0x8, addend: 0x0, symName: __ZNSt3__19make_pairB8ue170006IPN8nlohmann16json_abi_v3_11_310basic_jsonINS_3mapENS_6vectorENS_12basic_stringIcNS_11char_traitsIcEENS_9allocatorIcEEEEbxydS9_NS2_14adl_serializerENS5_IhNS9_IhEEEEvEESG_EENS_4pairINS_18__unwrap_ref_decayIT_E4typeENSI_IT0_E4typeEEEOSJ_OSM_, symObjAddr: 0x25730, symBinAddr: 0x100026CA8, symSize: 0x38 }
  - { offsetInCU: 0x2FAE9, offset: 0x2FAE9, size: 0x8, addend: 0x0, symName: __ZNSt3__114__rewrap_rangeB8ue170006IPN8nlohmann16json_abi_v3_11_310basic_jsonINS_3mapENS_6vectorENS_12basic_stringIcNS_11char_traitsIcEENS_9allocatorIcEEEEbxydS9_NS2_14adl_serializerENS5_IhNS9_IhEEEEvEESG_SG_EET0_SH_T1_, symObjAddr: 0x25768, symBinAddr: 0x100026CE0, symSize: 0x2C }
  - { offsetInCU: 0x2FB75, offset: 0x2FB75, size: 0x8, addend: 0x0, symName: __ZNSt3__116forward_as_tupleB8ue170006IJRKNS_12basic_stringIcNS_11char_traitsIcEENS_9allocatorIcEEEEEEENS_5tupleIJDpOT_EEESC_, symObjAddr: 0x25D0C, symBinAddr: 0x100027284, symSize: 0x2C }
  - { offsetInCU: 0x2FBAE, offset: 0x2FBAE, size: 0x8, addend: 0x0, symName: __ZNSt3__116forward_as_tupleB8ue170006IJEEENS_5tupleIJDpOT_EEES4_, symObjAddr: 0x25D38, symBinAddr: 0x1000272B0, symSize: 0x4 }
  - { offsetInCU: 0x2FBD3, offset: 0x2FBD3, size: 0x8, addend: 0x0, symName: __ZNSt3__112construct_atB8ue170006INS_4pairIKNS_12basic_stringIcNS_11char_traitsIcEENS_9allocatorIcEEEEN8nlohmann16json_abi_v3_11_310basic_jsonINS_3mapENS_6vectorES7_bxydS5_NSA_14adl_serializerENSD_IhNS5_IhEEEEvEEEEJRKNS_21piecewise_construct_tENS_5tupleIJRS8_EEENSM_IJEEEEPSI_EEPT_SS_DpOT0_, symObjAddr: 0x25E94, symBinAddr: 0x10002740C, symSize: 0x50 }
  - { offsetInCU: 0x2FC77, offset: 0x2FC77, size: 0x8, addend: 0x0, symName: __ZNSt3__13getB8ue170006ILm0EJRKNS_12basic_stringIcNS_11char_traitsIcEENS_9allocatorIcEEEEEEERNS_13tuple_elementIXT_ENS_5tupleIJDpT0_EEEE4typeERSD_, symObjAddr: 0x25FB0, symBinAddr: 0x100027528, symSize: 0x24 }
  - { offsetInCU: 0x2FCDF, offset: 0x2FCDF, size: 0x8, addend: 0x0, symName: __ZNSt3__1neB8ue170006IPKcEEbRKNS_11__wrap_iterIT_EES7_, symObjAddr: 0x2893C, symBinAddr: 0x100029EB4, symSize: 0x34 }
  - { offsetInCU: 0x2FFEB, offset: 0x2FFEB, size: 0x8, addend: 0x0, symName: __ZNSt3__1eqB8ue170006IPKcEEbRKNS_11__wrap_iterIT_EES7_, symObjAddr: 0x28A80, symBinAddr: 0x100029FF8, symSize: 0x48 }
  - { offsetInCU: 0x3002F, offset: 0x3002F, size: 0x8, addend: 0x0, symName: __ZNSt3__14swapB8ue170006IN8nlohmann16json_abi_v3_11_36detail7value_tEEENS_9enable_ifIXaasr21is_move_constructibleIT_EE5valuesr18is_move_assignableIS6_EE5valueEvE4typeERS6_S9_, symObjAddr: 0x2984C, symBinAddr: 0x10002ADC4, symSize: 0x3C }
  - { offsetInCU: 0x30081, offset: 0x30081, size: 0x8, addend: 0x0, symName: __ZNSt3__14swapB8ue170006IN8nlohmann16json_abi_v3_11_310basic_jsonINS_3mapENS_6vectorENS_12basic_stringIcNS_11char_traitsIcEENS_9allocatorIcEEEEbxydS9_NS2_14adl_serializerENS5_IhNS9_IhEEEEvE10json_valueEEENS_9enable_ifIXaasr21is_move_constructibleIT_EE5valuesr18is_move_assignableISI_EE5valueEvE4typeERSI_SL_, symObjAddr: 0x29888, symBinAddr: 0x10002AE00, symSize: 0x3C }
  - { offsetInCU: 0x300D3, offset: 0x300D3, size: 0x8, addend: 0x0, symName: __ZNSt3__112construct_atB8ue170006IPN8nlohmann16json_abi_v3_11_310basic_jsonINS_3mapENS_6vectorENS_12basic_stringIcNS_11char_traitsIcEENS_9allocatorIcEEEEbxydS9_NS2_14adl_serializerENS5_IhNS9_IhEEEEvEEJSG_EPSG_EEPT_SJ_DpOT0_, symObjAddr: 0x2A4E4, symBinAddr: 0x10002BA5C, symSize: 0x2C }
  - { offsetInCU: 0x30146, offset: 0x30146, size: 0x8, addend: 0x0, symName: __ZNSt3__112construct_atB8ue170006IN8nlohmann16json_abi_v3_11_310basic_jsonINS_3mapENS_6vectorENS_12basic_stringIcNS_11char_traitsIcEENS_9allocatorIcEEEEbxydS9_NS2_14adl_serializerENS5_IhNS9_IhEEEEvEEJNS2_6detail7value_tEEPSF_EEPT_SK_DpOT0_, symObjAddr: 0x2A71C, symBinAddr: 0x10002BC94, symSize: 0x40 }
  - { offsetInCU: 0x301B9, offset: 0x301B9, size: 0x8, addend: 0x0, symName: __ZNSt3__112construct_atB8ue170006IN8nlohmann16json_abi_v3_11_310basic_jsonINS_3mapENS_6vectorENS_12basic_stringIcNS_11char_traitsIcEENS_9allocatorIcEEEEbxydS9_NS2_14adl_serializerENS5_IhNS9_IhEEEEvEEJRdEPSF_EEPT_SJ_DpOT0_, symObjAddr: 0x2AB58, symBinAddr: 0x10002C0D0, symSize: 0x3C }
  - { offsetInCU: 0x3022C, offset: 0x3022C, size: 0x8, addend: 0x0, symName: __ZNSt3__112construct_atB8ue170006IN8nlohmann16json_abi_v3_11_310basic_jsonINS_3mapENS_6vectorENS_12basic_stringIcNS_11char_traitsIcEENS_9allocatorIcEEEEbxydS9_NS2_14adl_serializerENS5_IhNS9_IhEEEEvEEJRbEPSF_EEPT_SJ_DpOT0_, symObjAddr: 0x2AF90, symBinAddr: 0x10002C508, symSize: 0x3C }
  - { offsetInCU: 0x3029F, offset: 0x3029F, size: 0x8, addend: 0x0, symName: __ZNSt3__112construct_atB8ue170006IN8nlohmann16json_abi_v3_11_310basic_jsonINS_3mapENS_6vectorENS_12basic_stringIcNS_11char_traitsIcEENS_9allocatorIcEEEEbxydS9_NS2_14adl_serializerENS5_IhNS9_IhEEEEvEEJDnEPSF_EEPT_SI_DpOT0_, symObjAddr: 0x2B3C8, symBinAddr: 0x10002C940, symSize: 0x3C }
  - { offsetInCU: 0x30312, offset: 0x30312, size: 0x8, addend: 0x0, symName: __ZNSt3__112construct_atB8ue170006IN8nlohmann16json_abi_v3_11_310basic_jsonINS_3mapENS_6vectorENS_12basic_stringIcNS_11char_traitsIcEENS_9allocatorIcEEEEbxydS9_NS2_14adl_serializerENS5_IhNS9_IhEEEEvEEJRxEPSF_EEPT_SJ_DpOT0_, symObjAddr: 0x2B800, symBinAddr: 0x10002CD78, symSize: 0x3C }
  - { offsetInCU: 0x30385, offset: 0x30385, size: 0x8, addend: 0x0, symName: __ZNSt3__112construct_atB8ue170006IN8nlohmann16json_abi_v3_11_310basic_jsonINS_3mapENS_6vectorENS_12basic_stringIcNS_11char_traitsIcEENS_9allocatorIcEEEEbxydS9_NS2_14adl_serializerENS5_IhNS9_IhEEEEvEEJRSB_EPSF_EEPT_SJ_DpOT0_, symObjAddr: 0x2BC38, symBinAddr: 0x10002D1B0, symSize: 0x3C }
  - { offsetInCU: 0x303F8, offset: 0x303F8, size: 0x8, addend: 0x0, symName: __ZNSt3__112construct_atB8ue170006IN8nlohmann16json_abi_v3_11_310basic_jsonINS_3mapENS_6vectorENS_12basic_stringIcNS_11char_traitsIcEENS_9allocatorIcEEEEbxydS9_NS2_14adl_serializerENS5_IhNS9_IhEEEEvEEJRyEPSF_EEPT_SJ_DpOT0_, symObjAddr: 0x2C070, symBinAddr: 0x10002D5E8, symSize: 0x3C }
  - { offsetInCU: 0x3048F, offset: 0x3048F, size: 0x8, addend: 0x0, symName: __ZNSt3__112construct_atB8ue170006INS_4pairIKNS_12basic_stringIcNS_11char_traitsIcEENS_9allocatorIcEEEEN8nlohmann16json_abi_v3_11_310basic_jsonINS_3mapENS_6vectorES7_bxydS5_NSA_14adl_serializerENSD_IhNS5_IhEEEEvEEEEJS7_DnEPSI_EEPT_SL_DpOT0_, symObjAddr: 0x2C830, symBinAddr: 0x10002DDA8, symSize: 0x44 }
  - { offsetInCU: 0x30514, offset: 0x30514, size: 0x8, addend: 0x0, symName: __ZNSt3__1eqB8ue170006ERKNS_14__map_iteratorINS_15__tree_iteratorINS_12__value_typeINS_12basic_stringIcNS_11char_traitsIcEENS_9allocatorIcEEEEN8nlohmann16json_abi_v3_11_310basic_jsonINS_3mapENS_6vectorES8_bxydS6_NSA_14adl_serializerENSD_IhNS6_IhEEEEvEEEEPNS_11__tree_nodeISI_PvEElEEEESQ_, symObjAddr: 0x2D1D4, symBinAddr: 0x10002E74C, symSize: 0x30 }
  - { offsetInCU: 0x30552, offset: 0x30552, size: 0x8, addend: 0x0, symName: __ZNSt3__121__convert_to_integralB8ue170006Ei, symObjAddr: 0x2D2CC, symBinAddr: 0x10002E844, symSize: 0x14 }
  - { offsetInCU: 0x3057F, offset: 0x3057F, size: 0x8, addend: 0x0, symName: __ZNSt3__19__advanceB8ue170006INS_14__map_iteratorINS_15__tree_iteratorINS_12__value_typeINS_12basic_stringIcNS_11char_traitsIcEENS_9allocatorIcEEEEN8nlohmann16json_abi_v3_11_310basic_jsonINS_3mapENS_6vectorES9_bxydS7_NSB_14adl_serializerENSE_IhNS7_IhEEEEvEEEEPNS_11__tree_nodeISJ_PvEElEEEEEEvRT_NS_15iterator_traitsISQ_E15difference_typeENS_26bidirectional_iterator_tagE, symObjAddr: 0x2D2E0, symBinAddr: 0x10002E858, symSize: 0xA4 }
  - { offsetInCU: 0x305C9, offset: 0x305C9, size: 0x8, addend: 0x0, symName: __ZNSt3__19__advanceB8ue170006INS_11__wrap_iterIPN8nlohmann16json_abi_v3_11_310basic_jsonINS_3mapENS_6vectorENS_12basic_stringIcNS_11char_traitsIcEENS_9allocatorIcEEEEbxydSA_NS3_14adl_serializerENS6_IhNSA_IhEEEEvEEEEEEvRT_NS_15iterator_traitsISJ_E15difference_typeENS_26random_access_iterator_tagE, symObjAddr: 0x2D3E8, symBinAddr: 0x10002E960, symSize: 0x2C }
  - { offsetInCU: 0x30613, offset: 0x30613, size: 0x8, addend: 0x0, symName: __ZNSt3__112construct_atB8ue170006I11TransactionJS1_EPS1_EEPT_S4_DpOT0_, symObjAddr: 0x2E20C, symBinAddr: 0x10002F784, symSize: 0x3C }
  - { offsetInCU: 0x30686, offset: 0x30686, size: 0x8, addend: 0x0, symName: __ZNSt3__16all_ofB8ue170006IPKN8nlohmann16json_abi_v3_11_36detail8json_refINS2_10basic_jsonINS_3mapENS_6vectorENS_12basic_stringIcNS_11char_traitsIcEENS_9allocatorIcEEEEbxydSB_NS2_14adl_serializerENS7_IhNSB_IhEEEEvEEEEZNSH_C1ESt16initializer_listISI_EbNS3_7value_tEEUlRSJ_E_EEbT_SQ_T0_, symObjAddr: 0x2E800, symBinAddr: 0x10002FD78, symSize: 0x94 }
  - { offsetInCU: 0x306E1, offset: 0x306E1, size: 0x8, addend: 0x0, symName: __ZNSt3__112construct_atB8ue170006INS_4pairIKNS_12basic_stringIcNS_11char_traitsIcEENS_9allocatorIcEEEEN8nlohmann16json_abi_v3_11_310basic_jsonINS_3mapENS_6vectorES7_bxydS5_NSA_14adl_serializerENSD_IhNS5_IhEEEEvEEEEJS7_SH_EPSI_EEPT_SL_DpOT0_, symObjAddr: 0x2F174, symBinAddr: 0x1000306EC, symSize: 0x44 }
  - { offsetInCU: 0x30AA6, offset: 0x30AA6, size: 0x8, addend: 0x0, symName: __ZNSt3__1eqB8ue170006INS_6vectorIN8nlohmann16json_abi_v3_11_310basic_jsonINS_3mapES1_NS_12basic_stringIcNS_11char_traitsIcEENS_9allocatorIcEEEEbxydS9_NS3_14adl_serializerENS1_IhNS9_IhEEEEvEENS9_ISF_EEEEZNSF_6createISH_JPKNS3_6detail8json_refISF_EESN_EEEPT_DpOT0_EUlPSH_E_EEbRKNS_10unique_ptrISO_T0_EEDn, symObjAddr: 0x2F2D8, symBinAddr: 0x100030850, symSize: 0x30 }
  - { offsetInCU: 0x30AF2, offset: 0x30AF2, size: 0x8, addend: 0x0, symName: __ZNSt3__112construct_atB8ue170006INS_6vectorIN8nlohmann16json_abi_v3_11_310basic_jsonINS_3mapES1_NS_12basic_stringIcNS_11char_traitsIcEENS_9allocatorIcEEEEbxydS9_NS3_14adl_serializerENS1_IhNS9_IhEEEEvEENS9_ISF_EEEEJPKNS3_6detail8json_refISF_EESM_EPSH_EEPT_SP_DpOT0_, symObjAddr: 0x2F468, symBinAddr: 0x1000309E0, symSize: 0x4C }
  - { offsetInCU: 0x30B78, offset: 0x30B78, size: 0x8, addend: 0x0, symName: __ZNSt3__18distanceB8ue170006IPKN8nlohmann16json_abi_v3_11_36detail8json_refINS2_10basic_jsonINS_3mapENS_6vectorENS_12basic_stringIcNS_11char_traitsIcEENS_9allocatorIcEEEEbxydSB_NS2_14adl_serializerENS7_IhNSB_IhEEEEvEEEEEENS_15iterator_traitsIT_E15difference_typeESM_SM_, symObjAddr: 0x2F564, symBinAddr: 0x100030ADC, symSize: 0x2C }
  - { offsetInCU: 0x30BBC, offset: 0x30BBC, size: 0x8, addend: 0x0, symName: __ZNSt3__110__distanceB8ue170006IPKN8nlohmann16json_abi_v3_11_36detail8json_refINS2_10basic_jsonINS_3mapENS_6vectorENS_12basic_stringIcNS_11char_traitsIcEENS_9allocatorIcEEEEbxydSB_NS2_14adl_serializerENS7_IhNSB_IhEEEEvEEEEEENS_15iterator_traitsIT_E15difference_typeESM_SM_NS_26random_access_iterator_tagE, symObjAddr: 0x2F648, symBinAddr: 0x100030BC0, symSize: 0x28 }
  - { offsetInCU: 0x30C0A, offset: 0x30C0A, size: 0x8, addend: 0x0, symName: __ZNSt3__130__uninitialized_allocator_copyB8ue170006INS_9allocatorIN8nlohmann16json_abi_v3_11_310basic_jsonINS_3mapENS_6vectorENS_12basic_stringIcNS_11char_traitsIcEENS1_IcEEEEbxydS1_NS3_14adl_serializerENS6_IhNS1_IhEEEEvEEEEPKNS3_6detail8json_refISF_EESL_PSF_EET2_RT_T0_T1_SN_, symObjAddr: 0x2F6FC, symBinAddr: 0x100030C74, symSize: 0x80 }
  - { offsetInCU: 0x30CA8, offset: 0x30CA8, size: 0x8, addend: 0x0, symName: __ZNSt3__114__unwrap_rangeB8ue170006IPKN8nlohmann16json_abi_v3_11_36detail8json_refINS2_10basic_jsonINS_3mapENS_6vectorENS_12basic_stringIcNS_11char_traitsIcEENS_9allocatorIcEEEEbxydSB_NS2_14adl_serializerENS7_IhNSB_IhEEEEvEEEESK_EEDaT_T0_, symObjAddr: 0x2F77C, symBinAddr: 0x100030CF4, symSize: 0x3C }
  - { offsetInCU: 0x30CF4, offset: 0x30CF4, size: 0x8, addend: 0x0, symName: __ZNSt3__135__uninitialized_allocator_copy_implB8ue170006INS_9allocatorIN8nlohmann16json_abi_v3_11_310basic_jsonINS_3mapENS_6vectorENS_12basic_stringIcNS_11char_traitsIcEENS1_IcEEEEbxydS1_NS3_14adl_serializerENS6_IhNS1_IhEEEEvEEEEPKNS3_6detail8json_refISF_EESL_PSF_EET2_RT_T0_T1_SN_, symObjAddr: 0x2F7B8, symBinAddr: 0x100030D30, symSize: 0xF4 }
  - { offsetInCU: 0x30E95, offset: 0x30E95, size: 0x8, addend: 0x0, symName: __ZNSt3__113__unwrap_iterB8ue170006IPKN8nlohmann16json_abi_v3_11_36detail8json_refINS2_10basic_jsonINS_3mapENS_6vectorENS_12basic_stringIcNS_11char_traitsIcEENS_9allocatorIcEEEEbxydSB_NS2_14adl_serializerENS7_IhNSB_IhEEEEvEEEENS_18__unwrap_iter_implISK_Lb1EEELi0EEEDTclsrT0_8__unwrapclsr3stdE7declvalIT_EEEESO_, symObjAddr: 0x2F904, symBinAddr: 0x100030E7C, symSize: 0x24 }
  - { offsetInCU: 0x30F2D, offset: 0x30F2D, size: 0x8, addend: 0x0, symName: __ZNSt3__112__to_addressB8ue170006IKN8nlohmann16json_abi_v3_11_36detail8json_refINS2_10basic_jsonINS_3mapENS_6vectorENS_12basic_stringIcNS_11char_traitsIcEENS_9allocatorIcEEEEbxydSB_NS2_14adl_serializerENS7_IhNSB_IhEEEEvEEEEEEPT_SL_, symObjAddr: 0x2F988, symBinAddr: 0x100030F00, symSize: 0x14 }
  - { offsetInCU: 0x30F63, offset: 0x30F63, size: 0x8, addend: 0x0, symName: __ZNSt3__112construct_atB8ue170006IN8nlohmann16json_abi_v3_11_310basic_jsonINS_3mapENS_6vectorENS_12basic_stringIcNS_11char_traitsIcEENS_9allocatorIcEEEEbxydS9_NS2_14adl_serializerENS5_IhNS9_IhEEEEvEEJRKNS2_6detail8json_refISF_EEEPSF_EEPT_SN_DpOT0_, symObjAddr: 0x2FA00, symBinAddr: 0x100030F78, symSize: 0x3C }
  - { offsetInCU: 0x30FD6, offset: 0x30FD6, size: 0x8, addend: 0x0, symName: __ZNSt3__112construct_atB8ue170006IN8nlohmann16json_abi_v3_11_310basic_jsonINS_3mapENS_6vectorENS_12basic_stringIcNS_11char_traitsIcEENS_9allocatorIcEEEEbxydS9_NS2_14adl_serializerENS5_IhNS9_IhEEEEvEEJRKSF_EPSF_EEPT_SK_DpOT0_, symObjAddr: 0x2FE2C, symBinAddr: 0x1000313A4, symSize: 0x3C }
  - { offsetInCU: 0x31D77, offset: 0x31D77, size: 0x8, addend: 0x0, symName: __ZSt28__throw_bad_array_new_lengthB8ue170006v, symObjAddr: 0x83B4, symBinAddr: 0x10000992C, symSize: 0x34 }
  - { offsetInCU: 0x31EDD, offset: 0x31EDD, size: 0x8, addend: 0x0, symName: __ZN8nlohmann16json_abi_v3_11_36detail12static_constINS1_12from_json_fnEE5valueE, symObjAddr: 0x32D47, symBinAddr: 0x10003FC77, symSize: 0x0 }
  - { offsetInCU: 0x33DEF, offset: 0x33DEF, size: 0x8, addend: 0x0, symName: __ZNSt3__16vectorIN8nlohmann16json_abi_v3_11_310basic_jsonINS_3mapES0_NS_12basic_stringIcNS_11char_traitsIcEENS_9allocatorIcEEEEbxydS8_NS2_14adl_serializerENS0_IhNS8_IhEEEEvEENS8_ISE_EEE26__swap_out_circular_bufferERNS_14__split_bufferISE_RSF_EE, symObjAddr: 0x7DDC, symBinAddr: 0x100009354, symSize: 0x110 }
  - { offsetInCU: 0x34140, offset: 0x34140, size: 0x8, addend: 0x0, symName: __ZNSt3__16vectorIcNS_9allocatorIcEEE26__swap_out_circular_bufferERNS_14__split_bufferIcRS2_EE, symObjAddr: 0x13DEC, symBinAddr: 0x100015364, symSize: 0x110 }
  - { offsetInCU: 0x344BD, offset: 0x344BD, size: 0x8, addend: 0x0, symName: __ZNSt3__16vectorIPN8nlohmann16json_abi_v3_11_310basic_jsonINS_3mapES0_NS_12basic_stringIcNS_11char_traitsIcEENS_9allocatorIcEEEEbxydS8_NS2_14adl_serializerENS0_IhNS8_IhEEEEvEENS8_ISF_EEE26__swap_out_circular_bufferERNS_14__split_bufferISF_RSG_EE, symObjAddr: 0x1D448, symBinAddr: 0x10001E9C0, symSize: 0x110 }
  - { offsetInCU: 0x34E43, offset: 0x34E43, size: 0x8, addend: 0x0, symName: __Z7isspacei, symObjAddr: 0x2CAC, symBinAddr: 0x100004224, symSize: 0x28 }
  - { offsetInCU: 0x34E9D, offset: 0x34E9D, size: 0x8, addend: 0x0, symName: __Z7toloweri, symObjAddr: 0x1E14, symBinAddr: 0x10000338C, symSize: 0x24 }
  - { offsetInCU: 0x3696B, offset: 0x3696B, size: 0x8, addend: 0x0, symName: __Z17matchTransactionsNSt3__14listI11TransactionNS_9allocatorIS1_EEEES4_, symObjAddr: 0x0, symBinAddr: 0x100001578, symSize: 0x2C4 }
  - { offsetInCU: 0x36AFE, offset: 0x36AFE, size: 0x8, addend: 0x0, symName: __ZNSt3__14listINS0_I11TransactionNS_9allocatorIS1_EEEENS2_IS4_EEEC1B8ue170006Ev, symObjAddr: 0x2C4, symBinAddr: 0x10000183C, symSize: 0x2C }
  - { offsetInCU: 0x36B28, offset: 0x36B28, size: 0x8, addend: 0x0, symName: __Z9isMatched11TransactionS_i, symObjAddr: 0x37C, symBinAddr: 0x1000018F4, symSize: 0x1C8 }
  - { offsetInCU: 0x36BB9, offset: 0x36BB9, size: 0x8, addend: 0x0, symName: __ZNKSt3__115__list_iteratorI11TransactionPvEdeB8ue170006Ev, symObjAddr: 0x544, symBinAddr: 0x100001ABC, symSize: 0x2C }
  - { offsetInCU: 0x36BE5, offset: 0x36BE5, size: 0x8, addend: 0x0, symName: __ZN11TransactionC1ERKS_, symObjAddr: 0x570, symBinAddr: 0x100001AE8, symSize: 0x34 }
  - { offsetInCU: 0x36C1A, offset: 0x36C1A, size: 0x8, addend: 0x0, symName: __ZN11TransactionD1Ev, symObjAddr: 0x5A4, symBinAddr: 0x100001B1C, symSize: 0x2C }
  - { offsetInCU: 0x36C46, offset: 0x36C46, size: 0x8, addend: 0x0, symName: __ZNSt3__14listINS0_I11TransactionNS_9allocatorIS1_EEEENS2_IS4_EEE9push_backEOS4_, symObjAddr: 0x5D0, symBinAddr: 0x100001B48, symSize: 0xF4 }
  - { offsetInCU: 0x36C9B, offset: 0x36C9B, size: 0x8, addend: 0x0, symName: __ZNSt3__14listI11TransactionNS_9allocatorIS1_EEEC1EmRKS1_, symObjAddr: 0x6C4, symBinAddr: 0x100001C3C, symSize: 0x3C }
  - { offsetInCU: 0x36CE5, offset: 0x36CE5, size: 0x8, addend: 0x0, symName: __ZNSt3__14listI11TransactionNS_9allocatorIS1_EEED1Ev, symObjAddr: 0x700, symBinAddr: 0x100001C78, symSize: 0x2C }
  - { offsetInCU: 0x36D12, offset: 0x36D12, size: 0x8, addend: 0x0, symName: __ZNSt3__14listINS0_I11TransactionNS_9allocatorIS1_EEEENS2_IS4_EEE4backB8ue170006Ev, symObjAddr: 0x72C, symBinAddr: 0x100001CA4, symSize: 0x2C }
  - { offsetInCU: 0x36D38, offset: 0x36D38, size: 0x8, addend: 0x0, symName: __ZNSt3__14listI11TransactionNS_9allocatorIS1_EEE9push_backERKS1_, symObjAddr: 0x758, symBinAddr: 0x100001CD0, symSize: 0xF4 }
  - { offsetInCU: 0x36D8D, offset: 0x36D8D, size: 0x8, addend: 0x0, symName: __ZNSt3__115__list_iteratorI11TransactionPvEppB8ue170006Ei, symObjAddr: 0x84C, symBinAddr: 0x100001DC4, symSize: 0x34 }
  - { offsetInCU: 0x36DCD, offset: 0x36DCD, size: 0x8, addend: 0x0, symName: __ZNSt3__14listINS0_I11TransactionNS_9allocatorIS1_EEEENS2_IS4_EEED1Ev, symObjAddr: 0x880, symBinAddr: 0x100001DF8, symSize: 0x2C }
  - { offsetInCU: 0x36DFA, offset: 0x36DFA, size: 0x8, addend: 0x0, symName: __Z25probableMatchTransactionsNSt3__14listI11TransactionNS_9allocatorIS1_EEEES4_, symObjAddr: 0x8AC, symBinAddr: 0x100001E24, symSize: 0x410 }
  - { offsetInCU: 0x36E79, offset: 0x36E79, size: 0x8, addend: 0x0, symName: __Z19unmatchTransactionsNSt3__14listI11TransactionNS_9allocatorIS1_EEEES4_, symObjAddr: 0xCBC, symBinAddr: 0x100002234, symSize: 0x6E4 }
  - { offsetInCU: 0x36F68, offset: 0x36F68, size: 0x8, addend: 0x0, symName: __ZNSt3__14listI11TransactionNS_9allocatorIS1_EEEC1B8ue170006Ev, symObjAddr: 0x13A0, symBinAddr: 0x100002918, symSize: 0x2C }
  - { offsetInCU: 0x36F92, offset: 0x36F92, size: 0x8, addend: 0x0, symName: __Z9diffDatesNSt3__112basic_stringIcNS_11char_traitsIcEENS_9allocatorIcEEEES5_, symObjAddr: 0x13CC, symBinAddr: 0x100002944, symSize: 0x2D0 }
  - { offsetInCU: 0x37037, offset: 0x37037, size: 0x8, addend: 0x0, symName: __ZNKSt3__112basic_stringIcNS_11char_traitsIcEENS_9allocatorIcEEE6substrB8ue170006Emm, symObjAddr: 0x169C, symBinAddr: 0x100002C14, symSize: 0x68 }
  - { offsetInCU: 0x3707B, offset: 0x3707B, size: 0x8, addend: 0x0, symName: __Z15withinDateRangeNSt3__112basic_stringIcNS_11char_traitsIcEENS_9allocatorIcEEEES5_, symObjAddr: 0x1704, symBinAddr: 0x100002C7C, symSize: 0x104 }
  - { offsetInCU: 0x370C6, offset: 0x370C6, size: 0x8, addend: 0x0, symName: __Z16relatedNarrationNSt3__112basic_stringIcNS_11char_traitsIcEENS_9allocatorIcEEEES5_, symObjAddr: 0x1808, symBinAddr: 0x100002D80, symSize: 0x4D4 }
  - { offsetInCU: 0x371EA, offset: 0x371EA, size: 0x8, addend: 0x0, symName: __ZNSt3__112basic_stringIcNS_11char_traitsIcEENS_9allocatorIcEEE5beginB8ue170006Ev, symObjAddr: 0x1D74, symBinAddr: 0x1000032EC, symSize: 0x4C }
  - { offsetInCU: 0x37210, offset: 0x37210, size: 0x8, addend: 0x0, symName: __ZNSt3__112basic_stringIcNS_11char_traitsIcEENS_9allocatorIcEEE3endB8ue170006Ev, symObjAddr: 0x1DC0, symBinAddr: 0x100003338, symSize: 0x54 }
  - { offsetInCU: 0x37236, offset: 0x37236, size: 0x8, addend: 0x0, symName: __Z11splitStringNSt3__112basic_stringIcNS_11char_traitsIcEENS_9allocatorIcEEEEc, symObjAddr: 0x1E38, symBinAddr: 0x1000033B0, symSize: 0x2CC }
  - { offsetInCU: 0x373CB, offset: 0x373CB, size: 0x8, addend: 0x0, symName: __ZNKSt3__14listINS_12basic_stringIcNS_11char_traitsIcEENS_9allocatorIcEEEENS4_IS6_EEE4sizeB8ue170006Ev, symObjAddr: 0x2104, symBinAddr: 0x10000367C, symSize: 0x28 }
  - { offsetInCU: 0x373F1, offset: 0x373F1, size: 0x8, addend: 0x0, symName: __ZNKSt3__115__list_iteratorINS_12basic_stringIcNS_11char_traitsIcEENS_9allocatorIcEEEEPvEdeB8ue170006Ev, symObjAddr: 0x21B8, symBinAddr: 0x100003730, symSize: 0x2C }
  - { offsetInCU: 0x37417, offset: 0x37417, size: 0x8, addend: 0x0, symName: __ZNKSt3__112basic_stringIcNS_11char_traitsIcEENS_9allocatorIcEEE7compareB8ue170006ERKS5_, symObjAddr: 0x21E4, symBinAddr: 0x10000375C, symSize: 0x4C }
  - { offsetInCU: 0x3744E, offset: 0x3744E, size: 0x8, addend: 0x0, symName: __ZNSt3__115__list_iteratorINS_12basic_stringIcNS_11char_traitsIcEENS_9allocatorIcEEEEPvEppB8ue170006Ei, symObjAddr: 0x2230, symBinAddr: 0x1000037A8, symSize: 0x34 }
  - { offsetInCU: 0x3748E, offset: 0x3748E, size: 0x8, addend: 0x0, symName: __ZNSt3__14listINS_12basic_stringIcNS_11char_traitsIcEENS_9allocatorIcEEEENS4_IS6_EEED1Ev, symObjAddr: 0x2264, symBinAddr: 0x1000037DC, symSize: 0x2C }
  - { offsetInCU: 0x374BB, offset: 0x374BB, size: 0x8, addend: 0x0, symName: __Z7displayNSt3__14listINS0_I11TransactionNS_9allocatorIS1_EEEENS2_IS4_EEEE, symObjAddr: 0x2290, symBinAddr: 0x100003808, symSize: 0x2EC }
  - { offsetInCU: 0x37548, offset: 0x37548, size: 0x8, addend: 0x0, symName: __ZNSt3__113basic_ostreamIcNS_11char_traitsIcEEElsB8ue170006EPFRS3_S4_E, symObjAddr: 0x25C4, symBinAddr: 0x100003B3C, symSize: 0x2C }
  - { offsetInCU: 0x3757C, offset: 0x3757C, size: 0x8, addend: 0x0, symName: __ZNKSt3__115__list_iteratorINS_4listI11TransactionNS_9allocatorIS2_EEEEPvEdeB8ue170006Ev, symObjAddr: 0x26A8, symBinAddr: 0x100003C20, symSize: 0x2C }
  - { offsetInCU: 0x375A2, offset: 0x375A2, size: 0x8, addend: 0x0, symName: __ZNSt3__115__list_iteratorI11TransactionPvEppB8ue170006Ev, symObjAddr: 0x2704, symBinAddr: 0x100003C7C, symSize: 0x20 }
  - { offsetInCU: 0x375C8, offset: 0x375C8, size: 0x8, addend: 0x0, symName: __ZNKSt3__115__list_iteratorI11TransactionPvEptB8ue170006Ev, symObjAddr: 0x2724, symBinAddr: 0x100003C9C, symSize: 0x30 }
  - { offsetInCU: 0x375EE, offset: 0x375EE, size: 0x8, addend: 0x0, symName: __Z15percentMatching11TransactionS_, symObjAddr: 0x2754, symBinAddr: 0x100003CCC, symSize: 0x18C }
  - { offsetInCU: 0x37663, offset: 0x37663, size: 0x8, addend: 0x0, symName: __ZNSt3__115__list_iteratorI11TransactionPvEmmB8ue170006Ev, symObjAddr: 0x28E0, symBinAddr: 0x100003E58, symSize: 0x20 }
  - { offsetInCU: 0x37689, offset: 0x37689, size: 0x8, addend: 0x0, symName: __ZNSt3__115__list_iteratorINS_4listI11TransactionNS_9allocatorIS2_EEEEPvEppB8ue170006Ev, symObjAddr: 0x2988, symBinAddr: 0x100003F00, symSize: 0x20 }
  - { offsetInCU: 0x376AF, offset: 0x376AF, size: 0x8, addend: 0x0, symName: __ZNSt3__115__list_iteratorINS_4listI11TransactionNS_9allocatorIS2_EEEEPvEppB8ue170006Ei, symObjAddr: 0x29A8, symBinAddr: 0x100003F20, symSize: 0x34 }
  - { offsetInCU: 0x376EF, offset: 0x376EF, size: 0x8, addend: 0x0, symName: __Z7displayNSt3__14listI11TransactionNS_9allocatorIS1_EEEE, symObjAddr: 0x29DC, symBinAddr: 0x100003F54, symSize: 0x124 }
  - { offsetInCU: 0x37752, offset: 0x37752, size: 0x8, addend: 0x0, symName: __ZNSt3__112basic_stringIcNS_11char_traitsIcEENS_9allocatorIcEEE5eraseB8ue170006ENS_11__wrap_iterIPKcEES9_, symObjAddr: 0x2B00, symBinAddr: 0x100004078, symSize: 0x98 }
  - { offsetInCU: 0x377C2, offset: 0x377C2, size: 0x8, addend: 0x0, symName: __ZNSt3__111__wrap_iterIPKcEC1B8ue170006IPcEERKNS0_IT_EEPNS_9enable_ifIXsr14is_convertibleIS6_S2_EE5valueEvE4typeE, symObjAddr: 0x2CD4, symBinAddr: 0x10000424C, symSize: 0x3C }
  - { offsetInCU: 0x3780E, offset: 0x3780E, size: 0x8, addend: 0x0, symName: __ZNSt3__14listINS_12basic_stringIcNS_11char_traitsIcEENS_9allocatorIcEEEENS4_IS6_EEEC1B8ue170006Ev, symObjAddr: 0x2D10, symBinAddr: 0x100004288, symSize: 0x2C }
  - { offsetInCU: 0x37838, offset: 0x37838, size: 0x8, addend: 0x0, symName: __ZNKSt3__112basic_stringIcNS_11char_traitsIcEENS_9allocatorIcEEE6lengthB8ue170006Ev, symObjAddr: 0x2D3C, symBinAddr: 0x1000042B4, symSize: 0x24 }
  - { offsetInCU: 0x3785E, offset: 0x3785E, size: 0x8, addend: 0x0, symName: __ZNSt3__112basic_stringIcNS_11char_traitsIcEENS_9allocatorIcEEEixB8ue170006Em, symObjAddr: 0x2D60, symBinAddr: 0x1000042D8, symSize: 0x30 }
  - { offsetInCU: 0x37899, offset: 0x37899, size: 0x8, addend: 0x0, symName: __ZNSt3__112basic_stringIcNS_11char_traitsIcEENS_9allocatorIcEEEC1B8ue170006ILi0EEEPKc, symObjAddr: 0x2D90, symBinAddr: 0x100004308, symSize: 0x34 }
  - { offsetInCU: 0x378D8, offset: 0x378D8, size: 0x8, addend: 0x0, symName: __ZNSt3__14listINS_12basic_stringIcNS_11char_traitsIcEENS_9allocatorIcEEEENS4_IS6_EEE9push_backERKS6_, symObjAddr: 0x2DC4, symBinAddr: 0x10000433C, symSize: 0xF4 }
  - { offsetInCU: 0x3792D, offset: 0x3792D, size: 0x8, addend: 0x0, symName: __Z12readJsonFileRNSt3__14listI11TransactionNS_9allocatorIS1_EEEENS_12basic_stringIcNS_11char_traitsIcEENS2_IcEEEE, symObjAddr: 0x2EB8, symBinAddr: 0x100004430, symSize: 0x318 }
  - { offsetInCU: 0x37ABF, offset: 0x37ABF, size: 0x8, addend: 0x0, symName: __ZNSt3__114basic_ifstreamIcNS_11char_traitsIcEEEC1ERKNS_12basic_stringIcS2_NS_9allocatorIcEEEEj, symObjAddr: 0x31D0, symBinAddr: 0x100004748, symSize: 0x16C }
  - { offsetInCU: 0x37B09, offset: 0x37B09, size: 0x8, addend: 0x0, symName: __ZN8nlohmann16json_abi_v3_11_310basic_jsonINSt3__13mapENS2_6vectorENS2_12basic_stringIcNS2_11char_traitsIcEENS2_9allocatorIcEEEEbxydS8_NS0_14adl_serializerENS4_IhNS8_IhEEEEvEC1EDn, symObjAddr: 0x333C, symBinAddr: 0x1000048B4, symSize: 0x4C }
  - { offsetInCU: 0x37B3E, offset: 0x37B3E, size: 0x8, addend: 0x0, symName: __ZN8nlohmann16json_abi_v3_11_310basic_jsonINSt3__13mapENS2_6vectorENS2_12basic_stringIcNS2_11char_traitsIcEENS2_9allocatorIcEEEEbxydS8_NS0_14adl_serializerENS4_IhNS8_IhEEEEvEixIKcEERSE_PT_, symObjAddr: 0x34A8, symBinAddr: 0x100004A20, symSize: 0x78 }
  - { offsetInCU: 0x37B7C, offset: 0x37B7C, size: 0x8, addend: 0x0, symName: __ZN8nlohmann16json_abi_v3_11_310basic_jsonINSt3__13mapENS2_6vectorENS2_12basic_stringIcNS2_11char_traitsIcEENS2_9allocatorIcEEEEbxydS8_NS0_14adl_serializerENS4_IhNS8_IhEEEEvE5beginEv, symObjAddr: 0x3520, symBinAddr: 0x100004A98, symSize: 0x40 }
  - { offsetInCU: 0x37BB2, offset: 0x37BB2, size: 0x8, addend: 0x0, symName: __ZN8nlohmann16json_abi_v3_11_310basic_jsonINSt3__13mapENS2_6vectorENS2_12basic_stringIcNS2_11char_traitsIcEENS2_9allocatorIcEEEEbxydS8_NS0_14adl_serializerENS4_IhNS8_IhEEEEvE3endEv, symObjAddr: 0x3560, symBinAddr: 0x100004AD8, symSize: 0x40 }
  - { offsetInCU: 0x37BE8, offset: 0x37BE8, size: 0x8, addend: 0x0, symName: __ZNK8nlohmann16json_abi_v3_11_36detail9iter_implINS0_10basic_jsonINSt3__13mapENS4_6vectorENS4_12basic_stringIcNS4_11char_traitsIcEENS4_9allocatorIcEEEEbxydSA_NS0_14adl_serializerENS6_IhNSA_IhEEEEvEEEneISH_LDn0EEEbRKT_, symObjAddr: 0x35A0, symBinAddr: 0x100004B18, symSize: 0x34 }
  - { offsetInCU: 0x37C2C, offset: 0x37C2C, size: 0x8, addend: 0x0, symName: __ZNK8nlohmann16json_abi_v3_11_36detail9iter_implINS0_10basic_jsonINSt3__13mapENS4_6vectorENS4_12basic_stringIcNS4_11char_traitsIcEENS4_9allocatorIcEEEEbxydSA_NS0_14adl_serializerENS6_IhNSA_IhEEEEvEEEdeEv, symObjAddr: 0x35D4, symBinAddr: 0x100004B4C, symSize: 0x32C }
  - { offsetInCU: 0x37C52, offset: 0x37C52, size: 0x8, addend: 0x0, symName: __ZNK8nlohmann16json_abi_v3_11_310basic_jsonINSt3__13mapENS2_6vectorENS2_12basic_stringIcNS2_11char_traitsIcEENS2_9allocatorIcEEEEbxydS8_NS0_14adl_serializerENS4_IhNS8_IhEEEEvEixIKcEERKSE_PT_, symObjAddr: 0x3928, symBinAddr: 0x100004EA0, symSize: 0x78 }
  - { offsetInCU: 0x37C90, offset: 0x37C90, size: 0x8, addend: 0x0, symName: __ZNK8nlohmann16json_abi_v3_11_310basic_jsonINSt3__13mapENS2_6vectorENS2_12basic_stringIcNS2_11char_traitsIcEENS2_9allocatorIcEEEEbxydS8_NS0_14adl_serializerENS4_IhNS8_IhEEEEvEcvT_IiLi0EEEv, symObjAddr: 0x39A0, symBinAddr: 0x100004F18, symSize: 0x24 }
  - { offsetInCU: 0x37CC5, offset: 0x37CC5, size: 0x8, addend: 0x0, symName: __ZNK8nlohmann16json_abi_v3_11_310basic_jsonINSt3__13mapENS2_6vectorENS2_12basic_stringIcNS2_11char_traitsIcEENS2_9allocatorIcEEEEbxydS8_NS0_14adl_serializerENS4_IhNS8_IhEEEEvEcvT_ISA_Li0EEEv, symObjAddr: 0x39C4, symBinAddr: 0x100004F3C, symSize: 0x2C }
  - { offsetInCU: 0x37CFA, offset: 0x37CFA, size: 0x8, addend: 0x0, symName: __ZNSt3__14listI11TransactionNS_9allocatorIS1_EEE9push_backEOS1_, symObjAddr: 0x39F0, symBinAddr: 0x100004F68, symSize: 0xEC }
  - { offsetInCU: 0x37D4F, offset: 0x37D4F, size: 0x8, addend: 0x0, symName: __ZN8nlohmann16json_abi_v3_11_36detail9iter_implINS0_10basic_jsonINSt3__13mapENS4_6vectorENS4_12basic_stringIcNS4_11char_traitsIcEENS4_9allocatorIcEEEEbxydSA_NS0_14adl_serializerENS6_IhNSA_IhEEEEvEEEppEv, symObjAddr: 0x3ADC, symBinAddr: 0x100005054, symSize: 0xE0 }
  - { offsetInCU: 0x37D75, offset: 0x37D75, size: 0x8, addend: 0x0, symName: __ZN8nlohmann16json_abi_v3_11_310basic_jsonINSt3__13mapENS2_6vectorENS2_12basic_stringIcNS2_11char_traitsIcEENS2_9allocatorIcEEEEbxydS8_NS0_14adl_serializerENS4_IhNS8_IhEEEEvED1Ev, symObjAddr: 0x3BE4, symBinAddr: 0x10000515C, symSize: 0x2C }
  - { offsetInCU: 0x37DA5, offset: 0x37DA5, size: 0x8, addend: 0x0, symName: __ZNSt3__114basic_ifstreamIcNS_11char_traitsIcEEED1Ev, symObjAddr: 0x3C10, symBinAddr: 0x100005188, symSize: 0x40 }
  - { offsetInCU: 0x37DD2, offset: 0x37DD2, size: 0x8, addend: 0x0, symName: __Z24convertToJsonListOfListsNSt3__14listINS0_I11TransactionNS_9allocatorIS1_EEEENS2_IS4_EEEENS_12basic_stringIcNS_11char_traitsIcEENS2_IcEEEESB_, symObjAddr: 0x3C50, symBinAddr: 0x1000051C8, symSize: 0x834 }
  - { offsetInCU: 0x37EB0, offset: 0x37EB0, size: 0x8, addend: 0x0, symName: __ZN8nlohmann16json_abi_v3_11_310basic_jsonINSt3__13mapENS2_6vectorENS2_12basic_stringIcNS2_11char_traitsIcEENS2_9allocatorIcEEEEbxydS8_NS0_14adl_serializerENS4_IhNS8_IhEEEEvE5arrayESt16initializer_listINS0_6detail8json_refISE_EEE, symObjAddr: 0x4484, symBinAddr: 0x1000059FC, symSize: 0x54 }
  - { offsetInCU: 0x37ED4, offset: 0x37ED4, size: 0x8, addend: 0x0, symName: __ZNSt16initializer_listIN8nlohmann16json_abi_v3_11_36detail8json_refINS1_10basic_jsonINSt3__13mapENS5_6vectorENS5_12basic_stringIcNS5_11char_traitsIcEENS5_9allocatorIcEEEEbxydSB_NS1_14adl_serializerENS7_IhNSB_IhEEEEvEEEEEC1B8ue170006Ev, symObjAddr: 0x44D8, symBinAddr: 0x100005A50, symSize: 0x2C }
  - { offsetInCU: 0x37EFE, offset: 0x37EFE, size: 0x8, addend: 0x0, symName: __ZN8nlohmann16json_abi_v3_11_310basic_jsonINSt3__13mapENS2_6vectorENS2_12basic_stringIcNS2_11char_traitsIcEENS2_9allocatorIcEEEEbxydS8_NS0_14adl_serializerENS4_IhNS8_IhEEEEvE9push_backEOSE_, symObjAddr: 0x4504, symBinAddr: 0x100005A7C, symSize: 0x1B0 }
  - { offsetInCU: 0x37F42, offset: 0x37F42, size: 0x8, addend: 0x0, symName: __ZN8nlohmann16json_abi_v3_11_36detail8json_refINS0_10basic_jsonINSt3__13mapENS4_6vectorENS4_12basic_stringIcNS4_11char_traitsIcEENS4_9allocatorIcEEEEbxydSA_NS0_14adl_serializerENS6_IhNSA_IhEEEEvEEEC1IJRSC_ELi0EEEDpOT_, symObjAddr: 0x46B4, symBinAddr: 0x100005C2C, symSize: 0x34 }
  - { offsetInCU: 0x37F92, offset: 0x37F92, size: 0x8, addend: 0x0, symName: __ZN8nlohmann16json_abi_v3_11_36detail8json_refINS0_10basic_jsonINSt3__13mapENS4_6vectorENS4_12basic_stringIcNS4_11char_traitsIcEENS4_9allocatorIcEEEEbxydSA_NS0_14adl_serializerENS6_IhNSA_IhEEEEvEEEC1IJdELi0EEEDpOT_, symObjAddr: 0x46E8, symBinAddr: 0x100005C60, symSize: 0x34 }
  - { offsetInCU: 0x37FDC, offset: 0x37FDC, size: 0x8, addend: 0x0, symName: __ZN8nlohmann16json_abi_v3_11_36detail8json_refINS0_10basic_jsonINSt3__13mapENS4_6vectorENS4_12basic_stringIcNS4_11char_traitsIcEENS4_9allocatorIcEEEEbxydSA_NS0_14adl_serializerENS6_IhNSA_IhEEEEvEEEC1ESt16initializer_listISH_E, symObjAddr: 0x471C, symBinAddr: 0x100005C94, symSize: 0x3C }
  - { offsetInCU: 0x38015, offset: 0x38015, size: 0x8, addend: 0x0, symName: __ZN8nlohmann16json_abi_v3_11_310basic_jsonINSt3__13mapENS2_6vectorENS2_12basic_stringIcNS2_11char_traitsIcEENS2_9allocatorIcEEEEbxydS8_NS0_14adl_serializerENS4_IhNS8_IhEEEEvEC1ESt16initializer_listINS0_6detail8json_refISE_EEEbNSG_7value_tE, symObjAddr: 0x4758, symBinAddr: 0x100005CD0, symSize: 0x58 }
  - { offsetInCU: 0x3806C, offset: 0x3806C, size: 0x8, addend: 0x0, symName: __ZN8nlohmann16json_abi_v3_11_36detail8json_refINS0_10basic_jsonINSt3__13mapENS4_6vectorENS4_12basic_stringIcNS4_11char_traitsIcEENS4_9allocatorIcEEEEbxydSA_NS0_14adl_serializerENS6_IhNSA_IhEEEEvEEED1Ev, symObjAddr: 0x47B0, symBinAddr: 0x100005D28, symSize: 0x2C }
  - { offsetInCU: 0x38096, offset: 0x38096, size: 0x8, addend: 0x0, symName: __ZN8nlohmann16json_abi_v3_11_310basic_jsonINSt3__13mapENS2_6vectorENS2_12basic_stringIcNS2_11char_traitsIcEENS2_9allocatorIcEEEEbxydS8_NS0_14adl_serializerENS4_IhNS8_IhEEEEvE9push_backERKSE_, symObjAddr: 0x47DC, symBinAddr: 0x100005D54, symSize: 0x1B0 }
  - { offsetInCU: 0x380DA, offset: 0x380DA, size: 0x8, addend: 0x0, symName: __ZN8nlohmann16json_abi_v3_11_36detail8json_refINS0_10basic_jsonINSt3__13mapENS4_6vectorENS4_12basic_stringIcNS4_11char_traitsIcEENS4_9allocatorIcEEEEbxydSA_NS0_14adl_serializerENS6_IhNSA_IhEEEEvEEEC1IJRSG_ELi0EEEDpOT_, symObjAddr: 0x498C, symBinAddr: 0x100005F04, symSize: 0x34 }
  - { offsetInCU: 0x38123, offset: 0x38123, size: 0x8, addend: 0x0, symName: __Z17convertToJsonListNSt3__14listI11TransactionNS_9allocatorIS1_EEEENS_12basic_stringIcNS_11char_traitsIcEENS2_IcEEEE, symObjAddr: 0x49C0, symBinAddr: 0x100005F38, symSize: 0x2DC }
  - { offsetInCU: 0x381D6, offset: 0x381D6, size: 0x8, addend: 0x0, symName: __ZNSt3__14listI11TransactionNS_9allocatorIS1_EEE5beginB8ue170006Ev, symObjAddr: 0x4C9C, symBinAddr: 0x100006214, symSize: 0x2C }
  - { offsetInCU: 0x381FC, offset: 0x381FC, size: 0x8, addend: 0x0, symName: __ZNSt3__14listI11TransactionNS_9allocatorIS1_EEE3endB8ue170006Ev, symObjAddr: 0x4CC8, symBinAddr: 0x100006240, symSize: 0x2C }
  - { offsetInCU: 0x38221, offset: 0x38221, size: 0x8, addend: 0x0, symName: __Z14makeJsonObjectN8nlohmann16json_abi_v3_11_310basic_jsonINSt3__13mapENS2_6vectorENS2_12basic_stringIcNS2_11char_traitsIcEENS2_9allocatorIcEEEEbxydS8_NS0_14adl_serializerENS4_IhNS8_IhEEEEvEESE_SE_, symObjAddr: 0x4CF4, symBinAddr: 0x10000626C, symSize: 0x1E8 }
  - { offsetInCU: 0x38274, offset: 0x38274, size: 0x8, addend: 0x0, symName: __ZN11TransactionC2ERKS_, symObjAddr: 0x4EDC, symBinAddr: 0x100006454, symSize: 0x88 }
  - { offsetInCU: 0x382A9, offset: 0x382A9, size: 0x8, addend: 0x0, symName: __ZN11TransactionD2Ev, symObjAddr: 0x4F64, symBinAddr: 0x1000064DC, symSize: 0x3C }
  - { offsetInCU: 0x382D5, offset: 0x382D5, size: 0x8, addend: 0x0, symName: __ZNSt3__14listI11TransactionNS_9allocatorIS1_EEED2Ev, symObjAddr: 0x4FA0, symBinAddr: 0x100006518, symSize: 0x2C }
  - { offsetInCU: 0x38302, offset: 0x38302, size: 0x8, addend: 0x0, symName: __ZNSt3__110__list_impI11TransactionNS_9allocatorIS1_EEED2Ev, symObjAddr: 0x4FCC, symBinAddr: 0x100006544, symSize: 0x2C }
  - { offsetInCU: 0x3832E, offset: 0x3832E, size: 0x8, addend: 0x0, symName: __ZNSt3__110__list_impI11TransactionNS_9allocatorIS1_EEE5clearEv, symObjAddr: 0x4FF8, symBinAddr: 0x100006570, symSize: 0xE0 }
  - { offsetInCU: 0x383A0, offset: 0x383A0, size: 0x8, addend: 0x0, symName: __ZNKSt3__110__list_impI11TransactionNS_9allocatorIS1_EEE5emptyB8ue170006Ev, symObjAddr: 0x50D8, symBinAddr: 0x100006650, symSize: 0x34 }
  - { offsetInCU: 0x383C6, offset: 0x383C6, size: 0x8, addend: 0x0, symName: __ZNSt3__110__list_impI11TransactionNS_9allocatorIS1_EEE12__node_allocB8ue170006Ev, symObjAddr: 0x510C, symBinAddr: 0x100006684, symSize: 0x28 }
  - { offsetInCU: 0x383EC, offset: 0x383EC, size: 0x8, addend: 0x0, symName: __ZNKSt3__110__list_impI11TransactionNS_9allocatorIS1_EEE13__end_as_linkB8ue170006Ev, symObjAddr: 0x5134, symBinAddr: 0x1000066AC, symSize: 0x44 }
  - { offsetInCU: 0x38412, offset: 0x38412, size: 0x8, addend: 0x0, symName: __ZNSt3__110__list_impI11TransactionNS_9allocatorIS1_EEE14__unlink_nodesEPNS_16__list_node_baseIS1_PvEES8_, symObjAddr: 0x5178, symBinAddr: 0x1000066F0, symSize: 0x3C }
  - { offsetInCU: 0x38447, offset: 0x38447, size: 0x8, addend: 0x0, symName: __ZNSt3__110__list_impI11TransactionNS_9allocatorIS1_EEE4__szB8ue170006Ev, symObjAddr: 0x51B4, symBinAddr: 0x10000672C, symSize: 0x28 }
  - { offsetInCU: 0x3846D, offset: 0x3846D, size: 0x8, addend: 0x0, symName: __ZNSt3__116__list_node_baseI11TransactionPvE9__as_nodeB8ue170006Ev, symObjAddr: 0x51DC, symBinAddr: 0x100006754, symSize: 0x24 }
  - { offsetInCU: 0x38493, offset: 0x38493, size: 0x8, addend: 0x0, symName: __ZNSt3__116allocator_traitsINS_9allocatorINS_11__list_nodeI11TransactionPvEEEEE7destroyB8ue170006IS3_vvEEvRS6_PT_, symObjAddr: 0x520C, symBinAddr: 0x100006784, symSize: 0x28 }
  - { offsetInCU: 0x384CD, offset: 0x384CD, size: 0x8, addend: 0x0, symName: __ZNSt3__116allocator_traitsINS_9allocatorINS_11__list_nodeI11TransactionPvEEEEE10deallocateB8ue170006ERS6_PS5_m, symObjAddr: 0x5234, symBinAddr: 0x1000067AC, symSize: 0x34 }
  - { offsetInCU: 0x3850F, offset: 0x3850F, size: 0x8, addend: 0x0, symName: __ZNKSt3__110__list_impI11TransactionNS_9allocatorIS1_EEE4__szB8ue170006Ev, symObjAddr: 0x5268, symBinAddr: 0x1000067E0, symSize: 0x28 }
  - { offsetInCU: 0x38535, offset: 0x38535, size: 0x8, addend: 0x0, symName: __ZNKSt3__117__compressed_pairImNS_9allocatorINS_11__list_nodeI11TransactionPvEEEEE5firstB8ue170006Ev, symObjAddr: 0x5290, symBinAddr: 0x100006808, symSize: 0x24 }
  - { offsetInCU: 0x3855B, offset: 0x3855B, size: 0x8, addend: 0x0, symName: __ZNKSt3__122__compressed_pair_elemImLi0ELb0EE5__getB8ue170006Ev, symObjAddr: 0x52B4, symBinAddr: 0x10000682C, symSize: 0x14 }
  - { offsetInCU: 0x38581, offset: 0x38581, size: 0x8, addend: 0x0, symName: __ZNSt3__117__compressed_pairImNS_9allocatorINS_11__list_nodeI11TransactionPvEEEEE6secondB8ue170006Ev, symObjAddr: 0x52C8, symBinAddr: 0x100006840, symSize: 0x24 }
  - { offsetInCU: 0x385A7, offset: 0x385A7, size: 0x8, addend: 0x0, symName: __ZNSt3__122__compressed_pair_elemINS_9allocatorINS_11__list_nodeI11TransactionPvEEEELi1ELb1EE5__getB8ue170006Ev, symObjAddr: 0x52EC, symBinAddr: 0x100006864, symSize: 0x14 }
  - { offsetInCU: 0x385CD, offset: 0x385CD, size: 0x8, addend: 0x0, symName: __ZNSt3__126__list_node_pointer_traitsI11TransactionPvE26__unsafe_link_pointer_castB8ue170006EPNS_16__list_node_baseIS1_S2_EE, symObjAddr: 0x5300, symBinAddr: 0x100006878, symSize: 0x14 }
  - { offsetInCU: 0x385F1, offset: 0x385F1, size: 0x8, addend: 0x0, symName: __ZNSt3__116__list_node_baseI11TransactionPvE6__selfB8ue170006Ev, symObjAddr: 0x5314, symBinAddr: 0x10000688C, symSize: 0x24 }
  - { offsetInCU: 0x3861D, offset: 0x3861D, size: 0x8, addend: 0x0, symName: __ZNSt3__114pointer_traitsIPNS_16__list_node_baseI11TransactionPvEEE10pointer_toB8ue170006ERS4_, symObjAddr: 0x5338, symBinAddr: 0x1000068B0, symSize: 0x14 }
  - { offsetInCU: 0x38640, offset: 0x38640, size: 0x8, addend: 0x0, symName: __ZNSt3__117__compressed_pairImNS_9allocatorINS_11__list_nodeI11TransactionPvEEEEE5firstB8ue170006Ev, symObjAddr: 0x534C, symBinAddr: 0x1000068C4, symSize: 0x24 }
  - { offsetInCU: 0x38666, offset: 0x38666, size: 0x8, addend: 0x0, symName: __ZNSt3__122__compressed_pair_elemImLi0ELb0EE5__getB8ue170006Ev, symObjAddr: 0x5370, symBinAddr: 0x1000068E8, symSize: 0x14 }
  - { offsetInCU: 0x3868C, offset: 0x3868C, size: 0x8, addend: 0x0, symName: __ZNSt3__19allocatorINS_11__list_nodeI11TransactionPvEEE10deallocateB8ue170006EPS4_m, symObjAddr: 0x53CC, symBinAddr: 0x100006944, symSize: 0x44 }
  - { offsetInCU: 0x386CE, offset: 0x386CE, size: 0x8, addend: 0x0, symName: __ZNSt3__14listINS0_I11TransactionNS_9allocatorIS1_EEEENS2_IS4_EEED2Ev, symObjAddr: 0x5538, symBinAddr: 0x100006AB0, symSize: 0x2C }
  - { offsetInCU: 0x386FB, offset: 0x386FB, size: 0x8, addend: 0x0, symName: __ZNSt3__110__list_impINS_4listI11TransactionNS_9allocatorIS2_EEEENS3_IS5_EEED2Ev, symObjAddr: 0x5564, symBinAddr: 0x100006ADC, symSize: 0x2C }
  - { offsetInCU: 0x38727, offset: 0x38727, size: 0x8, addend: 0x0, symName: __ZNSt3__110__list_impINS_4listI11TransactionNS_9allocatorIS2_EEEENS3_IS5_EEE5clearEv, symObjAddr: 0x5590, symBinAddr: 0x100006B08, symSize: 0xE0 }
  - { offsetInCU: 0x38799, offset: 0x38799, size: 0x8, addend: 0x0, symName: __ZNKSt3__110__list_impINS_4listI11TransactionNS_9allocatorIS2_EEEENS3_IS5_EEE5emptyB8ue170006Ev, symObjAddr: 0x5670, symBinAddr: 0x100006BE8, symSize: 0x34 }
  - { offsetInCU: 0x387BF, offset: 0x387BF, size: 0x8, addend: 0x0, symName: __ZNSt3__110__list_impINS_4listI11TransactionNS_9allocatorIS2_EEEENS3_IS5_EEE12__node_allocB8ue170006Ev, symObjAddr: 0x56A4, symBinAddr: 0x100006C1C, symSize: 0x28 }
  - { offsetInCU: 0x387E5, offset: 0x387E5, size: 0x8, addend: 0x0, symName: __ZNKSt3__110__list_impINS_4listI11TransactionNS_9allocatorIS2_EEEENS3_IS5_EEE13__end_as_linkB8ue170006Ev, symObjAddr: 0x56CC, symBinAddr: 0x100006C44, symSize: 0x44 }
  - { offsetInCU: 0x3880B, offset: 0x3880B, size: 0x8, addend: 0x0, symName: __ZNSt3__110__list_impINS_4listI11TransactionNS_9allocatorIS2_EEEENS3_IS5_EEE14__unlink_nodesEPNS_16__list_node_baseIS5_PvEESB_, symObjAddr: 0x5710, symBinAddr: 0x100006C88, symSize: 0x3C }
  - { offsetInCU: 0x38840, offset: 0x38840, size: 0x8, addend: 0x0, symName: __ZNSt3__110__list_impINS_4listI11TransactionNS_9allocatorIS2_EEEENS3_IS5_EEE4__szB8ue170006Ev, symObjAddr: 0x574C, symBinAddr: 0x100006CC4, symSize: 0x28 }
  - { offsetInCU: 0x38866, offset: 0x38866, size: 0x8, addend: 0x0, symName: __ZNSt3__116__list_node_baseINS_4listI11TransactionNS_9allocatorIS2_EEEEPvE9__as_nodeB8ue170006Ev, symObjAddr: 0x5774, symBinAddr: 0x100006CEC, symSize: 0x24 }
  - { offsetInCU: 0x3888C, offset: 0x3888C, size: 0x8, addend: 0x0, symName: __ZNSt3__116allocator_traitsINS_9allocatorINS_11__list_nodeINS_4listI11TransactionNS1_IS4_EEEEPvEEEEE7destroyB8ue170006IS6_vvEEvRS9_PT_, symObjAddr: 0x5798, symBinAddr: 0x100006D10, symSize: 0x28 }
  - { offsetInCU: 0x388C6, offset: 0x388C6, size: 0x8, addend: 0x0, symName: __ZNSt3__116allocator_traitsINS_9allocatorINS_11__list_nodeINS_4listI11TransactionNS1_IS4_EEEEPvEEEEE10deallocateB8ue170006ERS9_PS8_m, symObjAddr: 0x57C0, symBinAddr: 0x100006D38, symSize: 0x34 }
  - { offsetInCU: 0x38908, offset: 0x38908, size: 0x8, addend: 0x0, symName: __ZNKSt3__110__list_impINS_4listI11TransactionNS_9allocatorIS2_EEEENS3_IS5_EEE4__szB8ue170006Ev, symObjAddr: 0x57F4, symBinAddr: 0x100006D6C, symSize: 0x28 }
  - { offsetInCU: 0x3892E, offset: 0x3892E, size: 0x8, addend: 0x0, symName: __ZNKSt3__117__compressed_pairImNS_9allocatorINS_11__list_nodeINS_4listI11TransactionNS1_IS4_EEEEPvEEEEE5firstB8ue170006Ev, symObjAddr: 0x581C, symBinAddr: 0x100006D94, symSize: 0x24 }
  - { offsetInCU: 0x38954, offset: 0x38954, size: 0x8, addend: 0x0, symName: __ZNSt3__117__compressed_pairImNS_9allocatorINS_11__list_nodeINS_4listI11TransactionNS1_IS4_EEEEPvEEEEE6secondB8ue170006Ev, symObjAddr: 0x5840, symBinAddr: 0x100006DB8, symSize: 0x24 }
  - { offsetInCU: 0x3897A, offset: 0x3897A, size: 0x8, addend: 0x0, symName: __ZNSt3__122__compressed_pair_elemINS_9allocatorINS_11__list_nodeINS_4listI11TransactionNS1_IS4_EEEEPvEEEELi1ELb1EE5__getB8ue170006Ev, symObjAddr: 0x5864, symBinAddr: 0x100006DDC, symSize: 0x14 }
  - { offsetInCU: 0x389A0, offset: 0x389A0, size: 0x8, addend: 0x0, symName: __ZNSt3__126__list_node_pointer_traitsINS_4listI11TransactionNS_9allocatorIS2_EEEEPvE26__unsafe_link_pointer_castB8ue170006EPNS_16__list_node_baseIS5_S6_EE, symObjAddr: 0x5878, symBinAddr: 0x100006DF0, symSize: 0x14 }
  - { offsetInCU: 0x389C4, offset: 0x389C4, size: 0x8, addend: 0x0, symName: __ZNSt3__116__list_node_baseINS_4listI11TransactionNS_9allocatorIS2_EEEEPvE6__selfB8ue170006Ev, symObjAddr: 0x588C, symBinAddr: 0x100006E04, symSize: 0x24 }
  - { offsetInCU: 0x389F0, offset: 0x389F0, size: 0x8, addend: 0x0, symName: __ZNSt3__114pointer_traitsIPNS_16__list_node_baseINS_4listI11TransactionNS_9allocatorIS3_EEEEPvEEE10pointer_toB8ue170006ERS8_, symObjAddr: 0x58B0, symBinAddr: 0x100006E28, symSize: 0x14 }
  - { offsetInCU: 0x38A13, offset: 0x38A13, size: 0x8, addend: 0x0, symName: __ZNSt3__117__compressed_pairImNS_9allocatorINS_11__list_nodeINS_4listI11TransactionNS1_IS4_EEEEPvEEEEE5firstB8ue170006Ev, symObjAddr: 0x58C4, symBinAddr: 0x100006E3C, symSize: 0x24 }
  - { offsetInCU: 0x38A39, offset: 0x38A39, size: 0x8, addend: 0x0, symName: __ZNSt3__19allocatorINS_11__list_nodeINS_4listI11TransactionNS0_IS3_EEEEPvEEE10deallocateB8ue170006EPS7_m, symObjAddr: 0x5930, symBinAddr: 0x100006EA8, symSize: 0x44 }
  - { offsetInCU: 0x38A7B, offset: 0x38A7B, size: 0x8, addend: 0x0, symName: __ZNSt3__19allocatorIcEC1B8ue170006Ev, symObjAddr: 0x5974, symBinAddr: 0x100006EEC, symSize: 0x2C }
  - { offsetInCU: 0x38AA5, offset: 0x38AA5, size: 0x8, addend: 0x0, symName: __ZNSt3__19allocatorIcEC2B8ue170006Ev, symObjAddr: 0x59A0, symBinAddr: 0x100006F18, symSize: 0x2C }
  - { offsetInCU: 0x38ACF, offset: 0x38ACF, size: 0x8, addend: 0x0, symName: __ZNSt3__116__non_trivial_ifILb1ENS_9allocatorIcEEEC2B8ue170006Ev, symObjAddr: 0x59CC, symBinAddr: 0x100006F44, symSize: 0x14 }
  - { offsetInCU: 0x38AF9, offset: 0x38AF9, size: 0x8, addend: 0x0, symName: __ZNKSt3__111__wrap_iterIPcEdeB8ue170006Ev, symObjAddr: 0x5A14, symBinAddr: 0x100006F8C, symSize: 0x18 }
  - { offsetInCU: 0x38B1F, offset: 0x38B1F, size: 0x8, addend: 0x0, symName: __ZNSt3__111__wrap_iterIPcEppB8ue170006Ev, symObjAddr: 0x5A2C, symBinAddr: 0x100006FA4, symSize: 0x20 }
  - { offsetInCU: 0x38B45, offset: 0x38B45, size: 0x8, addend: 0x0, symName: __ZNKSt3__111__wrap_iterIPcE4baseB8ue170006Ev, symObjAddr: 0x5A94, symBinAddr: 0x10000700C, symSize: 0x18 }
  - { offsetInCU: 0x38B6B, offset: 0x38B6B, size: 0x8, addend: 0x0, symName: __ZNSt3__112basic_stringIcNS_11char_traitsIcEENS_9allocatorIcEEE15__make_iteratorB8ue170006EPc, symObjAddr: 0x5AAC, symBinAddr: 0x100007024, symSize: 0x30 }
  - { offsetInCU: 0x38BA0, offset: 0x38BA0, size: 0x8, addend: 0x0, symName: __ZNSt3__112basic_stringIcNS_11char_traitsIcEENS_9allocatorIcEEE13__get_pointerB8ue170006Ev, symObjAddr: 0x5ADC, symBinAddr: 0x100007054, symSize: 0x54 }
  - { offsetInCU: 0x38BC6, offset: 0x38BC6, size: 0x8, addend: 0x0, symName: __ZNSt3__111__wrap_iterIPcEC1B8ue170006ES1_, symObjAddr: 0x5B30, symBinAddr: 0x1000070A8, symSize: 0x34 }
  - { offsetInCU: 0x38BFE, offset: 0x38BFE, size: 0x8, addend: 0x0, symName: __ZNSt3__111__wrap_iterIPcEC2B8ue170006ES1_, symObjAddr: 0x5B64, symBinAddr: 0x1000070DC, symSize: 0x20 }
  - { offsetInCU: 0x38C36, offset: 0x38C36, size: 0x8, addend: 0x0, symName: __ZNKSt3__112basic_stringIcNS_11char_traitsIcEENS_9allocatorIcEEE9__is_longB8ue170006Ev, symObjAddr: 0x5B84, symBinAddr: 0x1000070FC, symSize: 0x38 }
  - { offsetInCU: 0x38C5C, offset: 0x38C5C, size: 0x8, addend: 0x0, symName: __ZNSt3__112basic_stringIcNS_11char_traitsIcEENS_9allocatorIcEEE18__get_long_pointerB8ue170006Ev, symObjAddr: 0x5BBC, symBinAddr: 0x100007134, symSize: 0x28 }
  - { offsetInCU: 0x38C82, offset: 0x38C82, size: 0x8, addend: 0x0, symName: __ZNSt3__112basic_stringIcNS_11char_traitsIcEENS_9allocatorIcEEE19__get_short_pointerB8ue170006Ev, symObjAddr: 0x5BE4, symBinAddr: 0x10000715C, symSize: 0x28 }
  - { offsetInCU: 0x38CA8, offset: 0x38CA8, size: 0x8, addend: 0x0, symName: __ZNKSt3__117__compressed_pairINS_12basic_stringIcNS_11char_traitsIcEENS_9allocatorIcEEE5__repES5_E5firstB8ue170006Ev, symObjAddr: 0x5C0C, symBinAddr: 0x100007184, symSize: 0x24 }
  - { offsetInCU: 0x38CCE, offset: 0x38CCE, size: 0x8, addend: 0x0, symName: __ZNKSt3__122__compressed_pair_elemINS_12basic_stringIcNS_11char_traitsIcEENS_9allocatorIcEEE5__repELi0ELb0EE5__getB8ue170006Ev, symObjAddr: 0x5C30, symBinAddr: 0x1000071A8, symSize: 0x14 }
  - { offsetInCU: 0x38CF4, offset: 0x38CF4, size: 0x8, addend: 0x0, symName: __ZNSt3__117__compressed_pairINS_12basic_stringIcNS_11char_traitsIcEENS_9allocatorIcEEE5__repES5_E5firstB8ue170006Ev, symObjAddr: 0x5C44, symBinAddr: 0x1000071BC, symSize: 0x24 }
  - { offsetInCU: 0x38D1A, offset: 0x38D1A, size: 0x8, addend: 0x0, symName: __ZNSt3__122__compressed_pair_elemINS_12basic_stringIcNS_11char_traitsIcEENS_9allocatorIcEEE5__repELi0ELb0EE5__getB8ue170006Ev, symObjAddr: 0x5C68, symBinAddr: 0x1000071E0, symSize: 0x14 }
  - { offsetInCU: 0x38D40, offset: 0x38D40, size: 0x8, addend: 0x0, symName: __ZNSt3__114pointer_traitsIPcE10pointer_toB8ue170006ERc, symObjAddr: 0x5C7C, symBinAddr: 0x1000071F4, symSize: 0x14 }
  - { offsetInCU: 0x38D63, offset: 0x38D63, size: 0x8, addend: 0x0, symName: __ZNKSt3__112basic_stringIcNS_11char_traitsIcEENS_9allocatorIcEEE4sizeB8ue170006Ev, symObjAddr: 0x5C90, symBinAddr: 0x100007208, symSize: 0x54 }
  - { offsetInCU: 0x38D89, offset: 0x38D89, size: 0x8, addend: 0x0, symName: __ZNKSt3__112basic_stringIcNS_11char_traitsIcEENS_9allocatorIcEEE15__get_long_sizeB8ue170006Ev, symObjAddr: 0x5CE4, symBinAddr: 0x10000725C, symSize: 0x28 }
  - { offsetInCU: 0x38DAF, offset: 0x38DAF, size: 0x8, addend: 0x0, symName: __ZNKSt3__112basic_stringIcNS_11char_traitsIcEENS_9allocatorIcEEE16__get_short_sizeB8ue170006Ev, symObjAddr: 0x5D0C, symBinAddr: 0x100007284, symSize: 0x34 }
  - { offsetInCU: 0x38DD5, offset: 0x38DD5, size: 0x8, addend: 0x0, symName: __ZNSt3__14listINS_12basic_stringIcNS_11char_traitsIcEENS_9allocatorIcEEEENS4_IS6_EEE5beginB8ue170006Ev, symObjAddr: 0x5D40, symBinAddr: 0x1000072B8, symSize: 0x2C }
  - { offsetInCU: 0x38DFB, offset: 0x38DFB, size: 0x8, addend: 0x0, symName: __ZNSt3__110__list_impINS_12basic_stringIcNS_11char_traitsIcEENS_9allocatorIcEEEENS4_IS6_EEE5beginB8ue170006Ev, symObjAddr: 0x5D6C, symBinAddr: 0x1000072E4, symSize: 0x30 }
  - { offsetInCU: 0x38E21, offset: 0x38E21, size: 0x8, addend: 0x0, symName: __ZNSt3__115__list_iteratorINS_12basic_stringIcNS_11char_traitsIcEENS_9allocatorIcEEEEPvEC1B8ue170006EPNS_16__list_node_baseIS6_S7_EE, symObjAddr: 0x5D9C, symBinAddr: 0x100007314, symSize: 0x34 }
  - { offsetInCU: 0x38E5A, offset: 0x38E5A, size: 0x8, addend: 0x0, symName: __ZNSt3__115__list_iteratorINS_12basic_stringIcNS_11char_traitsIcEENS_9allocatorIcEEEEPvEC2B8ue170006EPNS_16__list_node_baseIS6_S7_EE, symObjAddr: 0x5DD0, symBinAddr: 0x100007348, symSize: 0x20 }
  - { offsetInCU: 0x38E93, offset: 0x38E93, size: 0x8, addend: 0x0, symName: __ZNSt3__14listINS_12basic_stringIcNS_11char_traitsIcEENS_9allocatorIcEEEENS4_IS6_EEE3endB8ue170006Ev, symObjAddr: 0x5DF0, symBinAddr: 0x100007368, symSize: 0x2C }
  - { offsetInCU: 0x38EB9, offset: 0x38EB9, size: 0x8, addend: 0x0, symName: __ZNSt3__110__list_impINS_12basic_stringIcNS_11char_traitsIcEENS_9allocatorIcEEEENS4_IS6_EEE3endB8ue170006Ev, symObjAddr: 0x5E1C, symBinAddr: 0x100007394, symSize: 0x34 }
  - { offsetInCU: 0x38EDF, offset: 0x38EDF, size: 0x8, addend: 0x0, symName: __ZNKSt3__110__list_impINS_12basic_stringIcNS_11char_traitsIcEENS_9allocatorIcEEEENS4_IS6_EEE13__end_as_linkB8ue170006Ev, symObjAddr: 0x5E50, symBinAddr: 0x1000073C8, symSize: 0x44 }
  - { offsetInCU: 0x38F05, offset: 0x38F05, size: 0x8, addend: 0x0, symName: __ZNSt3__126__list_node_pointer_traitsINS_12basic_stringIcNS_11char_traitsIcEENS_9allocatorIcEEEEPvE26__unsafe_link_pointer_castB8ue170006EPNS_16__list_node_baseIS6_S7_EE, symObjAddr: 0x5E94, symBinAddr: 0x10000740C, symSize: 0x14 }
  - { offsetInCU: 0x38F29, offset: 0x38F29, size: 0x8, addend: 0x0, symName: __ZNSt3__116__list_node_baseINS_12basic_stringIcNS_11char_traitsIcEENS_9allocatorIcEEEEPvE6__selfB8ue170006Ev, symObjAddr: 0x5EA8, symBinAddr: 0x100007420, symSize: 0x24 }
  - { offsetInCU: 0x38F55, offset: 0x38F55, size: 0x8, addend: 0x0, symName: __ZNSt3__114pointer_traitsIPNS_16__list_node_baseINS_12basic_stringIcNS_11char_traitsIcEENS_9allocatorIcEEEEPvEEE10pointer_toB8ue170006ERS9_, symObjAddr: 0x5ECC, symBinAddr: 0x100007444, symSize: 0x14 }
  - { offsetInCU: 0x38F78, offset: 0x38F78, size: 0x8, addend: 0x0, symName: __ZNKSt3__112basic_stringIcNS_11char_traitsIcEENS_9allocatorIcEEE7compareINS_17basic_string_viewIcS2_EELi0EEEiRKT_, symObjAddr: 0x5EE0, symBinAddr: 0x100007458, symSize: 0x12C }
  - { offsetInCU: 0x38FFB, offset: 0x38FFB, size: 0x8, addend: 0x0, symName: __ZNKSt3__112basic_stringIcNS_11char_traitsIcEENS_9allocatorIcEEEcvNS_17basic_string_viewIcS2_EEB8ue170006Ev, symObjAddr: 0x600C, symBinAddr: 0x100007584, symSize: 0x50 }
  - { offsetInCU: 0x39021, offset: 0x39021, size: 0x8, addend: 0x0, symName: __ZNKSt3__117basic_string_viewIcNS_11char_traitsIcEEE4sizeB8ue170006Ev, symObjAddr: 0x605C, symBinAddr: 0x1000075D4, symSize: 0x18 }
  - { offsetInCU: 0x39047, offset: 0x39047, size: 0x8, addend: 0x0, symName: __ZNSt3__111char_traitsIcE7compareB8ue170006EPKcS3_m, symObjAddr: 0x6074, symBinAddr: 0x1000075EC, symSize: 0x34 }
  - { offsetInCU: 0x39086, offset: 0x39086, size: 0x8, addend: 0x0, symName: __ZNKSt3__112basic_stringIcNS_11char_traitsIcEENS_9allocatorIcEEE4dataB8ue170006Ev, symObjAddr: 0x60A8, symBinAddr: 0x100007620, symSize: 0x28 }
  - { offsetInCU: 0x390AC, offset: 0x390AC, size: 0x8, addend: 0x0, symName: __ZNKSt3__117basic_string_viewIcNS_11char_traitsIcEEE4dataB8ue170006Ev, symObjAddr: 0x60D0, symBinAddr: 0x100007648, symSize: 0x18 }
  - { offsetInCU: 0x390D2, offset: 0x390D2, size: 0x8, addend: 0x0, symName: __ZNKSt3__112basic_stringIcNS_11char_traitsIcEENS_9allocatorIcEEE13__get_pointerB8ue170006Ev, symObjAddr: 0x6128, symBinAddr: 0x1000076A0, symSize: 0x54 }
  - { offsetInCU: 0x390F8, offset: 0x390F8, size: 0x8, addend: 0x0, symName: __ZNKSt3__112basic_stringIcNS_11char_traitsIcEENS_9allocatorIcEEE18__get_long_pointerB8ue170006Ev, symObjAddr: 0x617C, symBinAddr: 0x1000076F4, symSize: 0x28 }
  - { offsetInCU: 0x3911E, offset: 0x3911E, size: 0x8, addend: 0x0, symName: __ZNKSt3__112basic_stringIcNS_11char_traitsIcEENS_9allocatorIcEEE19__get_short_pointerB8ue170006Ev, symObjAddr: 0x61A4, symBinAddr: 0x10000771C, symSize: 0x28 }
  - { offsetInCU: 0x39144, offset: 0x39144, size: 0x8, addend: 0x0, symName: __ZNSt3__114pointer_traitsIPKcE10pointer_toB8ue170006ERS1_, symObjAddr: 0x61CC, symBinAddr: 0x100007744, symSize: 0x14 }
  - { offsetInCU: 0x39172, offset: 0x39172, size: 0x8, addend: 0x0, symName: __ZNKSt3__16__lessIvvEclB8ue170006ImmEEbRKT_RKT0_, symObjAddr: 0x6234, symBinAddr: 0x1000077AC, symSize: 0x34 }
  - { offsetInCU: 0x391C6, offset: 0x391C6, size: 0x8, addend: 0x0, symName: __ZNSt3__117basic_string_viewIcNS_11char_traitsIcEEEC1B8ue170006EPKcm, symObjAddr: 0x6268, symBinAddr: 0x1000077E0, symSize: 0x3C }
  - { offsetInCU: 0x3920E, offset: 0x3920E, size: 0x8, addend: 0x0, symName: __ZNSt3__117basic_string_viewIcNS_11char_traitsIcEEEC2B8ue170006EPKcm, symObjAddr: 0x62A4, symBinAddr: 0x10000781C, symSize: 0x2C }
  - { offsetInCU: 0x39256, offset: 0x39256, size: 0x8, addend: 0x0, symName: __ZNSt3__14listINS_12basic_stringIcNS_11char_traitsIcEENS_9allocatorIcEEEENS4_IS6_EEED2Ev, symObjAddr: 0x62D0, symBinAddr: 0x100007848, symSize: 0x2C }
  - { offsetInCU: 0x39283, offset: 0x39283, size: 0x8, addend: 0x0, symName: __ZNSt3__110__list_impINS_12basic_stringIcNS_11char_traitsIcEENS_9allocatorIcEEEENS4_IS6_EEED2Ev, symObjAddr: 0x62FC, symBinAddr: 0x100007874, symSize: 0x2C }
  - { offsetInCU: 0x392AF, offset: 0x392AF, size: 0x8, addend: 0x0, symName: __ZNSt3__110__list_impINS_12basic_stringIcNS_11char_traitsIcEENS_9allocatorIcEEEENS4_IS6_EEE5clearEv, symObjAddr: 0x6328, symBinAddr: 0x1000078A0, symSize: 0xE0 }
  - { offsetInCU: 0x39321, offset: 0x39321, size: 0x8, addend: 0x0, symName: __ZNKSt3__110__list_impINS_12basic_stringIcNS_11char_traitsIcEENS_9allocatorIcEEEENS4_IS6_EEE5emptyB8ue170006Ev, symObjAddr: 0x6408, symBinAddr: 0x100007980, symSize: 0x34 }
  - { offsetInCU: 0x39347, offset: 0x39347, size: 0x8, addend: 0x0, symName: __ZNSt3__110__list_impINS_12basic_stringIcNS_11char_traitsIcEENS_9allocatorIcEEEENS4_IS6_EEE12__node_allocB8ue170006Ev, symObjAddr: 0x643C, symBinAddr: 0x1000079B4, symSize: 0x28 }
  - { offsetInCU: 0x3936D, offset: 0x3936D, size: 0x8, addend: 0x0, symName: __ZNSt3__110__list_impINS_12basic_stringIcNS_11char_traitsIcEENS_9allocatorIcEEEENS4_IS6_EEE14__unlink_nodesEPNS_16__list_node_baseIS6_PvEESC_, symObjAddr: 0x6464, symBinAddr: 0x1000079DC, symSize: 0x3C }
  - { offsetInCU: 0x393A2, offset: 0x393A2, size: 0x8, addend: 0x0, symName: __ZNSt3__110__list_impINS_12basic_stringIcNS_11char_traitsIcEENS_9allocatorIcEEEENS4_IS6_EEE4__szB8ue170006Ev, symObjAddr: 0x64A0, symBinAddr: 0x100007A18, symSize: 0x28 }
  - { offsetInCU: 0x393C8, offset: 0x393C8, size: 0x8, addend: 0x0, symName: __ZNSt3__116__list_node_baseINS_12basic_stringIcNS_11char_traitsIcEENS_9allocatorIcEEEEPvE9__as_nodeB8ue170006Ev, symObjAddr: 0x64C8, symBinAddr: 0x100007A40, symSize: 0x24 }
  - { offsetInCU: 0x393EE, offset: 0x393EE, size: 0x8, addend: 0x0, symName: __ZNSt3__116allocator_traitsINS_9allocatorINS_11__list_nodeINS_12basic_stringIcNS_11char_traitsIcEENS1_IcEEEEPvEEEEE7destroyB8ue170006IS7_vvEEvRSA_PT_, symObjAddr: 0x64EC, symBinAddr: 0x100007A64, symSize: 0x28 }
  - { offsetInCU: 0x39428, offset: 0x39428, size: 0x8, addend: 0x0, symName: __ZNSt3__116allocator_traitsINS_9allocatorINS_11__list_nodeINS_12basic_stringIcNS_11char_traitsIcEENS1_IcEEEEPvEEEEE10deallocateB8ue170006ERSA_PS9_m, symObjAddr: 0x6514, symBinAddr: 0x100007A8C, symSize: 0x34 }
  - { offsetInCU: 0x3946A, offset: 0x3946A, size: 0x8, addend: 0x0, symName: __ZNKSt3__110__list_impINS_12basic_stringIcNS_11char_traitsIcEENS_9allocatorIcEEEENS4_IS6_EEE4__szB8ue170006Ev, symObjAddr: 0x6548, symBinAddr: 0x100007AC0, symSize: 0x28 }
  - { offsetInCU: 0x39490, offset: 0x39490, size: 0x8, addend: 0x0, symName: __ZNKSt3__117__compressed_pairImNS_9allocatorINS_11__list_nodeINS_12basic_stringIcNS_11char_traitsIcEENS1_IcEEEEPvEEEEE5firstB8ue170006Ev, symObjAddr: 0x6570, symBinAddr: 0x100007AE8, symSize: 0x24 }
  - { offsetInCU: 0x394B6, offset: 0x394B6, size: 0x8, addend: 0x0, symName: __ZNSt3__117__compressed_pairImNS_9allocatorINS_11__list_nodeINS_12basic_stringIcNS_11char_traitsIcEENS1_IcEEEEPvEEEEE6secondB8ue170006Ev, symObjAddr: 0x6594, symBinAddr: 0x100007B0C, symSize: 0x24 }
  - { offsetInCU: 0x394DC, offset: 0x394DC, size: 0x8, addend: 0x0, symName: __ZNSt3__122__compressed_pair_elemINS_9allocatorINS_11__list_nodeINS_12basic_stringIcNS_11char_traitsIcEENS1_IcEEEEPvEEEELi1ELb1EE5__getB8ue170006Ev, symObjAddr: 0x65B8, symBinAddr: 0x100007B30, symSize: 0x14 }
  - { offsetInCU: 0x39502, offset: 0x39502, size: 0x8, addend: 0x0, symName: __ZNSt3__117__compressed_pairImNS_9allocatorINS_11__list_nodeINS_12basic_stringIcNS_11char_traitsIcEENS1_IcEEEEPvEEEEE5firstB8ue170006Ev, symObjAddr: 0x65CC, symBinAddr: 0x100007B44, symSize: 0x24 }
  - { offsetInCU: 0x39528, offset: 0x39528, size: 0x8, addend: 0x0, symName: __ZNSt3__19allocatorINS_11__list_nodeINS_12basic_stringIcNS_11char_traitsIcEENS0_IcEEEEPvEEE10deallocateB8ue170006EPS8_m, symObjAddr: 0x6638, symBinAddr: 0x100007BB0, symSize: 0x44 }
  - { offsetInCU: 0x3956A, offset: 0x3956A, size: 0x8, addend: 0x0, symName: __ZNSt3__14listINS0_I11TransactionNS_9allocatorIS1_EEEENS2_IS4_EEE5beginB8ue170006Ev, symObjAddr: 0x667C, symBinAddr: 0x100007BF4, symSize: 0x2C }
  - { offsetInCU: 0x39590, offset: 0x39590, size: 0x8, addend: 0x0, symName: __ZNSt3__110__list_impINS_4listI11TransactionNS_9allocatorIS2_EEEENS3_IS5_EEE5beginB8ue170006Ev, symObjAddr: 0x66A8, symBinAddr: 0x100007C20, symSize: 0x30 }
  - { offsetInCU: 0x395B6, offset: 0x395B6, size: 0x8, addend: 0x0, symName: __ZNSt3__115__list_iteratorINS_4listI11TransactionNS_9allocatorIS2_EEEEPvEC1B8ue170006EPNS_16__list_node_baseIS5_S6_EE, symObjAddr: 0x66D8, symBinAddr: 0x100007C50, symSize: 0x34 }
  - { offsetInCU: 0x395EF, offset: 0x395EF, size: 0x8, addend: 0x0, symName: __ZNSt3__115__list_iteratorINS_4listI11TransactionNS_9allocatorIS2_EEEEPvEC2B8ue170006EPNS_16__list_node_baseIS5_S6_EE, symObjAddr: 0x670C, symBinAddr: 0x100007C84, symSize: 0x20 }
  - { offsetInCU: 0x39628, offset: 0x39628, size: 0x8, addend: 0x0, symName: __ZNSt3__14listINS0_I11TransactionNS_9allocatorIS1_EEEENS2_IS4_EEE3endB8ue170006Ev, symObjAddr: 0x672C, symBinAddr: 0x100007CA4, symSize: 0x2C }
  - { offsetInCU: 0x3964E, offset: 0x3964E, size: 0x8, addend: 0x0, symName: __ZNSt3__110__list_impINS_4listI11TransactionNS_9allocatorIS2_EEEENS3_IS5_EEE3endB8ue170006Ev, symObjAddr: 0x6758, symBinAddr: 0x100007CD0, symSize: 0x34 }
  - { offsetInCU: 0x39674, offset: 0x39674, size: 0x8, addend: 0x0, symName: __ZNKSt3__111__wrap_iterIPcEplB8ue170006El, symObjAddr: 0x680C, symBinAddr: 0x100007D84, symSize: 0x3C }
  - { offsetInCU: 0x396B6, offset: 0x396B6, size: 0x8, addend: 0x0, symName: __ZNKSt3__111__wrap_iterIPKcE4baseB8ue170006Ev, symObjAddr: 0x6848, symBinAddr: 0x100007DC0, symSize: 0x18 }
  - { offsetInCU: 0x396DC, offset: 0x396DC, size: 0x8, addend: 0x0, symName: __ZNSt3__111__wrap_iterIPcEpLB8ue170006El, symObjAddr: 0x6860, symBinAddr: 0x100007DD8, symSize: 0x28 }
  - { offsetInCU: 0x39710, offset: 0x39710, size: 0x8, addend: 0x0, symName: __Z8__istypeim, symObjAddr: 0x6914, symBinAddr: 0x100007E8C, symSize: 0x8C }
  - { offsetInCU: 0x3974B, offset: 0x3974B, size: 0x8, addend: 0x0, symName: __Z7isasciii, symObjAddr: 0x69A0, symBinAddr: 0x100007F18, symSize: 0x24 }
  - { offsetInCU: 0x39778, offset: 0x39778, size: 0x8, addend: 0x0, symName: __ZNSt3__111__wrap_iterIPKcEC2B8ue170006IPcEERKNS0_IT_EEPNS_9enable_ifIXsr14is_convertibleIS6_S2_EE5valueEvE4typeE, symObjAddr: 0x69C4, symBinAddr: 0x100007F3C, symSize: 0x40 }
  - { offsetInCU: 0x397C4, offset: 0x397C4, size: 0x8, addend: 0x0, symName: __ZNSt3__112basic_stringIcNS_11char_traitsIcEENS_9allocatorIcEEEC2B8ue170006ILi0EEEPKc, symObjAddr: 0x6A04, symBinAddr: 0x100007F7C, symSize: 0x58 }
  - { offsetInCU: 0x39809, offset: 0x39809, size: 0x8, addend: 0x0, symName: __ZNSt3__117__compressed_pairINS_12basic_stringIcNS_11char_traitsIcEENS_9allocatorIcEEE5__repES5_EC1B8ue170006INS_18__default_init_tagESA_EEOT_OT0_, symObjAddr: 0x6A5C, symBinAddr: 0x100007FD4, symSize: 0x3C }
  - { offsetInCU: 0x39861, offset: 0x39861, size: 0x8, addend: 0x0, symName: __ZNSt3__111char_traitsIcE6lengthB8ue170006EPKc, symObjAddr: 0x6A98, symBinAddr: 0x100008010, symSize: 0x34 }
  - { offsetInCU: 0x39884, offset: 0x39884, size: 0x8, addend: 0x0, symName: __ZNSt3__117__compressed_pairINS_12basic_stringIcNS_11char_traitsIcEENS_9allocatorIcEEE5__repES5_EC2B8ue170006INS_18__default_init_tagESA_EEOT_OT0_, symObjAddr: 0x6ACC, symBinAddr: 0x100008044, symSize: 0x3C }
  - { offsetInCU: 0x398DC, offset: 0x398DC, size: 0x8, addend: 0x0, symName: __ZNSt3__122__compressed_pair_elemINS_12basic_stringIcNS_11char_traitsIcEENS_9allocatorIcEEE5__repELi0ELb0EEC2B8ue170006ENS_18__default_init_tagE, symObjAddr: 0x6B08, symBinAddr: 0x100008080, symSize: 0x14 }
  - { offsetInCU: 0x39911, offset: 0x39911, size: 0x8, addend: 0x0, symName: __ZNSt3__122__compressed_pair_elemINS_9allocatorIcEELi1ELb1EEC2B8ue170006ENS_18__default_init_tagE, symObjAddr: 0x6B1C, symBinAddr: 0x100008094, symSize: 0x2C }
  - { offsetInCU: 0x39946, offset: 0x39946, size: 0x8, addend: 0x0, symName: __ZNSt3__114basic_ifstreamIcNS_11char_traitsIcEEED2Ev, symObjAddr: 0x6B6C, symBinAddr: 0x1000080E4, symSize: 0x64 }
  - { offsetInCU: 0x39980, offset: 0x39980, size: 0x8, addend: 0x0, symName: __ZTv0_n24_NSt3__114basic_ifstreamIcNS_11char_traitsIcEEED1Ev, symObjAddr: 0x6BD0, symBinAddr: 0x100008148, symSize: 0x28 }
  - { offsetInCU: 0x39997, offset: 0x39997, size: 0x8, addend: 0x0, symName: __ZNSt16initializer_listIN8nlohmann16json_abi_v3_11_36detail8json_refINS1_10basic_jsonINSt3__13mapENS5_6vectorENS5_12basic_stringIcNS5_11char_traitsIcEENS5_9allocatorIcEEEEbxydSB_NS1_14adl_serializerENS7_IhNSB_IhEEEEvEEEEEC2B8ue170006Ev, symObjAddr: 0x6BF8, symBinAddr: 0x100008170, symSize: 0x1C }
  - { offsetInCU: 0x399C1, offset: 0x399C1, size: 0x8, addend: 0x0, symName: __ZN8nlohmann16json_abi_v3_11_36detail8json_refINS0_10basic_jsonINSt3__13mapENS4_6vectorENS4_12basic_stringIcNS4_11char_traitsIcEENS4_9allocatorIcEEEEbxydSA_NS0_14adl_serializerENS6_IhNSA_IhEEEEvEEED2Ev, symObjAddr: 0x6C14, symBinAddr: 0x10000818C, symSize: 0x2C }
  - { offsetInCU: 0x399EB, offset: 0x399EB, size: 0x8, addend: 0x0, symName: __ZN8nlohmann16json_abi_v3_11_310basic_jsonINSt3__13mapENS2_6vectorENS2_12basic_stringIcNS2_11char_traitsIcEENS2_9allocatorIcEEEEbxydS8_NS0_14adl_serializerENS4_IhNS8_IhEEEEvED2Ev, symObjAddr: 0x6C40, symBinAddr: 0x1000081B8, symSize: 0x3C }
  - { offsetInCU: 0x39A15, offset: 0x39A15, size: 0x8, addend: 0x0, symName: __ZNK8nlohmann16json_abi_v3_11_310basic_jsonINSt3__13mapENS2_6vectorENS2_12basic_stringIcNS2_11char_traitsIcEENS2_9allocatorIcEEEEbxydS8_NS0_14adl_serializerENS4_IhNS8_IhEEEEvE16assert_invariantEb, symObjAddr: 0x6C7C, symBinAddr: 0x1000081F4, symSize: 0x1F0 }
  - { offsetInCU: 0x39A4A, offset: 0x39A4A, size: 0x8, addend: 0x0, symName: __ZN8nlohmann16json_abi_v3_11_310basic_jsonINSt3__13mapENS2_6vectorENS2_12basic_stringIcNS2_11char_traitsIcEENS2_9allocatorIcEEEEbxydS8_NS0_14adl_serializerENS4_IhNS8_IhEEEEvE4dataD1Ev, symObjAddr: 0x6E6C, symBinAddr: 0x1000083E4, symSize: 0x2C }
  - { offsetInCU: 0x39A74, offset: 0x39A74, size: 0x8, addend: 0x0, symName: __ZN8nlohmann16json_abi_v3_11_310basic_jsonINSt3__13mapENS2_6vectorENS2_12basic_stringIcNS2_11char_traitsIcEENS2_9allocatorIcEEEEbxydS8_NS0_14adl_serializerENS4_IhNS8_IhEEEEvE4dataD2Ev, symObjAddr: 0x6E98, symBinAddr: 0x100008410, symSize: 0x3C }
  - { offsetInCU: 0x39A9E, offset: 0x39A9E, size: 0x8, addend: 0x0, symName: __ZN8nlohmann16json_abi_v3_11_310basic_jsonINSt3__13mapENS2_6vectorENS2_12basic_stringIcNS2_11char_traitsIcEENS2_9allocatorIcEEEEbxydS8_NS0_14adl_serializerENS4_IhNS8_IhEEEEvE10json_value7destroyENS0_6detail7value_tE, symObjAddr: 0x6ED4, symBinAddr: 0x10000844C, symSize: 0x518 }
  - { offsetInCU: 0x39C2C, offset: 0x39C2C, size: 0x8, addend: 0x0, symName: __ZNSt3__16vectorIN8nlohmann16json_abi_v3_11_310basic_jsonINS_3mapES0_NS_12basic_stringIcNS_11char_traitsIcEENS_9allocatorIcEEEEbxydS8_NS2_14adl_serializerENS0_IhNS8_IhEEEEvEENS8_ISE_EEEC1B8ue170006Ev, symObjAddr: 0x7414, symBinAddr: 0x10000898C, symSize: 0x2C }
  - { offsetInCU: 0x39C56, offset: 0x39C56, size: 0x8, addend: 0x0, symName: __ZNSt3__16vectorIN8nlohmann16json_abi_v3_11_310basic_jsonINS_3mapES0_NS_12basic_stringIcNS_11char_traitsIcEENS_9allocatorIcEEEEbxydS8_NS2_14adl_serializerENS0_IhNS8_IhEEEEvEENS8_ISE_EEE7reserveEm, symObjAddr: 0x7440, symBinAddr: 0x1000089B8, symSize: 0xE8 }
  - { offsetInCU: 0x39CB3, offset: 0x39CB3, size: 0x8, addend: 0x0, symName: __ZNKSt3__16vectorIN8nlohmann16json_abi_v3_11_310basic_jsonINS_3mapES0_NS_12basic_stringIcNS_11char_traitsIcEENS_9allocatorIcEEEEbxydS8_NS2_14adl_serializerENS0_IhNS8_IhEEEEvEENS8_ISE_EEE4sizeB8ue170006Ev, symObjAddr: 0x7528, symBinAddr: 0x100008AA0, symSize: 0x28 }
  - { offsetInCU: 0x39CD9, offset: 0x39CD9, size: 0x8, addend: 0x0, symName: __ZNSt3__16vectorIN8nlohmann16json_abi_v3_11_310basic_jsonINS_3mapES0_NS_12basic_stringIcNS_11char_traitsIcEENS_9allocatorIcEEEEbxydS8_NS2_14adl_serializerENS0_IhNS8_IhEEEEvEENS8_ISE_EEE5beginB8ue170006Ev, symObjAddr: 0x75B0, symBinAddr: 0x100008B28, symSize: 0x30 }
  - { offsetInCU: 0x39D01, offset: 0x39D01, size: 0x8, addend: 0x0, symName: __ZNSt3__16vectorIN8nlohmann16json_abi_v3_11_310basic_jsonINS_3mapES0_NS_12basic_stringIcNS_11char_traitsIcEENS_9allocatorIcEEEEbxydS8_NS2_14adl_serializerENS0_IhNS8_IhEEEEvEENS8_ISE_EEE3endB8ue170006Ev, symObjAddr: 0x75E0, symBinAddr: 0x100008B58, symSize: 0x30 }
  - { offsetInCU: 0x39D29, offset: 0x39D29, size: 0x8, addend: 0x0, symName: __ZNKSt3__13mapINS_12basic_stringIcNS_11char_traitsIcEENS_9allocatorIcEEEEN8nlohmann16json_abi_v3_11_310basic_jsonIS0_NS_6vectorES6_bxydS4_NS8_14adl_serializerENSA_IhNS4_IhEEEEvEENS_4lessIvEENS4_INS_4pairIKS6_SE_EEEEE4sizeB8ue170006Ev, symObjAddr: 0x763C, symBinAddr: 0x100008BB4, symSize: 0x28 }
  - { offsetInCU: 0x39D4F, offset: 0x39D4F, size: 0x8, addend: 0x0, symName: __ZNSt3__13mapINS_12basic_stringIcNS_11char_traitsIcEENS_9allocatorIcEEEEN8nlohmann16json_abi_v3_11_310basic_jsonIS0_NS_6vectorES6_bxydS4_NS8_14adl_serializerENSA_IhNS4_IhEEEEvEENS_4lessIvEENS4_INS_4pairIKS6_SE_EEEEE5beginB8ue170006Ev, symObjAddr: 0x7664, symBinAddr: 0x100008BDC, symSize: 0x38 }
  - { offsetInCU: 0x39D75, offset: 0x39D75, size: 0x8, addend: 0x0, symName: __ZNSt3__13mapINS_12basic_stringIcNS_11char_traitsIcEENS_9allocatorIcEEEEN8nlohmann16json_abi_v3_11_310basic_jsonIS0_NS_6vectorES6_bxydS4_NS8_14adl_serializerENSA_IhNS4_IhEEEEvEENS_4lessIvEENS4_INS_4pairIKS6_SE_EEEEE3endB8ue170006Ev, symObjAddr: 0x769C, symBinAddr: 0x100008C14, symSize: 0x38 }
  - { offsetInCU: 0x39D9B, offset: 0x39D9B, size: 0x8, addend: 0x0, symName: __ZNKSt3__114__map_iteratorINS_15__tree_iteratorINS_12__value_typeINS_12basic_stringIcNS_11char_traitsIcEENS_9allocatorIcEEEEN8nlohmann16json_abi_v3_11_310basic_jsonINS_3mapENS_6vectorES8_bxydS6_NSA_14adl_serializerENSD_IhNS6_IhEEEEvEEEEPNS_11__tree_nodeISI_PvEElEEEdeB8ue170006Ev, symObjAddr: 0x7704, symBinAddr: 0x100008C7C, symSize: 0x28 }
  - { offsetInCU: 0x39DC1, offset: 0x39DC1, size: 0x8, addend: 0x0, symName: __ZNSt3__16vectorIN8nlohmann16json_abi_v3_11_310basic_jsonINS_3mapES0_NS_12basic_stringIcNS_11char_traitsIcEENS_9allocatorIcEEEEbxydS8_NS2_14adl_serializerENS0_IhNS8_IhEEEEvEENS8_ISE_EEE9push_backB8ue170006EOSE_, symObjAddr: 0x772C, symBinAddr: 0x100008CA4, symSize: 0x6C }
  - { offsetInCU: 0x39DF8, offset: 0x39DF8, size: 0x8, addend: 0x0, symName: __ZNSt3__114__map_iteratorINS_15__tree_iteratorINS_12__value_typeINS_12basic_stringIcNS_11char_traitsIcEENS_9allocatorIcEEEEN8nlohmann16json_abi_v3_11_310basic_jsonINS_3mapENS_6vectorES8_bxydS6_NSA_14adl_serializerENSD_IhNS6_IhEEEEvEEEEPNS_11__tree_nodeISI_PvEElEEEppB8ue170006Ev, symObjAddr: 0x7798, symBinAddr: 0x100008D10, symSize: 0x2C }
  - { offsetInCU: 0x39E1E, offset: 0x39E1E, size: 0x8, addend: 0x0, symName: __ZNKSt3__16vectorIN8nlohmann16json_abi_v3_11_310basic_jsonINS_3mapES0_NS_12basic_stringIcNS_11char_traitsIcEENS_9allocatorIcEEEEbxydS8_NS2_14adl_serializerENS0_IhNS8_IhEEEEvEENS8_ISE_EEE5emptyB8ue170006Ev, symObjAddr: 0x77C4, symBinAddr: 0x100008D3C, symSize: 0x28 }
  - { offsetInCU: 0x39E44, offset: 0x39E44, size: 0x8, addend: 0x0, symName: __ZNSt3__16vectorIN8nlohmann16json_abi_v3_11_310basic_jsonINS_3mapES0_NS_12basic_stringIcNS_11char_traitsIcEENS_9allocatorIcEEEEbxydS8_NS2_14adl_serializerENS0_IhNS8_IhEEEEvEENS8_ISE_EEE4backB8ue170006Ev, symObjAddr: 0x77EC, symBinAddr: 0x100008D64, symSize: 0x1C }
  - { offsetInCU: 0x39E6A, offset: 0x39E6A, size: 0x8, addend: 0x0, symName: __ZN8nlohmann16json_abi_v3_11_310basic_jsonINSt3__13mapENS2_6vectorENS2_12basic_stringIcNS2_11char_traitsIcEENS2_9allocatorIcEEEEbxydS8_NS0_14adl_serializerENS4_IhNS8_IhEEEEvEC1EOSE_, symObjAddr: 0x7808, symBinAddr: 0x100008D80, symSize: 0x34 }
  - { offsetInCU: 0x39EA3, offset: 0x39EA3, size: 0x8, addend: 0x0, symName: __ZNSt3__16vectorIN8nlohmann16json_abi_v3_11_310basic_jsonINS_3mapES0_NS_12basic_stringIcNS_11char_traitsIcEENS_9allocatorIcEEEEbxydS8_NS2_14adl_serializerENS0_IhNS8_IhEEEEvEENS8_ISE_EEE8pop_backEv, symObjAddr: 0x783C, symBinAddr: 0x100008DB4, symSize: 0x2C }
  - { offsetInCU: 0x39ECB, offset: 0x39ECB, size: 0x8, addend: 0x0, symName: __ZNK8nlohmann16json_abi_v3_11_310basic_jsonINSt3__13mapENS2_6vectorENS2_12basic_stringIcNS2_11char_traitsIcEENS2_9allocatorIcEEEEbxydS8_NS0_14adl_serializerENS4_IhNS8_IhEEEEvE8is_arrayEv, symObjAddr: 0x7868, symBinAddr: 0x100008DE0, symSize: 0x24 }
  - { offsetInCU: 0x39EF1, offset: 0x39EF1, size: 0x8, addend: 0x0, symName: __ZNSt3__16vectorIN8nlohmann16json_abi_v3_11_310basic_jsonINS_3mapES0_NS_12basic_stringIcNS_11char_traitsIcEENS_9allocatorIcEEEEbxydS8_NS2_14adl_serializerENS0_IhNS8_IhEEEEvEENS8_ISE_EEE5clearB8ue170006Ev, symObjAddr: 0x788C, symBinAddr: 0x100008E04, symSize: 0x44 }
  - { offsetInCU: 0x39F26, offset: 0x39F26, size: 0x8, addend: 0x0, symName: __ZNK8nlohmann16json_abi_v3_11_310basic_jsonINSt3__13mapENS2_6vectorENS2_12basic_stringIcNS2_11char_traitsIcEENS2_9allocatorIcEEEEbxydS8_NS0_14adl_serializerENS4_IhNS8_IhEEEEvE9is_objectEv, symObjAddr: 0x78D0, symBinAddr: 0x100008E48, symSize: 0x24 }
  - { offsetInCU: 0x39F4C, offset: 0x39F4C, size: 0x8, addend: 0x0, symName: __ZNSt3__13mapINS_12basic_stringIcNS_11char_traitsIcEENS_9allocatorIcEEEEN8nlohmann16json_abi_v3_11_310basic_jsonIS0_NS_6vectorES6_bxydS4_NS8_14adl_serializerENSA_IhNS4_IhEEEEvEENS_4lessIvEENS4_INS_4pairIKS6_SE_EEEEE5clearB8ue170006Ev, symObjAddr: 0x78F4, symBinAddr: 0x100008E6C, symSize: 0x24 }
  - { offsetInCU: 0x39F72, offset: 0x39F72, size: 0x8, addend: 0x0, symName: __ZNSt3__16vectorIN8nlohmann16json_abi_v3_11_310basic_jsonINS_3mapES0_NS_12basic_stringIcNS_11char_traitsIcEENS_9allocatorIcEEEEbxydS8_NS2_14adl_serializerENS0_IhNS8_IhEEEEvEENS8_ISE_EEED1B8ue170006Ev, symObjAddr: 0x7918, symBinAddr: 0x100008E90, symSize: 0x2C }
  - { offsetInCU: 0x39FA8, offset: 0x39FA8, size: 0x8, addend: 0x0, symName: __ZNSt3__19allocatorINS_3mapINS_12basic_stringIcNS_11char_traitsIcEENS0_IcEEEEN8nlohmann16json_abi_v3_11_310basic_jsonIS1_NS_6vectorES6_bxydS0_NS8_14adl_serializerENSA_IhNS0_IhEEEEvEENS_4lessIvEENS0_INS_4pairIKS6_SE_EEEEEEEC1B8ue170006Ev, symObjAddr: 0x7944, symBinAddr: 0x100008EBC, symSize: 0x2C }
  - { offsetInCU: 0x39FD8, offset: 0x39FD8, size: 0x8, addend: 0x0, symName: __ZNSt3__116allocator_traitsINS_9allocatorINS_3mapINS_12basic_stringIcNS_11char_traitsIcEENS1_IcEEEEN8nlohmann16json_abi_v3_11_310basic_jsonIS2_NS_6vectorES7_bxydS1_NS9_14adl_serializerENSB_IhNS1_IhEEEEvEENS_4lessIvEENS1_INS_4pairIKS7_SF_EEEEEEEEE7destroyB8ue170006ISM_vvEEvRSN_PT_, symObjAddr: 0x7970, symBinAddr: 0x100008EE8, symSize: 0x28 }
  - { offsetInCU: 0x3A012, offset: 0x3A012, size: 0x8, addend: 0x0, symName: __ZNSt3__116allocator_traitsINS_9allocatorINS_3mapINS_12basic_stringIcNS_11char_traitsIcEENS1_IcEEEEN8nlohmann16json_abi_v3_11_310basic_jsonIS2_NS_6vectorES7_bxydS1_NS9_14adl_serializerENSB_IhNS1_IhEEEEvEENS_4lessIvEENS1_INS_4pairIKS7_SF_EEEEEEEEE10deallocateB8ue170006ERSN_PSM_m, symObjAddr: 0x7998, symBinAddr: 0x100008F10, symSize: 0x34 }
  - { offsetInCU: 0x3A060, offset: 0x3A060, size: 0x8, addend: 0x0, symName: __ZNSt3__19allocatorINS_6vectorIN8nlohmann16json_abi_v3_11_310basic_jsonINS_3mapES1_NS_12basic_stringIcNS_11char_traitsIcEENS0_IcEEEEbxydS0_NS3_14adl_serializerENS1_IhNS0_IhEEEEvEENS0_ISE_EEEEEC1B8ue170006Ev, symObjAddr: 0x79CC, symBinAddr: 0x100008F44, symSize: 0x2C }
  - { offsetInCU: 0x3A090, offset: 0x3A090, size: 0x8, addend: 0x0, symName: __ZNSt3__116allocator_traitsINS_9allocatorINS_6vectorIN8nlohmann16json_abi_v3_11_310basic_jsonINS_3mapES2_NS_12basic_stringIcNS_11char_traitsIcEENS1_IcEEEEbxydS1_NS4_14adl_serializerENS2_IhNS1_IhEEEEvEENS1_ISF_EEEEEEE7destroyB8ue170006ISH_vvEEvRSI_PT_, symObjAddr: 0x79F8, symBinAddr: 0x100008F70, symSize: 0x28 }
  - { offsetInCU: 0x3A0CA, offset: 0x3A0CA, size: 0x8, addend: 0x0, symName: __ZNSt3__116allocator_traitsINS_9allocatorINS_6vectorIN8nlohmann16json_abi_v3_11_310basic_jsonINS_3mapES2_NS_12basic_stringIcNS_11char_traitsIcEENS1_IcEEEEbxydS1_NS4_14adl_serializerENS2_IhNS1_IhEEEEvEENS1_ISF_EEEEEEE10deallocateB8ue170006ERSI_PSH_m, symObjAddr: 0x7A20, symBinAddr: 0x100008F98, symSize: 0x34 }
  - { offsetInCU: 0x3A10C, offset: 0x3A10C, size: 0x8, addend: 0x0, symName: __ZNSt3__19allocatorINS_12basic_stringIcNS_11char_traitsIcEENS0_IcEEEEEC1B8ue170006Ev, symObjAddr: 0x7A54, symBinAddr: 0x100008FCC, symSize: 0x2C }
  - { offsetInCU: 0x3A136, offset: 0x3A136, size: 0x8, addend: 0x0, symName: __ZNSt3__116allocator_traitsINS_9allocatorINS_12basic_stringIcNS_11char_traitsIcEENS1_IcEEEEEEE7destroyB8ue170006IS6_vvEEvRS7_PT_, symObjAddr: 0x7A80, symBinAddr: 0x100008FF8, symSize: 0x28 }
  - { offsetInCU: 0x3A170, offset: 0x3A170, size: 0x8, addend: 0x0, symName: __ZNSt3__116allocator_traitsINS_9allocatorINS_12basic_stringIcNS_11char_traitsIcEENS1_IcEEEEEEE10deallocateB8ue170006ERS7_PS6_m, symObjAddr: 0x7AA8, symBinAddr: 0x100009020, symSize: 0x34 }
  - { offsetInCU: 0x3A1BE, offset: 0x3A1BE, size: 0x8, addend: 0x0, symName: __ZNSt3__19allocatorIN8nlohmann16json_abi_v3_11_327byte_container_with_subtypeINS_6vectorIhNS0_IhEEEEEEEC1B8ue170006Ev, symObjAddr: 0x7ADC, symBinAddr: 0x100009054, symSize: 0x2C }
  - { offsetInCU: 0x3A1EE, offset: 0x3A1EE, size: 0x8, addend: 0x0, symName: __ZNSt3__116allocator_traitsINS_9allocatorIN8nlohmann16json_abi_v3_11_327byte_container_with_subtypeINS_6vectorIhNS1_IhEEEEEEEEE7destroyB8ue170006IS8_vvEEvRS9_PT_, symObjAddr: 0x7B08, symBinAddr: 0x100009080, symSize: 0x28 }
  - { offsetInCU: 0x3A228, offset: 0x3A228, size: 0x8, addend: 0x0, symName: __ZNSt3__116allocator_traitsINS_9allocatorIN8nlohmann16json_abi_v3_11_327byte_container_with_subtypeINS_6vectorIhNS1_IhEEEEEEEEE10deallocateB8ue170006ERS9_PS8_m, symObjAddr: 0x7B30, symBinAddr: 0x1000090A8, symSize: 0x34 }
  - { offsetInCU: 0x3A26A, offset: 0x3A26A, size: 0x8, addend: 0x0, symName: __ZNSt3__16vectorIN8nlohmann16json_abi_v3_11_310basic_jsonINS_3mapES0_NS_12basic_stringIcNS_11char_traitsIcEENS_9allocatorIcEEEEbxydS8_NS2_14adl_serializerENS0_IhNS8_IhEEEEvEENS8_ISE_EEEC2B8ue170006Ev, symObjAddr: 0x7B64, symBinAddr: 0x1000090DC, symSize: 0x4C }
  - { offsetInCU: 0x3A29A, offset: 0x3A29A, size: 0x8, addend: 0x0, symName: __ZNSt3__117__compressed_pairIPN8nlohmann16json_abi_v3_11_310basic_jsonINS_3mapENS_6vectorENS_12basic_stringIcNS_11char_traitsIcEENS_9allocatorIcEEEEbxydS9_NS2_14adl_serializerENS5_IhNS9_IhEEEEvEENS9_ISF_EEEC1B8ue170006IDnNS_18__default_init_tagEEEOT_OT0_, symObjAddr: 0x7BB0, symBinAddr: 0x100009128, symSize: 0x3C }
  - { offsetInCU: 0x3A2F2, offset: 0x3A2F2, size: 0x8, addend: 0x0, symName: __ZNSt3__117__compressed_pairIPN8nlohmann16json_abi_v3_11_310basic_jsonINS_3mapENS_6vectorENS_12basic_stringIcNS_11char_traitsIcEENS_9allocatorIcEEEEbxydS9_NS2_14adl_serializerENS5_IhNS9_IhEEEEvEENS9_ISF_EEEC2B8ue170006IDnNS_18__default_init_tagEEEOT_OT0_, symObjAddr: 0x7BEC, symBinAddr: 0x100009164, symSize: 0x40 }
  - { offsetInCU: 0x3A34A, offset: 0x3A34A, size: 0x8, addend: 0x0, symName: __ZNSt3__122__compressed_pair_elemIPN8nlohmann16json_abi_v3_11_310basic_jsonINS_3mapENS_6vectorENS_12basic_stringIcNS_11char_traitsIcEENS_9allocatorIcEEEEbxydS9_NS2_14adl_serializerENS5_IhNS9_IhEEEEvEELi0ELb0EEC2B8ue170006IDnvEEOT_, symObjAddr: 0x7C2C, symBinAddr: 0x1000091A4, symSize: 0x1C }
  - { offsetInCU: 0x3A38C, offset: 0x3A38C, size: 0x8, addend: 0x0, symName: __ZNSt3__122__compressed_pair_elemINS_9allocatorIN8nlohmann16json_abi_v3_11_310basic_jsonINS_3mapENS_6vectorENS_12basic_stringIcNS_11char_traitsIcEENS1_IcEEEEbxydS1_NS3_14adl_serializerENS6_IhNS1_IhEEEEvEEEELi1ELb1EEC2B8ue170006ENS_18__default_init_tagE, symObjAddr: 0x7C48, symBinAddr: 0x1000091C0, symSize: 0x2C }
  - { offsetInCU: 0x3A3C1, offset: 0x3A3C1, size: 0x8, addend: 0x0, symName: __ZNSt3__19allocatorIN8nlohmann16json_abi_v3_11_310basic_jsonINS_3mapENS_6vectorENS_12basic_stringIcNS_11char_traitsIcEENS0_IcEEEEbxydS0_NS2_14adl_serializerENS5_IhNS0_IhEEEEvEEEC2B8ue170006Ev, symObjAddr: 0x7C74, symBinAddr: 0x1000091EC, symSize: 0x2C }
  - { offsetInCU: 0x3A3EB, offset: 0x3A3EB, size: 0x8, addend: 0x0, symName: __ZNSt3__116__non_trivial_ifILb1ENS_9allocatorIN8nlohmann16json_abi_v3_11_310basic_jsonINS_3mapENS_6vectorENS_12basic_stringIcNS_11char_traitsIcEENS1_IcEEEEbxydS1_NS3_14adl_serializerENS6_IhNS1_IhEEEEvEEEEEC2B8ue170006Ev, symObjAddr: 0x7CA0, symBinAddr: 0x100009218, symSize: 0x14 }
  - { offsetInCU: 0x3A415, offset: 0x3A415, size: 0x8, addend: 0x0, symName: __ZNKSt3__16vectorIN8nlohmann16json_abi_v3_11_310basic_jsonINS_3mapES0_NS_12basic_stringIcNS_11char_traitsIcEENS_9allocatorIcEEEEbxydS8_NS2_14adl_serializerENS0_IhNS8_IhEEEEvEENS8_ISE_EEE8capacityB8ue170006Ev, symObjAddr: 0x7CB4, symBinAddr: 0x10000922C, symSize: 0x40 }
  - { offsetInCU: 0x3A43B, offset: 0x3A43B, size: 0x8, addend: 0x0, symName: __ZNKSt3__16vectorIN8nlohmann16json_abi_v3_11_310basic_jsonINS_3mapES0_NS_12basic_stringIcNS_11char_traitsIcEENS_9allocatorIcEEEEbxydS8_NS2_14adl_serializerENS0_IhNS8_IhEEEEvEENS8_ISE_EEE8max_sizeEv, symObjAddr: 0x7CF4, symBinAddr: 0x10000926C, symSize: 0x60 }
  - { offsetInCU: 0x3A463, offset: 0x3A463, size: 0x8, addend: 0x0, symName: __ZNKSt3__16vectorIN8nlohmann16json_abi_v3_11_310basic_jsonINS_3mapES0_NS_12basic_stringIcNS_11char_traitsIcEENS_9allocatorIcEEEEbxydS8_NS2_14adl_serializerENS0_IhNS8_IhEEEEvEENS8_ISE_EEE20__throw_length_errorB8ue170006Ev, symObjAddr: 0x7D54, symBinAddr: 0x1000092CC, symSize: 0x1C }
  - { offsetInCU: 0x3A489, offset: 0x3A489, size: 0x8, addend: 0x0, symName: __ZNSt3__16vectorIN8nlohmann16json_abi_v3_11_310basic_jsonINS_3mapES0_NS_12basic_stringIcNS_11char_traitsIcEENS_9allocatorIcEEEEbxydS8_NS2_14adl_serializerENS0_IhNS8_IhEEEEvEENS8_ISE_EEE7__allocB8ue170006Ev, symObjAddr: 0x7D70, symBinAddr: 0x1000092E8, symSize: 0x28 }
  - { offsetInCU: 0x3A4AF, offset: 0x3A4AF, size: 0x8, addend: 0x0, symName: __ZNSt3__114__split_bufferIN8nlohmann16json_abi_v3_11_310basic_jsonINS_3mapENS_6vectorENS_12basic_stringIcNS_11char_traitsIcEENS_9allocatorIcEEEEbxydS9_NS2_14adl_serializerENS5_IhNS9_IhEEEEvEERNS9_ISF_EEEC1EmmSH_, symObjAddr: 0x7D98, symBinAddr: 0x100009310, symSize: 0x44 }
  - { offsetInCU: 0x3A505, offset: 0x3A505, size: 0x8, addend: 0x0, symName: __ZNSt3__114__split_bufferIN8nlohmann16json_abi_v3_11_310basic_jsonINS_3mapENS_6vectorENS_12basic_stringIcNS_11char_traitsIcEENS_9allocatorIcEEEEbxydS9_NS2_14adl_serializerENS5_IhNS9_IhEEEEvEERNS9_ISF_EEED1Ev, symObjAddr: 0x7EEC, symBinAddr: 0x100009464, symSize: 0x2C }
  - { offsetInCU: 0x3A531, offset: 0x3A531, size: 0x8, addend: 0x0, symName: __ZNKSt3__16vectorIN8nlohmann16json_abi_v3_11_310basic_jsonINS_3mapES0_NS_12basic_stringIcNS_11char_traitsIcEENS_9allocatorIcEEEEbxydS8_NS2_14adl_serializerENS0_IhNS8_IhEEEEvEENS8_ISE_EEE9__end_capB8ue170006Ev, symObjAddr: 0x7F18, symBinAddr: 0x100009490, symSize: 0x28 }
  - { offsetInCU: 0x3A557, offset: 0x3A557, size: 0x8, addend: 0x0, symName: __ZNKSt3__117__compressed_pairIPN8nlohmann16json_abi_v3_11_310basic_jsonINS_3mapENS_6vectorENS_12basic_stringIcNS_11char_traitsIcEENS_9allocatorIcEEEEbxydS9_NS2_14adl_serializerENS5_IhNS9_IhEEEEvEENS9_ISF_EEE5firstB8ue170006Ev, symObjAddr: 0x7F40, symBinAddr: 0x1000094B8, symSize: 0x24 }
  - { offsetInCU: 0x3A57D, offset: 0x3A57D, size: 0x8, addend: 0x0, symName: __ZNKSt3__122__compressed_pair_elemIPN8nlohmann16json_abi_v3_11_310basic_jsonINS_3mapENS_6vectorENS_12basic_stringIcNS_11char_traitsIcEENS_9allocatorIcEEEEbxydS9_NS2_14adl_serializerENS5_IhNS9_IhEEEEvEELi0ELb0EE5__getB8ue170006Ev, symObjAddr: 0x7F64, symBinAddr: 0x1000094DC, symSize: 0x14 }
  - { offsetInCU: 0x3A5AE, offset: 0x3A5AE, size: 0x8, addend: 0x0, symName: __ZNSt3__116allocator_traitsINS_9allocatorIN8nlohmann16json_abi_v3_11_310basic_jsonINS_3mapENS_6vectorENS_12basic_stringIcNS_11char_traitsIcEENS1_IcEEEEbxydS1_NS3_14adl_serializerENS6_IhNS1_IhEEEEvEEEEE8max_sizeB8ue170006ISG_vvEEmRKSG_, symObjAddr: 0x7F78, symBinAddr: 0x1000094F0, symSize: 0x28 }
  - { offsetInCU: 0x3A5D9, offset: 0x3A5D9, size: 0x8, addend: 0x0, symName: __ZNKSt3__16vectorIN8nlohmann16json_abi_v3_11_310basic_jsonINS_3mapES0_NS_12basic_stringIcNS_11char_traitsIcEENS_9allocatorIcEEEEbxydS8_NS2_14adl_serializerENS0_IhNS8_IhEEEEvEENS8_ISE_EEE7__allocB8ue170006Ev, symObjAddr: 0x7FA0, symBinAddr: 0x100009518, symSize: 0x28 }
  - { offsetInCU: 0x3A5FF, offset: 0x3A5FF, size: 0x8, addend: 0x0, symName: __ZNSt3__114numeric_limitsIlE3maxB8ue170006Ev, symObjAddr: 0x7FC8, symBinAddr: 0x100009540, symSize: 0x14 }
  - { offsetInCU: 0x3A613, offset: 0x3A613, size: 0x8, addend: 0x0, symName: __ZNSt3__114numeric_limitsImE3maxB8ue170006Ev, symObjAddr: 0x7FDC, symBinAddr: 0x100009554, symSize: 0x14 }
  - { offsetInCU: 0x3A627, offset: 0x3A627, size: 0x8, addend: 0x0, symName: __ZNSt3__123__libcpp_numeric_limitsImLb1EE3maxB8ue170006Ev, symObjAddr: 0x7FF0, symBinAddr: 0x100009568, symSize: 0x8 }
  - { offsetInCU: 0x3A63B, offset: 0x3A63B, size: 0x8, addend: 0x0, symName: __ZNKSt3__117__compressed_pairIPN8nlohmann16json_abi_v3_11_310basic_jsonINS_3mapENS_6vectorENS_12basic_stringIcNS_11char_traitsIcEENS_9allocatorIcEEEEbxydS9_NS2_14adl_serializerENS5_IhNS9_IhEEEEvEENS9_ISF_EEE6secondB8ue170006Ev, symObjAddr: 0x7FF8, symBinAddr: 0x100009570, symSize: 0x24 }
  - { offsetInCU: 0x3A661, offset: 0x3A661, size: 0x8, addend: 0x0, symName: __ZNKSt3__122__compressed_pair_elemINS_9allocatorIN8nlohmann16json_abi_v3_11_310basic_jsonINS_3mapENS_6vectorENS_12basic_stringIcNS_11char_traitsIcEENS1_IcEEEEbxydS1_NS3_14adl_serializerENS6_IhNS1_IhEEEEvEEEELi1ELb1EE5__getB8ue170006Ev, symObjAddr: 0x801C, symBinAddr: 0x100009594, symSize: 0x14 }
  - { offsetInCU: 0x3A687, offset: 0x3A687, size: 0x8, addend: 0x0, symName: __ZNSt3__123__libcpp_numeric_limitsIlLb1EE3maxB8ue170006Ev, symObjAddr: 0x8030, symBinAddr: 0x1000095A8, symSize: 0x8 }
  - { offsetInCU: 0x3A69B, offset: 0x3A69B, size: 0x8, addend: 0x0, symName: __ZNSt12length_errorC1B8ue170006EPKc, symObjAddr: 0x809C, symBinAddr: 0x100009614, symSize: 0x34 }
  - { offsetInCU: 0x3A6D3, offset: 0x3A6D3, size: 0x8, addend: 0x0, symName: __ZNSt12length_errorC2B8ue170006EPKc, symObjAddr: 0x80D0, symBinAddr: 0x100009648, symSize: 0x4C }
  - { offsetInCU: 0x3A70B, offset: 0x3A70B, size: 0x8, addend: 0x0, symName: __ZNSt3__117__compressed_pairIPN8nlohmann16json_abi_v3_11_310basic_jsonINS_3mapENS_6vectorENS_12basic_stringIcNS_11char_traitsIcEENS_9allocatorIcEEEEbxydS9_NS2_14adl_serializerENS5_IhNS9_IhEEEEvEENS9_ISF_EEE6secondB8ue170006Ev, symObjAddr: 0x811C, symBinAddr: 0x100009694, symSize: 0x24 }
  - { offsetInCU: 0x3A731, offset: 0x3A731, size: 0x8, addend: 0x0, symName: __ZNSt3__122__compressed_pair_elemINS_9allocatorIN8nlohmann16json_abi_v3_11_310basic_jsonINS_3mapENS_6vectorENS_12basic_stringIcNS_11char_traitsIcEENS1_IcEEEEbxydS1_NS3_14adl_serializerENS6_IhNS1_IhEEEEvEEEELi1ELb1EE5__getB8ue170006Ev, symObjAddr: 0x8140, symBinAddr: 0x1000096B8, symSize: 0x14 }
  - { offsetInCU: 0x3A757, offset: 0x3A757, size: 0x8, addend: 0x0, symName: __ZNSt3__114__split_bufferIN8nlohmann16json_abi_v3_11_310basic_jsonINS_3mapENS_6vectorENS_12basic_stringIcNS_11char_traitsIcEENS_9allocatorIcEEEEbxydS9_NS2_14adl_serializerENS5_IhNS9_IhEEEEvEERNS9_ISF_EEEC2EmmSH_, symObjAddr: 0x8154, symBinAddr: 0x1000096CC, symSize: 0xD4 }
  - { offsetInCU: 0x3A7CB, offset: 0x3A7CB, size: 0x8, addend: 0x0, symName: __ZNSt3__117__compressed_pairIPN8nlohmann16json_abi_v3_11_310basic_jsonINS_3mapENS_6vectorENS_12basic_stringIcNS_11char_traitsIcEENS_9allocatorIcEEEEbxydS9_NS2_14adl_serializerENS5_IhNS9_IhEEEEvEERNS9_ISF_EEEC1B8ue170006IDnSI_EEOT_OT0_, symObjAddr: 0x8228, symBinAddr: 0x1000097A0, symSize: 0x3C }
  - { offsetInCU: 0x3A823, offset: 0x3A823, size: 0x8, addend: 0x0, symName: __ZNSt3__114__split_bufferIN8nlohmann16json_abi_v3_11_310basic_jsonINS_3mapENS_6vectorENS_12basic_stringIcNS_11char_traitsIcEENS_9allocatorIcEEEEbxydS9_NS2_14adl_serializerENS5_IhNS9_IhEEEEvEERNS9_ISF_EEE7__allocB8ue170006Ev, symObjAddr: 0x82A4, symBinAddr: 0x10000981C, symSize: 0x28 }
  - { offsetInCU: 0x3A849, offset: 0x3A849, size: 0x8, addend: 0x0, symName: __ZNSt3__114__split_bufferIN8nlohmann16json_abi_v3_11_310basic_jsonINS_3mapENS_6vectorENS_12basic_stringIcNS_11char_traitsIcEENS_9allocatorIcEEEEbxydS9_NS2_14adl_serializerENS5_IhNS9_IhEEEEvEERNS9_ISF_EEE9__end_capB8ue170006Ev, symObjAddr: 0x82CC, symBinAddr: 0x100009844, symSize: 0x28 }
  - { offsetInCU: 0x3A86F, offset: 0x3A86F, size: 0x8, addend: 0x0, symName: __ZNSt3__117__compressed_pairIPN8nlohmann16json_abi_v3_11_310basic_jsonINS_3mapENS_6vectorENS_12basic_stringIcNS_11char_traitsIcEENS_9allocatorIcEEEEbxydS9_NS2_14adl_serializerENS5_IhNS9_IhEEEEvEERNS9_ISF_EEEC2B8ue170006IDnSI_EEOT_OT0_, symObjAddr: 0x82F4, symBinAddr: 0x10000986C, symSize: 0x48 }
  - { offsetInCU: 0x3A8C7, offset: 0x3A8C7, size: 0x8, addend: 0x0, symName: __ZNSt3__122__compressed_pair_elemIRNS_9allocatorIN8nlohmann16json_abi_v3_11_310basic_jsonINS_3mapENS_6vectorENS_12basic_stringIcNS_11char_traitsIcEENS1_IcEEEEbxydS1_NS3_14adl_serializerENS6_IhNS1_IhEEEEvEEEELi1ELb0EEC2B8ue170006ISH_vEEOT_, symObjAddr: 0x833C, symBinAddr: 0x1000098B4, symSize: 0x20 }
  - { offsetInCU: 0x3A909, offset: 0x3A909, size: 0x8, addend: 0x0, symName: __ZNSt3__19allocatorIN8nlohmann16json_abi_v3_11_310basic_jsonINS_3mapENS_6vectorENS_12basic_stringIcNS_11char_traitsIcEENS0_IcEEEEbxydS0_NS2_14adl_serializerENS5_IhNS0_IhEEEEvEEE8allocateB8ue170006Em, symObjAddr: 0x835C, symBinAddr: 0x1000098D4, symSize: 0x58 }
  - { offsetInCU: 0x3A93D, offset: 0x3A93D, size: 0x8, addend: 0x0, symName: __ZNSt3__117__compressed_pairIPN8nlohmann16json_abi_v3_11_310basic_jsonINS_3mapENS_6vectorENS_12basic_stringIcNS_11char_traitsIcEENS_9allocatorIcEEEEbxydS9_NS2_14adl_serializerENS5_IhNS9_IhEEEEvEERNS9_ISF_EEE6secondB8ue170006Ev, symObjAddr: 0x8498, symBinAddr: 0x100009A10, symSize: 0x28 }
  - { offsetInCU: 0x3A963, offset: 0x3A963, size: 0x8, addend: 0x0, symName: __ZNSt3__122__compressed_pair_elemIRNS_9allocatorIN8nlohmann16json_abi_v3_11_310basic_jsonINS_3mapENS_6vectorENS_12basic_stringIcNS_11char_traitsIcEENS1_IcEEEEbxydS1_NS3_14adl_serializerENS6_IhNS1_IhEEEEvEEEELi1ELb0EE5__getB8ue170006Ev, symObjAddr: 0x84C0, symBinAddr: 0x100009A38, symSize: 0x18 }
  - { offsetInCU: 0x3A989, offset: 0x3A989, size: 0x8, addend: 0x0, symName: __ZNSt3__117__compressed_pairIPN8nlohmann16json_abi_v3_11_310basic_jsonINS_3mapENS_6vectorENS_12basic_stringIcNS_11char_traitsIcEENS_9allocatorIcEEEEbxydS9_NS2_14adl_serializerENS5_IhNS9_IhEEEEvEERNS9_ISF_EEE5firstB8ue170006Ev, symObjAddr: 0x84D8, symBinAddr: 0x100009A50, symSize: 0x24 }
  - { offsetInCU: 0x3A9AF, offset: 0x3A9AF, size: 0x8, addend: 0x0, symName: __ZNSt3__122__compressed_pair_elemIPN8nlohmann16json_abi_v3_11_310basic_jsonINS_3mapENS_6vectorENS_12basic_stringIcNS_11char_traitsIcEENS_9allocatorIcEEEEbxydS9_NS2_14adl_serializerENS5_IhNS9_IhEEEEvEELi0ELb0EE5__getB8ue170006Ev, symObjAddr: 0x84FC, symBinAddr: 0x100009A74, symSize: 0x14 }
  - { offsetInCU: 0x3A9D5, offset: 0x3A9D5, size: 0x8, addend: 0x0, symName: __ZNKSt3__16vectorIN8nlohmann16json_abi_v3_11_310basic_jsonINS_3mapES0_NS_12basic_stringIcNS_11char_traitsIcEENS_9allocatorIcEEEEbxydS8_NS2_14adl_serializerENS0_IhNS8_IhEEEEvEENS8_ISE_EEE17__annotate_deleteB8ue170006Ev, symObjAddr: 0x8510, symBinAddr: 0x100009A88, symSize: 0xB8 }
  - { offsetInCU: 0x3A9FB, offset: 0x3A9FB, size: 0x8, addend: 0x0, symName: __ZNSt3__116reverse_iteratorIPN8nlohmann16json_abi_v3_11_310basic_jsonINS_3mapENS_6vectorENS_12basic_stringIcNS_11char_traitsIcEENS_9allocatorIcEEEEbxydS9_NS2_14adl_serializerENS5_IhNS9_IhEEEEvEEEC1B8ue170006ESG_, symObjAddr: 0x86F4, symBinAddr: 0x100009C6C, symSize: 0x34 }
  - { offsetInCU: 0x3AA33, offset: 0x3AA33, size: 0x8, addend: 0x0, symName: __ZNKSt3__116reverse_iteratorIPN8nlohmann16json_abi_v3_11_310basic_jsonINS_3mapENS_6vectorENS_12basic_stringIcNS_11char_traitsIcEENS_9allocatorIcEEEEbxydS9_NS2_14adl_serializerENS5_IhNS9_IhEEEEvEEE4baseB8ue170006Ev, symObjAddr: 0x8728, symBinAddr: 0x100009CA0, symSize: 0x18 }
  - { offsetInCU: 0x3AA59, offset: 0x3AA59, size: 0x8, addend: 0x0, symName: __ZNSt3__16vectorIN8nlohmann16json_abi_v3_11_310basic_jsonINS_3mapES0_NS_12basic_stringIcNS_11char_traitsIcEENS_9allocatorIcEEEEbxydS8_NS2_14adl_serializerENS0_IhNS8_IhEEEEvEENS8_ISE_EEE9__end_capB8ue170006Ev, symObjAddr: 0x877C, symBinAddr: 0x100009CF4, symSize: 0x28 }
  - { offsetInCU: 0x3AA7F, offset: 0x3AA7F, size: 0x8, addend: 0x0, symName: __ZNKSt3__16vectorIN8nlohmann16json_abi_v3_11_310basic_jsonINS_3mapES0_NS_12basic_stringIcNS_11char_traitsIcEENS_9allocatorIcEEEEbxydS8_NS2_14adl_serializerENS0_IhNS8_IhEEEEvEENS8_ISE_EEE14__annotate_newB8ue170006Em, symObjAddr: 0x87A4, symBinAddr: 0x100009D1C, symSize: 0xAC }
  - { offsetInCU: 0x3AAB4, offset: 0x3AAB4, size: 0x8, addend: 0x0, symName: __ZNKSt3__16vectorIN8nlohmann16json_abi_v3_11_310basic_jsonINS_3mapES0_NS_12basic_stringIcNS_11char_traitsIcEENS_9allocatorIcEEEEbxydS8_NS2_14adl_serializerENS0_IhNS8_IhEEEEvEENS8_ISE_EEE31__annotate_contiguous_containerB8ue170006EPKvSI_SI_SI_, symObjAddr: 0x8850, symBinAddr: 0x100009DC8, symSize: 0x20 }
  - { offsetInCU: 0x3AB06, offset: 0x3AB06, size: 0x8, addend: 0x0, symName: __ZNKSt3__16vectorIN8nlohmann16json_abi_v3_11_310basic_jsonINS_3mapES0_NS_12basic_stringIcNS_11char_traitsIcEENS_9allocatorIcEEEEbxydS8_NS2_14adl_serializerENS0_IhNS8_IhEEEEvEENS8_ISE_EEE4dataB8ue170006Ev, symObjAddr: 0x8870, symBinAddr: 0x100009DE8, symSize: 0x28 }
  - { offsetInCU: 0x3AB2C, offset: 0x3AB2C, size: 0x8, addend: 0x0, symName: __ZNSt3__129_AllocatorDestroyRangeReverseINS_9allocatorIN8nlohmann16json_abi_v3_11_310basic_jsonINS_3mapENS_6vectorENS_12basic_stringIcNS_11char_traitsIcEENS1_IcEEEEbxydS1_NS3_14adl_serializerENS6_IhNS1_IhEEEEvEEEENS_16reverse_iteratorIPSF_EEEC1B8ue170006ERSG_RSJ_SM_, symObjAddr: 0x88F8, symBinAddr: 0x100009E70, symSize: 0x44 }
  - { offsetInCU: 0x3AB83, offset: 0x3AB83, size: 0x8, addend: 0x0, symName: __ZNSt3__116allocator_traitsINS_9allocatorIN8nlohmann16json_abi_v3_11_310basic_jsonINS_3mapENS_6vectorENS_12basic_stringIcNS_11char_traitsIcEENS1_IcEEEEbxydS1_NS3_14adl_serializerENS6_IhNS1_IhEEEEvEEEEE9constructB8ue170006ISF_JSF_EvvEEvRSG_PT_DpOT0_, symObjAddr: 0x8984, symBinAddr: 0x100009EFC, symSize: 0x30 }
  - { offsetInCU: 0x3ABD7, offset: 0x3ABD7, size: 0x8, addend: 0x0, symName: __ZNKSt3__116reverse_iteratorIPN8nlohmann16json_abi_v3_11_310basic_jsonINS_3mapENS_6vectorENS_12basic_stringIcNS_11char_traitsIcEENS_9allocatorIcEEEEbxydS9_NS2_14adl_serializerENS5_IhNS9_IhEEEEvEEEdeB8ue170006Ev, symObjAddr: 0x89D8, symBinAddr: 0x100009F50, symSize: 0x28 }
  - { offsetInCU: 0x3AC0B, offset: 0x3AC0B, size: 0x8, addend: 0x0, symName: __ZNSt3__116reverse_iteratorIPN8nlohmann16json_abi_v3_11_310basic_jsonINS_3mapENS_6vectorENS_12basic_stringIcNS_11char_traitsIcEENS_9allocatorIcEEEEbxydS9_NS2_14adl_serializerENS5_IhNS9_IhEEEEvEEEppB8ue170006Ev, symObjAddr: 0x8A00, symBinAddr: 0x100009F78, symSize: 0x20 }
  - { offsetInCU: 0x3AC31, offset: 0x3AC31, size: 0x8, addend: 0x0, symName: __ZNSt3__128__exception_guard_exceptionsINS_29_AllocatorDestroyRangeReverseINS_9allocatorIN8nlohmann16json_abi_v3_11_310basic_jsonINS_3mapENS_6vectorENS_12basic_stringIcNS_11char_traitsIcEENS2_IcEEEEbxydS2_NS4_14adl_serializerENS7_IhNS2_IhEEEEvEEEENS_16reverse_iteratorIPSG_EEEEE10__completeB8ue170006Ev, symObjAddr: 0x8A20, symBinAddr: 0x100009F98, symSize: 0x1C }
  - { offsetInCU: 0x3AC57, offset: 0x3AC57, size: 0x8, addend: 0x0, symName: __ZNSt3__128__exception_guard_exceptionsINS_29_AllocatorDestroyRangeReverseINS_9allocatorIN8nlohmann16json_abi_v3_11_310basic_jsonINS_3mapENS_6vectorENS_12basic_stringIcNS_11char_traitsIcEENS2_IcEEEEbxydS2_NS4_14adl_serializerENS7_IhNS2_IhEEEEvEEEENS_16reverse_iteratorIPSG_EEEEED1B8ue170006Ev, symObjAddr: 0x8A3C, symBinAddr: 0x100009FB4, symSize: 0x2C }
  - { offsetInCU: 0x3AC81, offset: 0x3AC81, size: 0x8, addend: 0x0, symName: __ZNSt3__128__exception_guard_exceptionsINS_29_AllocatorDestroyRangeReverseINS_9allocatorIN8nlohmann16json_abi_v3_11_310basic_jsonINS_3mapENS_6vectorENS_12basic_stringIcNS_11char_traitsIcEENS2_IcEEEEbxydS2_NS4_14adl_serializerENS7_IhNS2_IhEEEEvEEEENS_16reverse_iteratorIPSG_EEEEEC1B8ue170006ESL_, symObjAddr: 0x8A68, symBinAddr: 0x100009FE0, symSize: 0x34 }
  - { offsetInCU: 0x3ACBA, offset: 0x3ACBA, size: 0x8, addend: 0x0, symName: __ZNSt3__128__exception_guard_exceptionsINS_29_AllocatorDestroyRangeReverseINS_9allocatorIN8nlohmann16json_abi_v3_11_310basic_jsonINS_3mapENS_6vectorENS_12basic_stringIcNS_11char_traitsIcEENS2_IcEEEEbxydS2_NS4_14adl_serializerENS7_IhNS2_IhEEEEvEEEENS_16reverse_iteratorIPSG_EEEEEC2B8ue170006ESL_, symObjAddr: 0x8A9C, symBinAddr: 0x10000A014, symSize: 0x30 }
  - { offsetInCU: 0x3ACF3, offset: 0x3ACF3, size: 0x8, addend: 0x0, symName: __ZNSt3__129_AllocatorDestroyRangeReverseINS_9allocatorIN8nlohmann16json_abi_v3_11_310basic_jsonINS_3mapENS_6vectorENS_12basic_stringIcNS_11char_traitsIcEENS1_IcEEEEbxydS1_NS3_14adl_serializerENS6_IhNS1_IhEEEEvEEEENS_16reverse_iteratorIPSF_EEEC2B8ue170006ERSG_RSJ_SM_, symObjAddr: 0x8ACC, symBinAddr: 0x10000A044, symSize: 0x38 }
  - { offsetInCU: 0x3AD50, offset: 0x3AD50, size: 0x8, addend: 0x0, symName: __ZNSt3__119__to_address_helperINS_16reverse_iteratorIPN8nlohmann16json_abi_v3_11_310basic_jsonINS_3mapENS_6vectorENS_12basic_stringIcNS_11char_traitsIcEENS_9allocatorIcEEEEbxydSA_NS3_14adl_serializerENS6_IhNSA_IhEEEEvEEEEvE6__callB8ue170006ERKSI_, symObjAddr: 0x8B40, symBinAddr: 0x10000A0B8, symSize: 0x38 }
  - { offsetInCU: 0x3AD73, offset: 0x3AD73, size: 0x8, addend: 0x0, symName: __ZNKSt3__116reverse_iteratorIPN8nlohmann16json_abi_v3_11_310basic_jsonINS_3mapENS_6vectorENS_12basic_stringIcNS_11char_traitsIcEENS_9allocatorIcEEEEbxydS9_NS2_14adl_serializerENS5_IhNS9_IhEEEEvEEEptB8ue170006Ev, symObjAddr: 0x8B78, symBinAddr: 0x10000A0F0, symSize: 0x2C }
  - { offsetInCU: 0x3AD99, offset: 0x3AD99, size: 0x8, addend: 0x0, symName: __ZNSt3__128__exception_guard_exceptionsINS_29_AllocatorDestroyRangeReverseINS_9allocatorIN8nlohmann16json_abi_v3_11_310basic_jsonINS_3mapENS_6vectorENS_12basic_stringIcNS_11char_traitsIcEENS2_IcEEEEbxydS2_NS4_14adl_serializerENS7_IhNS2_IhEEEEvEEEENS_16reverse_iteratorIPSG_EEEEED2B8ue170006Ev, symObjAddr: 0x8C54, symBinAddr: 0x10000A1CC, symSize: 0x50 }
  - { offsetInCU: 0x3ADC3, offset: 0x3ADC3, size: 0x8, addend: 0x0, symName: __ZNKSt3__129_AllocatorDestroyRangeReverseINS_9allocatorIN8nlohmann16json_abi_v3_11_310basic_jsonINS_3mapENS_6vectorENS_12basic_stringIcNS_11char_traitsIcEENS1_IcEEEEbxydS1_NS3_14adl_serializerENS6_IhNS1_IhEEEEvEEEENS_16reverse_iteratorIPSF_EEEclB8ue170006Ev, symObjAddr: 0x8CA4, symBinAddr: 0x10000A21C, symSize: 0xB4 }
  - { offsetInCU: 0x3ADEA, offset: 0x3ADEA, size: 0x8, addend: 0x0, symName: __ZNSt3__116reverse_iteratorINS0_IPN8nlohmann16json_abi_v3_11_310basic_jsonINS_3mapENS_6vectorENS_12basic_stringIcNS_11char_traitsIcEENS_9allocatorIcEEEEbxydS9_NS2_14adl_serializerENS5_IhNS9_IhEEEEvEEEEEC1B8ue170006ESH_, symObjAddr: 0x8DC8, symBinAddr: 0x10000A340, symSize: 0x3C }
  - { offsetInCU: 0x3AE22, offset: 0x3AE22, size: 0x8, addend: 0x0, symName: __ZNSt3__116allocator_traitsINS_9allocatorIN8nlohmann16json_abi_v3_11_310basic_jsonINS_3mapENS_6vectorENS_12basic_stringIcNS_11char_traitsIcEENS1_IcEEEEbxydS1_NS3_14adl_serializerENS6_IhNS1_IhEEEEvEEEEE7destroyB8ue170006ISF_vvEEvRSG_PT_, symObjAddr: 0x8E64, symBinAddr: 0x10000A3DC, symSize: 0x28 }
  - { offsetInCU: 0x3AE5C, offset: 0x3AE5C, size: 0x8, addend: 0x0, symName: __ZNSt3__116reverse_iteratorINS0_IPN8nlohmann16json_abi_v3_11_310basic_jsonINS_3mapENS_6vectorENS_12basic_stringIcNS_11char_traitsIcEENS_9allocatorIcEEEEbxydS9_NS2_14adl_serializerENS5_IhNS9_IhEEEEvEEEEEppB8ue170006Ev, symObjAddr: 0x8EB0, symBinAddr: 0x10000A428, symSize: 0x30 }
  - { offsetInCU: 0x3AE82, offset: 0x3AE82, size: 0x8, addend: 0x0, symName: __ZNKSt3__116reverse_iteratorINS0_IPN8nlohmann16json_abi_v3_11_310basic_jsonINS_3mapENS_6vectorENS_12basic_stringIcNS_11char_traitsIcEENS_9allocatorIcEEEEbxydS9_NS2_14adl_serializerENS5_IhNS9_IhEEEEvEEEEE4baseB8ue170006Ev, symObjAddr: 0x8EE0, symBinAddr: 0x10000A458, symSize: 0x24 }
  - { offsetInCU: 0x3AEAE, offset: 0x3AEAE, size: 0x8, addend: 0x0, symName: __ZNSt3__119__to_address_helperINS_16reverse_iteratorINS1_IPN8nlohmann16json_abi_v3_11_310basic_jsonINS_3mapENS_6vectorENS_12basic_stringIcNS_11char_traitsIcEENS_9allocatorIcEEEEbxydSA_NS3_14adl_serializerENS6_IhNSA_IhEEEEvEEEEEEvE6__callB8ue170006ERKSJ_, symObjAddr: 0x8F4C, symBinAddr: 0x10000A4C4, symSize: 0x38 }
  - { offsetInCU: 0x3AED1, offset: 0x3AED1, size: 0x8, addend: 0x0, symName: __ZNKSt3__116reverse_iteratorINS0_IPN8nlohmann16json_abi_v3_11_310basic_jsonINS_3mapENS_6vectorENS_12basic_stringIcNS_11char_traitsIcEENS_9allocatorIcEEEEbxydS9_NS2_14adl_serializerENS5_IhNS9_IhEEEEvEEEEEptB8ue170006Ev, symObjAddr: 0x8F84, symBinAddr: 0x10000A4FC, symSize: 0x4C }
  - { offsetInCU: 0x3AEF7, offset: 0x3AEF7, size: 0x8, addend: 0x0, symName: __ZNSt3__116reverse_iteratorIPN8nlohmann16json_abi_v3_11_310basic_jsonINS_3mapENS_6vectorENS_12basic_stringIcNS_11char_traitsIcEENS_9allocatorIcEEEEbxydS9_NS2_14adl_serializerENS5_IhNS9_IhEEEEvEEEpLB8ue170006El, symObjAddr: 0x9080, symBinAddr: 0x10000A5F8, symSize: 0x30 }
  - { offsetInCU: 0x3AF2B, offset: 0x3AF2B, size: 0x8, addend: 0x0, symName: __ZNSt3__116reverse_iteratorIPN8nlohmann16json_abi_v3_11_310basic_jsonINS_3mapENS_6vectorENS_12basic_stringIcNS_11char_traitsIcEENS_9allocatorIcEEEEbxydS9_NS2_14adl_serializerENS5_IhNS9_IhEEEEvEEEmmB8ue170006Ev, symObjAddr: 0x90B0, symBinAddr: 0x10000A628, symSize: 0x20 }
  - { offsetInCU: 0x3AF51, offset: 0x3AF51, size: 0x8, addend: 0x0, symName: __ZNSt3__116reverse_iteratorINS0_IPN8nlohmann16json_abi_v3_11_310basic_jsonINS_3mapENS_6vectorENS_12basic_stringIcNS_11char_traitsIcEENS_9allocatorIcEEEEbxydS9_NS2_14adl_serializerENS5_IhNS9_IhEEEEvEEEEEC2B8ue170006ESH_, symObjAddr: 0x90D0, symBinAddr: 0x10000A648, symSize: 0x2C }
  - { offsetInCU: 0x3AF89, offset: 0x3AF89, size: 0x8, addend: 0x0, symName: __ZNSt3__116reverse_iteratorIPN8nlohmann16json_abi_v3_11_310basic_jsonINS_3mapENS_6vectorENS_12basic_stringIcNS_11char_traitsIcEENS_9allocatorIcEEEEbxydS9_NS2_14adl_serializerENS5_IhNS9_IhEEEEvEEEC2B8ue170006ESG_, symObjAddr: 0x90FC, symBinAddr: 0x10000A674, symSize: 0x28 }
  - { offsetInCU: 0x3AFC1, offset: 0x3AFC1, size: 0x8, addend: 0x0, symName: __ZNSt3__117__compressed_pairIPN8nlohmann16json_abi_v3_11_310basic_jsonINS_3mapENS_6vectorENS_12basic_stringIcNS_11char_traitsIcEENS_9allocatorIcEEEEbxydS9_NS2_14adl_serializerENS5_IhNS9_IhEEEEvEENS9_ISF_EEE5firstB8ue170006Ev, symObjAddr: 0x9124, symBinAddr: 0x10000A69C, symSize: 0x24 }
  - { offsetInCU: 0x3AFE7, offset: 0x3AFE7, size: 0x8, addend: 0x0, symName: __ZNSt3__114__split_bufferIN8nlohmann16json_abi_v3_11_310basic_jsonINS_3mapENS_6vectorENS_12basic_stringIcNS_11char_traitsIcEENS_9allocatorIcEEEEbxydS9_NS2_14adl_serializerENS5_IhNS9_IhEEEEvEERNS9_ISF_EEED2Ev, symObjAddr: 0x9148, symBinAddr: 0x10000A6C0, symSize: 0x8C }
  - { offsetInCU: 0x3B013, offset: 0x3B013, size: 0x8, addend: 0x0, symName: __ZNSt3__114__split_bufferIN8nlohmann16json_abi_v3_11_310basic_jsonINS_3mapENS_6vectorENS_12basic_stringIcNS_11char_traitsIcEENS_9allocatorIcEEEEbxydS9_NS2_14adl_serializerENS5_IhNS9_IhEEEEvEERNS9_ISF_EEE5clearB8ue170006Ev, symObjAddr: 0x91D4, symBinAddr: 0x10000A74C, symSize: 0x28 }
  - { offsetInCU: 0x3B039, offset: 0x3B039, size: 0x8, addend: 0x0, symName: __ZNSt3__116allocator_traitsINS_9allocatorIN8nlohmann16json_abi_v3_11_310basic_jsonINS_3mapENS_6vectorENS_12basic_stringIcNS_11char_traitsIcEENS1_IcEEEEbxydS1_NS3_14adl_serializerENS6_IhNS1_IhEEEEvEEEEE10deallocateB8ue170006ERSG_PSF_m, symObjAddr: 0x91FC, symBinAddr: 0x10000A774, symSize: 0x34 }
  - { offsetInCU: 0x3B07B, offset: 0x3B07B, size: 0x8, addend: 0x0, symName: __ZNKSt3__114__split_bufferIN8nlohmann16json_abi_v3_11_310basic_jsonINS_3mapENS_6vectorENS_12basic_stringIcNS_11char_traitsIcEENS_9allocatorIcEEEEbxydS9_NS2_14adl_serializerENS5_IhNS9_IhEEEEvEERNS9_ISF_EEE8capacityB8ue170006Ev, symObjAddr: 0x9230, symBinAddr: 0x10000A7A8, symSize: 0x40 }
  - { offsetInCU: 0x3B0A1, offset: 0x3B0A1, size: 0x8, addend: 0x0, symName: __ZNSt3__114__split_bufferIN8nlohmann16json_abi_v3_11_310basic_jsonINS_3mapENS_6vectorENS_12basic_stringIcNS_11char_traitsIcEENS_9allocatorIcEEEEbxydS9_NS2_14adl_serializerENS5_IhNS9_IhEEEEvEERNS9_ISF_EEE17__destruct_at_endB8ue170006EPSF_, symObjAddr: 0x9270, symBinAddr: 0x10000A7E8, symSize: 0x2C }
  - { offsetInCU: 0x3B0D5, offset: 0x3B0D5, size: 0x8, addend: 0x0, symName: __ZNSt3__114__split_bufferIN8nlohmann16json_abi_v3_11_310basic_jsonINS_3mapENS_6vectorENS_12basic_stringIcNS_11char_traitsIcEENS_9allocatorIcEEEEbxydS9_NS2_14adl_serializerENS5_IhNS9_IhEEEEvEERNS9_ISF_EEE17__destruct_at_endB8ue170006EPSF_NS_17integral_constantIbLb0EEE, symObjAddr: 0x929C, symBinAddr: 0x10000A814, symSize: 0x80 }
  - { offsetInCU: 0x3B116, offset: 0x3B116, size: 0x8, addend: 0x0, symName: __ZNSt3__19allocatorIN8nlohmann16json_abi_v3_11_310basic_jsonINS_3mapENS_6vectorENS_12basic_stringIcNS_11char_traitsIcEENS0_IcEEEEbxydS0_NS2_14adl_serializerENS5_IhNS0_IhEEEEvEEE10deallocateB8ue170006EPSE_m, symObjAddr: 0x931C, symBinAddr: 0x10000A894, symSize: 0x40 }
  - { offsetInCU: 0x3B158, offset: 0x3B158, size: 0x8, addend: 0x0, symName: __ZNKSt3__114__split_bufferIN8nlohmann16json_abi_v3_11_310basic_jsonINS_3mapENS_6vectorENS_12basic_stringIcNS_11char_traitsIcEENS_9allocatorIcEEEEbxydS9_NS2_14adl_serializerENS5_IhNS9_IhEEEEvEERNS9_ISF_EEE9__end_capB8ue170006Ev, symObjAddr: 0x935C, symBinAddr: 0x10000A8D4, symSize: 0x28 }
  - { offsetInCU: 0x3B17E, offset: 0x3B17E, size: 0x8, addend: 0x0, symName: __ZNKSt3__117__compressed_pairIPN8nlohmann16json_abi_v3_11_310basic_jsonINS_3mapENS_6vectorENS_12basic_stringIcNS_11char_traitsIcEENS_9allocatorIcEEEEbxydS9_NS2_14adl_serializerENS5_IhNS9_IhEEEEvEERNS9_ISF_EEE5firstB8ue170006Ev, symObjAddr: 0x9384, symBinAddr: 0x10000A8FC, symSize: 0x24 }
  - { offsetInCU: 0x3B1CC, offset: 0x3B1CC, size: 0x8, addend: 0x0, symName: __ZNKSt3__111__move_loopINS_17_ClassicAlgPolicyEEclB8ue170006IPN8nlohmann16json_abi_v3_11_310basic_jsonINS_3mapENS_6vectorENS_12basic_stringIcNS_11char_traitsIcEENS_9allocatorIcEEEEbxydSC_NS5_14adl_serializerENS8_IhNSC_IhEEEEvEESJ_NS_20back_insert_iteratorINS8_ISI_NSC_ISI_EEEEEEEENS_4pairIT_T1_EESP_T0_SQ_, symObjAddr: 0x9594, symBinAddr: 0x10000AB0C, symSize: 0x98 }
  - { offsetInCU: 0x3B254, offset: 0x3B254, size: 0x8, addend: 0x0, symName: __ZNSt3__119__unwrap_range_implINS_11__wrap_iterIPN8nlohmann16json_abi_v3_11_310basic_jsonINS_3mapENS_6vectorENS_12basic_stringIcNS_11char_traitsIcEENS_9allocatorIcEEEEbxydSA_NS3_14adl_serializerENS6_IhNSA_IhEEEEvEEEESI_E8__unwrapB8ue170006ESI_SI_, symObjAddr: 0x9728, symBinAddr: 0x10000ACA0, symSize: 0x68 }
  - { offsetInCU: 0x3B28B, offset: 0x3B28B, size: 0x8, addend: 0x0, symName: __ZNSt3__14pairIPN8nlohmann16json_abi_v3_11_310basic_jsonINS_3mapENS_6vectorENS_12basic_stringIcNS_11char_traitsIcEENS_9allocatorIcEEEEbxydS9_NS2_14adl_serializerENS5_IhNS9_IhEEEEvEESG_EC1B8ue170006ISG_SG_LPv0EEEOT_OT0_, symObjAddr: 0x97BC, symBinAddr: 0x10000AD34, symSize: 0x3C }
  - { offsetInCU: 0x3B2E9, offset: 0x3B2E9, size: 0x8, addend: 0x0, symName: __ZNSt3__118__unwrap_iter_implINS_11__wrap_iterIPN8nlohmann16json_abi_v3_11_310basic_jsonINS_3mapENS_6vectorENS_12basic_stringIcNS_11char_traitsIcEENS_9allocatorIcEEEEbxydSA_NS3_14adl_serializerENS6_IhNSA_IhEEEEvEEEELb1EE8__unwrapB8ue170006ESI_, symObjAddr: 0x97F8, symBinAddr: 0x10000AD70, symSize: 0x28 }
  - { offsetInCU: 0x3B318, offset: 0x3B318, size: 0x8, addend: 0x0, symName: __ZNSt3__119__to_address_helperINS_11__wrap_iterIPN8nlohmann16json_abi_v3_11_310basic_jsonINS_3mapENS_6vectorENS_12basic_stringIcNS_11char_traitsIcEENS_9allocatorIcEEEEbxydSA_NS3_14adl_serializerENS6_IhNSA_IhEEEEvEEEEvE6__callB8ue170006ERKSI_, symObjAddr: 0x9844, symBinAddr: 0x10000ADBC, symSize: 0x30 }
  - { offsetInCU: 0x3B33B, offset: 0x3B33B, size: 0x8, addend: 0x0, symName: __ZNSt3__114pointer_traitsINS_11__wrap_iterIPN8nlohmann16json_abi_v3_11_310basic_jsonINS_3mapENS_6vectorENS_12basic_stringIcNS_11char_traitsIcEENS_9allocatorIcEEEEbxydSA_NS3_14adl_serializerENS6_IhNSA_IhEEEEvEEEEE10to_addressB8ue170006ESI_, symObjAddr: 0x9874, symBinAddr: 0x10000ADEC, symSize: 0x2C }
  - { offsetInCU: 0x3B35E, offset: 0x3B35E, size: 0x8, addend: 0x0, symName: __ZNKSt3__111__wrap_iterIPN8nlohmann16json_abi_v3_11_310basic_jsonINS_3mapENS_6vectorENS_12basic_stringIcNS_11char_traitsIcEENS_9allocatorIcEEEEbxydS9_NS2_14adl_serializerENS5_IhNS9_IhEEEEvEEE4baseB8ue170006Ev, symObjAddr: 0x98A0, symBinAddr: 0x10000AE18, symSize: 0x18 }
  - { offsetInCU: 0x3B384, offset: 0x3B384, size: 0x8, addend: 0x0, symName: __ZNSt3__14pairIPN8nlohmann16json_abi_v3_11_310basic_jsonINS_3mapENS_6vectorENS_12basic_stringIcNS_11char_traitsIcEENS_9allocatorIcEEEEbxydS9_NS2_14adl_serializerENS5_IhNS9_IhEEEEvEESG_EC2B8ue170006ISG_SG_LPv0EEEOT_OT0_, symObjAddr: 0x98B8, symBinAddr: 0x10000AE30, symSize: 0x34 }
  - { offsetInCU: 0x3B3E2, offset: 0x3B3E2, size: 0x8, addend: 0x0, symName: __ZNSt3__18_IterOpsINS_17_ClassicAlgPolicyEE11__iter_moveB8ue170006IRPN8nlohmann16json_abi_v3_11_310basic_jsonINS_3mapENS_6vectorENS_12basic_stringIcNS_11char_traitsIcEENS_9allocatorIcEEEEbxydSC_NS5_14adl_serializerENS8_IhNSC_IhEEEEvEEEENS_9enable_ifIXsr12is_referenceIDTdeclsr3stdE7declvalIRT_EEEEE5valueEDTclsr3stdE4movedeclsr3stdE7declvalISN_EEEEE4typeEOSM_, symObjAddr: 0x98EC, symBinAddr: 0x10000AE64, symSize: 0x28 }
  - { offsetInCU: 0x3B40E, offset: 0x3B40E, size: 0x8, addend: 0x0, symName: __ZNSt3__120back_insert_iteratorINS_6vectorIN8nlohmann16json_abi_v3_11_310basic_jsonINS_3mapES1_NS_12basic_stringIcNS_11char_traitsIcEENS_9allocatorIcEEEEbxydS9_NS3_14adl_serializerENS1_IhNS9_IhEEEEvEENS9_ISF_EEEEEdeB8ue170006Ev, symObjAddr: 0x9914, symBinAddr: 0x10000AE8C, symSize: 0x14 }
  - { offsetInCU: 0x3B434, offset: 0x3B434, size: 0x8, addend: 0x0, symName: __ZNSt3__120back_insert_iteratorINS_6vectorIN8nlohmann16json_abi_v3_11_310basic_jsonINS_3mapES1_NS_12basic_stringIcNS_11char_traitsIcEENS_9allocatorIcEEEEbxydS9_NS3_14adl_serializerENS1_IhNS9_IhEEEEvEENS9_ISF_EEEEEaSB8ue170006EOSF_, symObjAddr: 0x9928, symBinAddr: 0x10000AEA0, symSize: 0x38 }
  - { offsetInCU: 0x3B468, offset: 0x3B468, size: 0x8, addend: 0x0, symName: __ZNSt3__120back_insert_iteratorINS_6vectorIN8nlohmann16json_abi_v3_11_310basic_jsonINS_3mapES1_NS_12basic_stringIcNS_11char_traitsIcEENS_9allocatorIcEEEEbxydS9_NS3_14adl_serializerENS1_IhNS9_IhEEEEvEENS9_ISF_EEEEEppB8ue170006Ev, symObjAddr: 0x9960, symBinAddr: 0x10000AED8, symSize: 0x14 }
  - { offsetInCU: 0x3B48E, offset: 0x3B48E, size: 0x8, addend: 0x0, symName: __ZNSt3__18_IterOpsINS_17_ClassicAlgPolicyEE25__validate_iter_referenceB8ue170006IRPN8nlohmann16json_abi_v3_11_310basic_jsonINS_3mapENS_6vectorENS_12basic_stringIcNS_11char_traitsIcEENS_9allocatorIcEEEEbxydSC_NS5_14adl_serializerENS8_IhNSC_IhEEEEvEEEEvv, symObjAddr: 0x99AC, symBinAddr: 0x10000AF24, symSize: 0x4 }
  - { offsetInCU: 0x3B4B2, offset: 0x3B4B2, size: 0x8, addend: 0x0, symName: __ZNSt3__14pairIPN8nlohmann16json_abi_v3_11_310basic_jsonINS_3mapENS_6vectorENS_12basic_stringIcNS_11char_traitsIcEENS_9allocatorIcEEEEbxydS9_NS2_14adl_serializerENS5_IhNS9_IhEEEEvEENS_20back_insert_iteratorINS5_ISF_NS9_ISF_EEEEEEEC1B8ue170006ISG_SK_LPv0EEEOT_OT0_, symObjAddr: 0x99B0, symBinAddr: 0x10000AF28, symSize: 0x3C }
  - { offsetInCU: 0x3B510, offset: 0x3B510, size: 0x8, addend: 0x0, symName: __ZNSt3__14pairIPN8nlohmann16json_abi_v3_11_310basic_jsonINS_3mapENS_6vectorENS_12basic_stringIcNS_11char_traitsIcEENS_9allocatorIcEEEEbxydS9_NS2_14adl_serializerENS5_IhNS9_IhEEEEvEENS_20back_insert_iteratorINS5_ISF_NS9_ISF_EEEEEEEC2B8ue170006ISG_SK_LPv0EEEOT_OT0_, symObjAddr: 0x99EC, symBinAddr: 0x10000AF64, symSize: 0x34 }
  - { offsetInCU: 0x3B56E, offset: 0x3B56E, size: 0x8, addend: 0x0, symName: __ZNSt3__118__unwrap_iter_implINS_20back_insert_iteratorINS_6vectorIN8nlohmann16json_abi_v3_11_310basic_jsonINS_3mapES2_NS_12basic_stringIcNS_11char_traitsIcEENS_9allocatorIcEEEEbxydSA_NS4_14adl_serializerENS2_IhNSA_IhEEEEvEENSA_ISG_EEEEEELb0EE8__unwrapB8ue170006ESJ_, symObjAddr: 0x9A20, symBinAddr: 0x10000AF98, symSize: 0x1C }
  - { offsetInCU: 0x3B5B4, offset: 0x3B5B4, size: 0x8, addend: 0x0, symName: __ZNSt3__14pairINS_11__wrap_iterIPN8nlohmann16json_abi_v3_11_310basic_jsonINS_3mapENS_6vectorENS_12basic_stringIcNS_11char_traitsIcEENS_9allocatorIcEEEEbxydSA_NS3_14adl_serializerENS6_IhNSA_IhEEEEvEEEENS_20back_insert_iteratorINS6_ISG_NSA_ISG_EEEEEEEC1B8ue170006ISI_SM_LPv0EEEOT_OT0_, symObjAddr: 0x9A3C, symBinAddr: 0x10000AFB4, symSize: 0x3C }
  - { offsetInCU: 0x3B612, offset: 0x3B612, size: 0x8, addend: 0x0, symName: __ZNSt3__14pairINS_11__wrap_iterIPN8nlohmann16json_abi_v3_11_310basic_jsonINS_3mapENS_6vectorENS_12basic_stringIcNS_11char_traitsIcEENS_9allocatorIcEEEEbxydSA_NS3_14adl_serializerENS6_IhNSA_IhEEEEvEEEENS_20back_insert_iteratorINS6_ISG_NSA_ISG_EEEEEEEC2B8ue170006ISI_SM_LPv0EEEOT_OT0_, symObjAddr: 0x9A78, symBinAddr: 0x10000AFF0, symSize: 0x34 }
  - { offsetInCU: 0x3B670, offset: 0x3B670, size: 0x8, addend: 0x0, symName: __ZNSt3__119__unwrap_range_implINS_11__wrap_iterIPN8nlohmann16json_abi_v3_11_310basic_jsonINS_3mapENS_6vectorENS_12basic_stringIcNS_11char_traitsIcEENS_9allocatorIcEEEEbxydSA_NS3_14adl_serializerENS6_IhNSA_IhEEEEvEEEESI_E8__rewrapB8ue170006ESI_SH_, symObjAddr: 0x9AAC, symBinAddr: 0x10000B024, symSize: 0x3C }
  - { offsetInCU: 0x3B6A1, offset: 0x3B6A1, size: 0x8, addend: 0x0, symName: __ZNSt3__118__unwrap_iter_implINS_11__wrap_iterIPN8nlohmann16json_abi_v3_11_310basic_jsonINS_3mapENS_6vectorENS_12basic_stringIcNS_11char_traitsIcEENS_9allocatorIcEEEEbxydSA_NS3_14adl_serializerENS6_IhNSA_IhEEEEvEEEELb1EE8__rewrapB8ue170006ESI_SH_, symObjAddr: 0x9B34, symBinAddr: 0x10000B0AC, symSize: 0x5C }
  - { offsetInCU: 0x3B6D2, offset: 0x3B6D2, size: 0x8, addend: 0x0, symName: __ZNKSt3__111__wrap_iterIPN8nlohmann16json_abi_v3_11_310basic_jsonINS_3mapENS_6vectorENS_12basic_stringIcNS_11char_traitsIcEENS_9allocatorIcEEEEbxydS9_NS2_14adl_serializerENS5_IhNS9_IhEEEEvEEEplB8ue170006El, symObjAddr: 0x9B90, symBinAddr: 0x10000B108, symSize: 0x3C }
  - { offsetInCU: 0x3B714, offset: 0x3B714, size: 0x8, addend: 0x0, symName: __ZNSt3__111__wrap_iterIPN8nlohmann16json_abi_v3_11_310basic_jsonINS_3mapENS_6vectorENS_12basic_stringIcNS_11char_traitsIcEENS_9allocatorIcEEEEbxydS9_NS2_14adl_serializerENS5_IhNS9_IhEEEEvEEEpLB8ue170006El, symObjAddr: 0x9BCC, symBinAddr: 0x10000B144, symSize: 0x28 }
  - { offsetInCU: 0x3B748, offset: 0x3B748, size: 0x8, addend: 0x0, symName: __ZNSt3__118__unwrap_iter_implINS_20back_insert_iteratorINS_6vectorIN8nlohmann16json_abi_v3_11_310basic_jsonINS_3mapES2_NS_12basic_stringIcNS_11char_traitsIcEENS_9allocatorIcEEEEbxydSA_NS4_14adl_serializerENS2_IhNSA_IhEEEEvEENSA_ISG_EEEEEELb0EE8__rewrapB8ue170006ESJ_SJ_, symObjAddr: 0x9BF4, symBinAddr: 0x10000B16C, symSize: 0x20 }
  - { offsetInCU: 0x3B776, offset: 0x3B776, size: 0x8, addend: 0x0, symName: __ZNSt3__16vectorIN8nlohmann16json_abi_v3_11_310basic_jsonINS_3mapES0_NS_12basic_stringIcNS_11char_traitsIcEENS_9allocatorIcEEEEbxydS8_NS2_14adl_serializerENS0_IhNS8_IhEEEEvEENS8_ISE_EEE11__make_iterB8ue170006EPSE_, symObjAddr: 0x9C14, symBinAddr: 0x10000B18C, symSize: 0x30 }
  - { offsetInCU: 0x3B7AB, offset: 0x3B7AB, size: 0x8, addend: 0x0, symName: __ZNSt3__111__wrap_iterIPN8nlohmann16json_abi_v3_11_310basic_jsonINS_3mapENS_6vectorENS_12basic_stringIcNS_11char_traitsIcEENS_9allocatorIcEEEEbxydS9_NS2_14adl_serializerENS5_IhNS9_IhEEEEvEEEC1B8ue170006ESG_, symObjAddr: 0x9C44, symBinAddr: 0x10000B1BC, symSize: 0x34 }
  - { offsetInCU: 0x3B7E3, offset: 0x3B7E3, size: 0x8, addend: 0x0, symName: __ZNSt3__111__wrap_iterIPN8nlohmann16json_abi_v3_11_310basic_jsonINS_3mapENS_6vectorENS_12basic_stringIcNS_11char_traitsIcEENS_9allocatorIcEEEEbxydS9_NS2_14adl_serializerENS5_IhNS9_IhEEEEvEEEC2B8ue170006ESG_, symObjAddr: 0x9C78, symBinAddr: 0x10000B1F0, symSize: 0x20 }
  - { offsetInCU: 0x3B81B, offset: 0x3B81B, size: 0x8, addend: 0x0, symName: __ZNSt3__120back_insert_iteratorINS_6vectorIN8nlohmann16json_abi_v3_11_310basic_jsonINS_3mapES1_NS_12basic_stringIcNS_11char_traitsIcEENS_9allocatorIcEEEEbxydS9_NS3_14adl_serializerENS1_IhNS9_IhEEEEvEENS9_ISF_EEEEEC1B8ue170006ERSH_, symObjAddr: 0x9C98, symBinAddr: 0x10000B210, symSize: 0x34 }
  - { offsetInCU: 0x3B853, offset: 0x3B853, size: 0x8, addend: 0x0, symName: __ZNSt3__120back_insert_iteratorINS_6vectorIN8nlohmann16json_abi_v3_11_310basic_jsonINS_3mapES1_NS_12basic_stringIcNS_11char_traitsIcEENS_9allocatorIcEEEEbxydS9_NS3_14adl_serializerENS1_IhNS9_IhEEEEvEENS9_ISF_EEEEEC2B8ue170006ERSH_, symObjAddr: 0x9CCC, symBinAddr: 0x10000B244, symSize: 0x20 }
  - { offsetInCU: 0x3B88B, offset: 0x3B88B, size: 0x8, addend: 0x0, symName: __ZNKSt3__16__treeINS_12__value_typeINS_12basic_stringIcNS_11char_traitsIcEENS_9allocatorIcEEEEN8nlohmann16json_abi_v3_11_310basic_jsonINS_3mapENS_6vectorES7_bxydS5_NS9_14adl_serializerENSC_IhNS5_IhEEEEvEEEENS_19__map_value_compareIS7_SH_NS_4lessIvEELb1EEENS5_ISH_EEE4sizeB8ue170006Ev, symObjAddr: 0x9CEC, symBinAddr: 0x10000B264, symSize: 0x28 }
  - { offsetInCU: 0x3B8B1, offset: 0x3B8B1, size: 0x8, addend: 0x0, symName: __ZNKSt3__117__compressed_pairImNS_19__map_value_compareINS_12basic_stringIcNS_11char_traitsIcEENS_9allocatorIcEEEENS_12__value_typeIS7_N8nlohmann16json_abi_v3_11_310basic_jsonINS_3mapENS_6vectorES7_bxydS5_NSA_14adl_serializerENSD_IhNS5_IhEEEEvEEEENS_4lessIvEELb1EEEE5firstB8ue170006Ev, symObjAddr: 0x9D14, symBinAddr: 0x10000B28C, symSize: 0x24 }
  - { offsetInCU: 0x3B8D7, offset: 0x3B8D7, size: 0x8, addend: 0x0, symName: __ZNSt3__16__treeINS_12__value_typeINS_12basic_stringIcNS_11char_traitsIcEENS_9allocatorIcEEEEN8nlohmann16json_abi_v3_11_310basic_jsonINS_3mapENS_6vectorES7_bxydS5_NS9_14adl_serializerENSC_IhNS5_IhEEEEvEEEENS_19__map_value_compareIS7_SH_NS_4lessIvEELb1EEENS5_ISH_EEE5beginB8ue170006Ev, symObjAddr: 0x9D38, symBinAddr: 0x10000B2B0, symSize: 0x34 }
  - { offsetInCU: 0x3B8FD, offset: 0x3B8FD, size: 0x8, addend: 0x0, symName: __ZNSt3__114__map_iteratorINS_15__tree_iteratorINS_12__value_typeINS_12basic_stringIcNS_11char_traitsIcEENS_9allocatorIcEEEEN8nlohmann16json_abi_v3_11_310basic_jsonINS_3mapENS_6vectorES8_bxydS6_NSA_14adl_serializerENSD_IhNS6_IhEEEEvEEEEPNS_11__tree_nodeISI_PvEElEEEC1B8ue170006ESN_, symObjAddr: 0x9D6C, symBinAddr: 0x10000B2E4, symSize: 0x34 }
  - { offsetInCU: 0x3B936, offset: 0x3B936, size: 0x8, addend: 0x0, symName: __ZNSt3__16__treeINS_12__value_typeINS_12basic_stringIcNS_11char_traitsIcEENS_9allocatorIcEEEEN8nlohmann16json_abi_v3_11_310basic_jsonINS_3mapENS_6vectorES7_bxydS5_NS9_14adl_serializerENSC_IhNS5_IhEEEEvEEEENS_19__map_value_compareIS7_SH_NS_4lessIvEELb1EEENS5_ISH_EEE12__begin_nodeB8ue170006Ev, symObjAddr: 0x9DA0, symBinAddr: 0x10000B318, symSize: 0x14 }
  - { offsetInCU: 0x3B95C, offset: 0x3B95C, size: 0x8, addend: 0x0, symName: __ZNSt3__115__tree_iteratorINS_12__value_typeINS_12basic_stringIcNS_11char_traitsIcEENS_9allocatorIcEEEEN8nlohmann16json_abi_v3_11_310basic_jsonINS_3mapENS_6vectorES7_bxydS5_NS9_14adl_serializerENSC_IhNS5_IhEEEEvEEEEPNS_11__tree_nodeISH_PvEElEC1B8ue170006EPNS_15__tree_end_nodeIPNS_16__tree_node_baseISJ_EEEE, symObjAddr: 0x9DB4, symBinAddr: 0x10000B32C, symSize: 0x34 }
  - { offsetInCU: 0x3B995, offset: 0x3B995, size: 0x8, addend: 0x0, symName: __ZNSt3__115__tree_iteratorINS_12__value_typeINS_12basic_stringIcNS_11char_traitsIcEENS_9allocatorIcEEEEN8nlohmann16json_abi_v3_11_310basic_jsonINS_3mapENS_6vectorES7_bxydS5_NS9_14adl_serializerENSC_IhNS5_IhEEEEvEEEEPNS_11__tree_nodeISH_PvEElEC2B8ue170006EPNS_15__tree_end_nodeIPNS_16__tree_node_baseISJ_EEEE, symObjAddr: 0x9DE8, symBinAddr: 0x10000B360, symSize: 0x20 }
  - { offsetInCU: 0x3B9CE, offset: 0x3B9CE, size: 0x8, addend: 0x0, symName: __ZNSt3__114__map_iteratorINS_15__tree_iteratorINS_12__value_typeINS_12basic_stringIcNS_11char_traitsIcEENS_9allocatorIcEEEEN8nlohmann16json_abi_v3_11_310basic_jsonINS_3mapENS_6vectorES8_bxydS6_NSA_14adl_serializerENSD_IhNS6_IhEEEEvEEEEPNS_11__tree_nodeISI_PvEElEEEC2B8ue170006ESN_, symObjAddr: 0x9E08, symBinAddr: 0x10000B380, symSize: 0x20 }
  - { offsetInCU: 0x3BA07, offset: 0x3BA07, size: 0x8, addend: 0x0, symName: __ZNSt3__16__treeINS_12__value_typeINS_12basic_stringIcNS_11char_traitsIcEENS_9allocatorIcEEEEN8nlohmann16json_abi_v3_11_310basic_jsonINS_3mapENS_6vectorES7_bxydS5_NS9_14adl_serializerENSC_IhNS5_IhEEEEvEEEENS_19__map_value_compareIS7_SH_NS_4lessIvEELb1EEENS5_ISH_EEE3endB8ue170006Ev, symObjAddr: 0x9E28, symBinAddr: 0x10000B3A0, symSize: 0x34 }
  - { offsetInCU: 0x3BA2D, offset: 0x3BA2D, size: 0x8, addend: 0x0, symName: __ZNSt3__16__treeINS_12__value_typeINS_12basic_stringIcNS_11char_traitsIcEENS_9allocatorIcEEEEN8nlohmann16json_abi_v3_11_310basic_jsonINS_3mapENS_6vectorES7_bxydS5_NS9_14adl_serializerENSC_IhNS5_IhEEEEvEEEENS_19__map_value_compareIS7_SH_NS_4lessIvEELb1EEENS5_ISH_EEE10__end_nodeB8ue170006Ev, symObjAddr: 0x9E5C, symBinAddr: 0x10000B3D4, symSize: 0x2C }
  - { offsetInCU: 0x3BA53, offset: 0x3BA53, size: 0x8, addend: 0x0, symName: __ZNSt3__114pointer_traitsIPNS_15__tree_end_nodeIPNS_16__tree_node_baseIPvEEEEE10pointer_toB8ue170006ERS6_, symObjAddr: 0x9E88, symBinAddr: 0x10000B400, symSize: 0x14 }
  - { offsetInCU: 0x3BA76, offset: 0x3BA76, size: 0x8, addend: 0x0, symName: __ZNSt3__117__compressed_pairINS_15__tree_end_nodeIPNS_16__tree_node_baseIPvEEEENS_9allocatorINS_11__tree_nodeINS_12__value_typeINS_12basic_stringIcNS_11char_traitsIcEENS7_IcEEEEN8nlohmann16json_abi_v3_11_310basic_jsonINS_3mapENS_6vectorESE_bxydS7_NSG_14adl_serializerENSJ_IhNS7_IhEEEEvEEEES3_EEEEE5firstB8ue170006Ev, symObjAddr: 0x9E9C, symBinAddr: 0x10000B414, symSize: 0x24 }
  - { offsetInCU: 0x3BA9C, offset: 0x3BA9C, size: 0x8, addend: 0x0, symName: __ZNSt3__122__compressed_pair_elemINS_15__tree_end_nodeIPNS_16__tree_node_baseIPvEEEELi0ELb0EE5__getB8ue170006Ev, symObjAddr: 0x9EC0, symBinAddr: 0x10000B438, symSize: 0x14 }
  - { offsetInCU: 0x3BAC2, offset: 0x3BAC2, size: 0x8, addend: 0x0, symName: __ZNKSt3__115__tree_iteratorINS_12__value_typeINS_12basic_stringIcNS_11char_traitsIcEENS_9allocatorIcEEEEN8nlohmann16json_abi_v3_11_310basic_jsonINS_3mapENS_6vectorES7_bxydS5_NS9_14adl_serializerENSC_IhNS5_IhEEEEvEEEEPNS_11__tree_nodeISH_PvEElEptB8ue170006Ev, symObjAddr: 0x9F38, symBinAddr: 0x10000B4B0, symSize: 0x2C }
  - { offsetInCU: 0x3BAE8, offset: 0x3BAE8, size: 0x8, addend: 0x0, symName: __ZNSt3__112__value_typeINS_12basic_stringIcNS_11char_traitsIcEENS_9allocatorIcEEEEN8nlohmann16json_abi_v3_11_310basic_jsonINS_3mapENS_6vectorES6_bxydS4_NS8_14adl_serializerENSB_IhNS4_IhEEEEvEEE11__get_valueB8ue170006Ev, symObjAddr: 0x9F64, symBinAddr: 0x10000B4DC, symSize: 0x24 }
  - { offsetInCU: 0x3BB0E, offset: 0x3BB0E, size: 0x8, addend: 0x0, symName: __ZNSt3__114pointer_traitsIPNS_12__value_typeINS_12basic_stringIcNS_11char_traitsIcEENS_9allocatorIcEEEEN8nlohmann16json_abi_v3_11_310basic_jsonINS_3mapENS_6vectorES7_bxydS5_NS9_14adl_serializerENSC_IhNS5_IhEEEEvEEEEE10pointer_toB8ue170006ERSH_, symObjAddr: 0x9F88, symBinAddr: 0x10000B500, symSize: 0x14 }
  - { offsetInCU: 0x3BB31, offset: 0x3BB31, size: 0x8, addend: 0x0, symName: __ZNKSt3__115__tree_iteratorINS_12__value_typeINS_12basic_stringIcNS_11char_traitsIcEENS_9allocatorIcEEEEN8nlohmann16json_abi_v3_11_310basic_jsonINS_3mapENS_6vectorES7_bxydS5_NS9_14adl_serializerENSC_IhNS5_IhEEEEvEEEEPNS_11__tree_nodeISH_PvEElE8__get_npB8ue170006Ev, symObjAddr: 0x9F9C, symBinAddr: 0x10000B514, symSize: 0x18 }
  - { offsetInCU: 0x3BB57, offset: 0x3BB57, size: 0x8, addend: 0x0, symName: __ZNSt3__16vectorIN8nlohmann16json_abi_v3_11_310basic_jsonINS_3mapES0_NS_12basic_stringIcNS_11char_traitsIcEENS_9allocatorIcEEEEbxydS8_NS2_14adl_serializerENS0_IhNS8_IhEEEEvEENS8_ISE_EEE22__construct_one_at_endB8ue170006IJSE_EEEvDpOT_, symObjAddr: 0x9FEC, symBinAddr: 0x10000B564, symSize: 0x90 }
  - { offsetInCU: 0x3BBA6, offset: 0x3BBA6, size: 0x8, addend: 0x0, symName: __ZNSt3__16vectorIN8nlohmann16json_abi_v3_11_310basic_jsonINS_3mapES0_NS_12basic_stringIcNS_11char_traitsIcEENS_9allocatorIcEEEEbxydS8_NS2_14adl_serializerENS0_IhNS8_IhEEEEvEENS8_ISE_EEE21__push_back_slow_pathISE_EEvOT_, symObjAddr: 0xA07C, symBinAddr: 0x10000B5F4, symSize: 0xD8 }
  - { offsetInCU: 0x3BC20, offset: 0x3BC20, size: 0x8, addend: 0x0, symName: __ZNSt3__16vectorIN8nlohmann16json_abi_v3_11_310basic_jsonINS_3mapES0_NS_12basic_stringIcNS_11char_traitsIcEENS_9allocatorIcEEEEbxydS8_NS2_14adl_serializerENS0_IhNS8_IhEEEEvEENS8_ISE_EEE21_ConstructTransactionC1B8ue170006ERSG_m, symObjAddr: 0xA154, symBinAddr: 0x10000B6CC, symSize: 0x3C }
  - { offsetInCU: 0x3BC68, offset: 0x3BC68, size: 0x8, addend: 0x0, symName: __ZNSt3__16vectorIN8nlohmann16json_abi_v3_11_310basic_jsonINS_3mapES0_NS_12basic_stringIcNS_11char_traitsIcEENS_9allocatorIcEEEEbxydS8_NS2_14adl_serializerENS0_IhNS8_IhEEEEvEENS8_ISE_EEE21_ConstructTransactionD1B8ue170006Ev, symObjAddr: 0xA190, symBinAddr: 0x10000B708, symSize: 0x2C }
  - { offsetInCU: 0x3BC92, offset: 0x3BC92, size: 0x8, addend: 0x0, symName: __ZNSt3__16vectorIN8nlohmann16json_abi_v3_11_310basic_jsonINS_3mapES0_NS_12basic_stringIcNS_11char_traitsIcEENS_9allocatorIcEEEEbxydS8_NS2_14adl_serializerENS0_IhNS8_IhEEEEvEENS8_ISE_EEE21_ConstructTransactionC2B8ue170006ERSG_m, symObjAddr: 0xA1BC, symBinAddr: 0x10000B734, symSize: 0x44 }
  - { offsetInCU: 0x3BCDA, offset: 0x3BCDA, size: 0x8, addend: 0x0, symName: __ZNSt3__16vectorIN8nlohmann16json_abi_v3_11_310basic_jsonINS_3mapES0_NS_12basic_stringIcNS_11char_traitsIcEENS_9allocatorIcEEEEbxydS8_NS2_14adl_serializerENS0_IhNS8_IhEEEEvEENS8_ISE_EEE21_ConstructTransactionD2B8ue170006Ev, symObjAddr: 0xA200, symBinAddr: 0x10000B778, symSize: 0x20 }
  - { offsetInCU: 0x3BD04, offset: 0x3BD04, size: 0x8, addend: 0x0, symName: __ZNKSt3__16vectorIN8nlohmann16json_abi_v3_11_310basic_jsonINS_3mapES0_NS_12basic_stringIcNS_11char_traitsIcEENS_9allocatorIcEEEEbxydS8_NS2_14adl_serializerENS0_IhNS8_IhEEEEvEENS8_ISE_EEE11__recommendB8ue170006Em, symObjAddr: 0xA220, symBinAddr: 0x10000B798, symSize: 0xB4 }
  - { offsetInCU: 0x3BD59, offset: 0x3BD59, size: 0x8, addend: 0x0, symName: __ZNSt3__115__tree_iteratorINS_12__value_typeINS_12basic_stringIcNS_11char_traitsIcEENS_9allocatorIcEEEEN8nlohmann16json_abi_v3_11_310basic_jsonINS_3mapENS_6vectorES7_bxydS5_NS9_14adl_serializerENSC_IhNS5_IhEEEEvEEEEPNS_11__tree_nodeISH_PvEElEppB8ue170006Ev, symObjAddr: 0xA354, symBinAddr: 0x10000B8CC, symSize: 0x38 }
  - { offsetInCU: 0x3BD7F, offset: 0x3BD7F, size: 0x8, addend: 0x0, symName: __ZNKSt3__116__tree_node_baseIPvE15__parent_unsafeB8ue170006Ev, symObjAddr: 0xA488, symBinAddr: 0x10000BA00, symSize: 0x18 }
  - { offsetInCU: 0x3BDA5, offset: 0x3BDA5, size: 0x8, addend: 0x0, symName: __ZN8nlohmann16json_abi_v3_11_310basic_jsonINSt3__13mapENS2_6vectorENS2_12basic_stringIcNS2_11char_traitsIcEENS2_9allocatorIcEEEEbxydS8_NS0_14adl_serializerENS4_IhNS8_IhEEEEvEC2EOSE_, symObjAddr: 0xA4A0, symBinAddr: 0x10000BA18, symSize: 0x80 }
  - { offsetInCU: 0x3BDDE, offset: 0x3BDDE, size: 0x8, addend: 0x0, symName: __ZN8nlohmann16json_abi_v3_11_310basic_jsonINSt3__13mapENS2_6vectorENS2_12basic_stringIcNS2_11char_traitsIcEENS2_9allocatorIcEEEEbxydS8_NS0_14adl_serializerENS4_IhNS8_IhEEEEvE11set_parentsEv, symObjAddr: 0xA520, symBinAddr: 0x10000BA98, symSize: 0x10 }
  - { offsetInCU: 0x3BE04, offset: 0x3BE04, size: 0x8, addend: 0x0, symName: __ZNSt3__16vectorIN8nlohmann16json_abi_v3_11_310basic_jsonINS_3mapES0_NS_12basic_stringIcNS_11char_traitsIcEENS_9allocatorIcEEEEbxydS8_NS2_14adl_serializerENS0_IhNS8_IhEEEEvEENS8_ISE_EEE17__destruct_at_endB8ue170006EPSE_, symObjAddr: 0xA530, symBinAddr: 0x10000BAA8, symSize: 0x4C }
  - { offsetInCU: 0x3BE48, offset: 0x3BE48, size: 0x8, addend: 0x0, symName: __ZNSt3__16vectorIN8nlohmann16json_abi_v3_11_310basic_jsonINS_3mapES0_NS_12basic_stringIcNS_11char_traitsIcEENS_9allocatorIcEEEEbxydS8_NS2_14adl_serializerENS0_IhNS8_IhEEEEvEENS8_ISE_EEE22__base_destruct_at_endB8ue170006EPSE_, symObjAddr: 0xA57C, symBinAddr: 0x10000BAF4, symSize: 0x8C }
  - { offsetInCU: 0x3BE8C, offset: 0x3BE8C, size: 0x8, addend: 0x0, symName: __ZNKSt3__16vectorIN8nlohmann16json_abi_v3_11_310basic_jsonINS_3mapES0_NS_12basic_stringIcNS_11char_traitsIcEENS_9allocatorIcEEEEbxydS8_NS2_14adl_serializerENS0_IhNS8_IhEEEEvEENS8_ISE_EEE17__annotate_shrinkB8ue170006Em, symObjAddr: 0xA608, symBinAddr: 0x10000BB80, symSize: 0xB4 }
  - { offsetInCU: 0x3BEC1, offset: 0x3BEC1, size: 0x8, addend: 0x0, symName: __ZNSt3__16vectorIN8nlohmann16json_abi_v3_11_310basic_jsonINS_3mapES0_NS_12basic_stringIcNS_11char_traitsIcEENS_9allocatorIcEEEEbxydS8_NS2_14adl_serializerENS0_IhNS8_IhEEEEvEENS8_ISE_EEE7__clearB8ue170006Ev, symObjAddr: 0xA6BC, symBinAddr: 0x10000BC34, symSize: 0x28 }
  - { offsetInCU: 0x3BEE7, offset: 0x3BEE7, size: 0x8, addend: 0x0, symName: __ZNSt3__16__treeINS_12__value_typeINS_12basic_stringIcNS_11char_traitsIcEENS_9allocatorIcEEEEN8nlohmann16json_abi_v3_11_310basic_jsonINS_3mapENS_6vectorES7_bxydS5_NS9_14adl_serializerENSC_IhNS5_IhEEEEvEEEENS_19__map_value_compareIS7_SH_NS_4lessIvEELb1EEENS5_ISH_EEE5clearEv, symObjAddr: 0xA6E4, symBinAddr: 0x10000BC5C, symSize: 0x74 }
  - { offsetInCU: 0x3BF0F, offset: 0x3BF0F, size: 0x8, addend: 0x0, symName: __ZNSt3__16__treeINS_12__value_typeINS_12basic_stringIcNS_11char_traitsIcEENS_9allocatorIcEEEEN8nlohmann16json_abi_v3_11_310basic_jsonINS_3mapENS_6vectorES7_bxydS5_NS9_14adl_serializerENSC_IhNS5_IhEEEEvEEEENS_19__map_value_compareIS7_SH_NS_4lessIvEELb1EEENS5_ISH_EEE7destroyEPNS_11__tree_nodeISH_PvEE, symObjAddr: 0xA758, symBinAddr: 0x10000BCD0, symSize: 0xAC }
  - { offsetInCU: 0x3BF5C, offset: 0x3BF5C, size: 0x8, addend: 0x0, symName: __ZNKSt3__16__treeINS_12__value_typeINS_12basic_stringIcNS_11char_traitsIcEENS_9allocatorIcEEEEN8nlohmann16json_abi_v3_11_310basic_jsonINS_3mapENS_6vectorES7_bxydS5_NS9_14adl_serializerENSC_IhNS5_IhEEEEvEEEENS_19__map_value_compareIS7_SH_NS_4lessIvEELb1EEENS5_ISH_EEE6__rootB8ue170006Ev, symObjAddr: 0xA804, symBinAddr: 0x10000BD7C, symSize: 0x28 }
  - { offsetInCU: 0x3BF82, offset: 0x3BF82, size: 0x8, addend: 0x0, symName: __ZNSt3__16__treeINS_12__value_typeINS_12basic_stringIcNS_11char_traitsIcEENS_9allocatorIcEEEEN8nlohmann16json_abi_v3_11_310basic_jsonINS_3mapENS_6vectorES7_bxydS5_NS9_14adl_serializerENSC_IhNS5_IhEEEEvEEEENS_19__map_value_compareIS7_SH_NS_4lessIvEELb1EEENS5_ISH_EEE4sizeB8ue170006Ev, symObjAddr: 0xA82C, symBinAddr: 0x10000BDA4, symSize: 0x28 }
  - { offsetInCU: 0x3BFA8, offset: 0x3BFA8, size: 0x8, addend: 0x0, symName: __ZNSt3__16__treeINS_12__value_typeINS_12basic_stringIcNS_11char_traitsIcEENS_9allocatorIcEEEEN8nlohmann16json_abi_v3_11_310basic_jsonINS_3mapENS_6vectorES7_bxydS5_NS9_14adl_serializerENSC_IhNS5_IhEEEEvEEEENS_19__map_value_compareIS7_SH_NS_4lessIvEELb1EEENS5_ISH_EEE12__node_allocB8ue170006Ev, symObjAddr: 0xA854, symBinAddr: 0x10000BDCC, symSize: 0x28 }
  - { offsetInCU: 0x3BFCE, offset: 0x3BFCE, size: 0x8, addend: 0x0, symName: __ZNSt3__116allocator_traitsINS_9allocatorINS_11__tree_nodeINS_12__value_typeINS_12basic_stringIcNS_11char_traitsIcEENS1_IcEEEEN8nlohmann16json_abi_v3_11_310basic_jsonINS_3mapENS_6vectorES8_bxydS1_NSA_14adl_serializerENSD_IhNS1_IhEEEEvEEEEPvEEEEE7destroyB8ue170006INS_4pairIKS8_SH_EEvvEEvRSL_PT_, symObjAddr: 0xA87C, symBinAddr: 0x10000BDF4, symSize: 0x28 }
  - { offsetInCU: 0x3C008, offset: 0x3C008, size: 0x8, addend: 0x0, symName: __ZNSt3__122__tree_key_value_typesINS_12__value_typeINS_12basic_stringIcNS_11char_traitsIcEENS_9allocatorIcEEEEN8nlohmann16json_abi_v3_11_310basic_jsonINS_3mapENS_6vectorES7_bxydS5_NS9_14adl_serializerENSC_IhNS5_IhEEEEvEEEEE9__get_ptrB8ue170006ERSH_, symObjAddr: 0xA8A4, symBinAddr: 0x10000BE1C, symSize: 0x24 }
  - { offsetInCU: 0x3C02C, offset: 0x3C02C, size: 0x8, addend: 0x0, symName: __ZNSt3__116allocator_traitsINS_9allocatorINS_11__tree_nodeINS_12__value_typeINS_12basic_stringIcNS_11char_traitsIcEENS1_IcEEEEN8nlohmann16json_abi_v3_11_310basic_jsonINS_3mapENS_6vectorES8_bxydS1_NSA_14adl_serializerENSD_IhNS1_IhEEEEvEEEEPvEEEEE10deallocateB8ue170006ERSL_PSK_m, symObjAddr: 0xA8C8, symBinAddr: 0x10000BE40, symSize: 0x34 }
  - { offsetInCU: 0x3C06E, offset: 0x3C06E, size: 0x8, addend: 0x0, symName: __ZNSt3__117__compressed_pairINS_15__tree_end_nodeIPNS_16__tree_node_baseIPvEEEENS_9allocatorINS_11__tree_nodeINS_12__value_typeINS_12basic_stringIcNS_11char_traitsIcEENS7_IcEEEEN8nlohmann16json_abi_v3_11_310basic_jsonINS_3mapENS_6vectorESE_bxydS7_NSG_14adl_serializerENSJ_IhNS7_IhEEEEvEEEES3_EEEEE6secondB8ue170006Ev, symObjAddr: 0xA8FC, symBinAddr: 0x10000BE74, symSize: 0x24 }
  - { offsetInCU: 0x3C094, offset: 0x3C094, size: 0x8, addend: 0x0, symName: __ZNSt3__122__compressed_pair_elemINS_9allocatorINS_11__tree_nodeINS_12__value_typeINS_12basic_stringIcNS_11char_traitsIcEENS1_IcEEEEN8nlohmann16json_abi_v3_11_310basic_jsonINS_3mapENS_6vectorES8_bxydS1_NSA_14adl_serializerENSD_IhNS1_IhEEEEvEEEEPvEEEELi1ELb1EE5__getB8ue170006Ev, symObjAddr: 0xA920, symBinAddr: 0x10000BE98, symSize: 0x14 }
  - { offsetInCU: 0x3C0BA, offset: 0x3C0BA, size: 0x8, addend: 0x0, symName: __ZNSt3__14pairIKNS_12basic_stringIcNS_11char_traitsIcEENS_9allocatorIcEEEEN8nlohmann16json_abi_v3_11_310basic_jsonINS_3mapENS_6vectorES6_bxydS4_NS9_14adl_serializerENSC_IhNS4_IhEEEEvEEED1Ev, symObjAddr: 0xA97C, symBinAddr: 0x10000BEF4, symSize: 0x2C }
  - { offsetInCU: 0x3C0E6, offset: 0x3C0E6, size: 0x8, addend: 0x0, symName: __ZNSt3__14pairIKNS_12basic_stringIcNS_11char_traitsIcEENS_9allocatorIcEEEEN8nlohmann16json_abi_v3_11_310basic_jsonINS_3mapENS_6vectorES6_bxydS4_NS9_14adl_serializerENSC_IhNS4_IhEEEEvEEED2Ev, symObjAddr: 0xA9A8, symBinAddr: 0x10000BF20, symSize: 0x38 }
  - { offsetInCU: 0x3C112, offset: 0x3C112, size: 0x8, addend: 0x0, symName: __ZNSt3__19allocatorINS_11__tree_nodeINS_12__value_typeINS_12basic_stringIcNS_11char_traitsIcEENS0_IcEEEEN8nlohmann16json_abi_v3_11_310basic_jsonINS_3mapENS_6vectorES7_bxydS0_NS9_14adl_serializerENSC_IhNS0_IhEEEEvEEEEPvEEE10deallocateB8ue170006EPSJ_m, symObjAddr: 0xA9E0, symBinAddr: 0x10000BF58, symSize: 0x44 }
  - { offsetInCU: 0x3C154, offset: 0x3C154, size: 0x8, addend: 0x0, symName: __ZNKSt3__16__treeINS_12__value_typeINS_12basic_stringIcNS_11char_traitsIcEENS_9allocatorIcEEEEN8nlohmann16json_abi_v3_11_310basic_jsonINS_3mapENS_6vectorES7_bxydS5_NS9_14adl_serializerENSC_IhNS5_IhEEEEvEEEENS_19__map_value_compareIS7_SH_NS_4lessIvEELb1EEENS5_ISH_EEE10__end_nodeB8ue170006Ev, symObjAddr: 0xAA24, symBinAddr: 0x10000BF9C, symSize: 0x2C }
  - { offsetInCU: 0x3C17A, offset: 0x3C17A, size: 0x8, addend: 0x0, symName: __ZNKSt3__117__compressed_pairINS_15__tree_end_nodeIPNS_16__tree_node_baseIPvEEEENS_9allocatorINS_11__tree_nodeINS_12__value_typeINS_12basic_stringIcNS_11char_traitsIcEENS7_IcEEEEN8nlohmann16json_abi_v3_11_310basic_jsonINS_3mapENS_6vectorESE_bxydS7_NSG_14adl_serializerENSJ_IhNS7_IhEEEEvEEEES3_EEEEE5firstB8ue170006Ev, symObjAddr: 0xAA50, symBinAddr: 0x10000BFC8, symSize: 0x24 }
  - { offsetInCU: 0x3C1A0, offset: 0x3C1A0, size: 0x8, addend: 0x0, symName: __ZNKSt3__122__compressed_pair_elemINS_15__tree_end_nodeIPNS_16__tree_node_baseIPvEEEELi0ELb0EE5__getB8ue170006Ev, symObjAddr: 0xAA74, symBinAddr: 0x10000BFEC, symSize: 0x14 }
  - { offsetInCU: 0x3C1C6, offset: 0x3C1C6, size: 0x8, addend: 0x0, symName: __ZNSt3__117__compressed_pairImNS_19__map_value_compareINS_12basic_stringIcNS_11char_traitsIcEENS_9allocatorIcEEEENS_12__value_typeIS7_N8nlohmann16json_abi_v3_11_310basic_jsonINS_3mapENS_6vectorES7_bxydS5_NSA_14adl_serializerENSD_IhNS5_IhEEEEvEEEENS_4lessIvEELb1EEEE5firstB8ue170006Ev, symObjAddr: 0xAA88, symBinAddr: 0x10000C000, symSize: 0x24 }
  - { offsetInCU: 0x3C1EC, offset: 0x3C1EC, size: 0x8, addend: 0x0, symName: __ZNSt3__16vectorIN8nlohmann16json_abi_v3_11_310basic_jsonINS_3mapES0_NS_12basic_stringIcNS_11char_traitsIcEENS_9allocatorIcEEEEbxydS8_NS2_14adl_serializerENS0_IhNS8_IhEEEEvEENS8_ISE_EEED2B8ue170006Ev, symObjAddr: 0xAAAC, symBinAddr: 0x10000C024, symSize: 0x44 }
  - { offsetInCU: 0x3C216, offset: 0x3C216, size: 0x8, addend: 0x0, symName: __ZNSt3__16vectorIN8nlohmann16json_abi_v3_11_310basic_jsonINS_3mapES0_NS_12basic_stringIcNS_11char_traitsIcEENS_9allocatorIcEEEEbxydS8_NS2_14adl_serializerENS0_IhNS8_IhEEEEvEENS8_ISE_EEE16__destroy_vectorC1B8ue170006ERSG_, symObjAddr: 0xAAF0, symBinAddr: 0x10000C068, symSize: 0x34 }
  - { offsetInCU: 0x3C24F, offset: 0x3C24F, size: 0x8, addend: 0x0, symName: __ZNSt3__16vectorIN8nlohmann16json_abi_v3_11_310basic_jsonINS_3mapES0_NS_12basic_stringIcNS_11char_traitsIcEENS_9allocatorIcEEEEbxydS8_NS2_14adl_serializerENS0_IhNS8_IhEEEEvEENS8_ISE_EEE16__destroy_vectorclB8ue170006Ev, symObjAddr: 0xAB24, symBinAddr: 0x10000C09C, symSize: 0x90 }
  - { offsetInCU: 0x3C275, offset: 0x3C275, size: 0x8, addend: 0x0, symName: __ZNSt3__16vectorIN8nlohmann16json_abi_v3_11_310basic_jsonINS_3mapES0_NS_12basic_stringIcNS_11char_traitsIcEENS_9allocatorIcEEEEbxydS8_NS2_14adl_serializerENS0_IhNS8_IhEEEEvEENS8_ISE_EEE16__destroy_vectorC2B8ue170006ERSG_, symObjAddr: 0xABB4, symBinAddr: 0x10000C12C, symSize: 0x20 }
  - { offsetInCU: 0x3C2AE, offset: 0x3C2AE, size: 0x8, addend: 0x0, symName: __ZNSt3__19allocatorINS_3mapINS_12basic_stringIcNS_11char_traitsIcEENS0_IcEEEEN8nlohmann16json_abi_v3_11_310basic_jsonIS1_NS_6vectorES6_bxydS0_NS8_14adl_serializerENSA_IhNS0_IhEEEEvEENS_4lessIvEENS0_INS_4pairIKS6_SE_EEEEEEEC2B8ue170006Ev, symObjAddr: 0xABD4, symBinAddr: 0x10000C14C, symSize: 0x2C }
  - { offsetInCU: 0x3C2D8, offset: 0x3C2D8, size: 0x8, addend: 0x0, symName: __ZNSt3__116__non_trivial_ifILb1ENS_9allocatorINS_3mapINS_12basic_stringIcNS_11char_traitsIcEENS1_IcEEEEN8nlohmann16json_abi_v3_11_310basic_jsonIS2_NS_6vectorES7_bxydS1_NS9_14adl_serializerENSB_IhNS1_IhEEEEvEENS_4lessIvEENS1_INS_4pairIKS7_SF_EEEEEEEEEC2B8ue170006Ev, symObjAddr: 0xAC00, symBinAddr: 0x10000C178, symSize: 0x14 }
  - { offsetInCU: 0x3C302, offset: 0x3C302, size: 0x8, addend: 0x0, symName: __ZNSt3__13mapINS_12basic_stringIcNS_11char_traitsIcEENS_9allocatorIcEEEEN8nlohmann16json_abi_v3_11_310basic_jsonIS0_NS_6vectorES6_bxydS4_NS8_14adl_serializerENSA_IhNS4_IhEEEEvEENS_4lessIvEENS4_INS_4pairIKS6_SE_EEEEED1B8ue170006Ev, symObjAddr: 0xAC5C, symBinAddr: 0x10000C1D4, symSize: 0x2C }
  - { offsetInCU: 0x3C32C, offset: 0x3C32C, size: 0x8, addend: 0x0, symName: __ZNSt3__13mapINS_12basic_stringIcNS_11char_traitsIcEENS_9allocatorIcEEEEN8nlohmann16json_abi_v3_11_310basic_jsonIS0_NS_6vectorES6_bxydS4_NS8_14adl_serializerENSA_IhNS4_IhEEEEvEENS_4lessIvEENS4_INS_4pairIKS6_SE_EEEEED2B8ue170006Ev, symObjAddr: 0xAC88, symBinAddr: 0x10000C200, symSize: 0x2C }
  - { offsetInCU: 0x3C356, offset: 0x3C356, size: 0x8, addend: 0x0, symName: __ZNSt3__16__treeINS_12__value_typeINS_12basic_stringIcNS_11char_traitsIcEENS_9allocatorIcEEEEN8nlohmann16json_abi_v3_11_310basic_jsonINS_3mapENS_6vectorES7_bxydS5_NS9_14adl_serializerENSC_IhNS5_IhEEEEvEEEENS_19__map_value_compareIS7_SH_NS_4lessIvEELb1EEENS5_ISH_EEED1Ev, symObjAddr: 0xACB4, symBinAddr: 0x10000C22C, symSize: 0x2C }
  - { offsetInCU: 0x3C382, offset: 0x3C382, size: 0x8, addend: 0x0, symName: __ZNSt3__16__treeINS_12__value_typeINS_12basic_stringIcNS_11char_traitsIcEENS_9allocatorIcEEEEN8nlohmann16json_abi_v3_11_310basic_jsonINS_3mapENS_6vectorES7_bxydS5_NS9_14adl_serializerENSC_IhNS5_IhEEEEvEEEENS_19__map_value_compareIS7_SH_NS_4lessIvEELb1EEENS5_ISH_EEED2Ev, symObjAddr: 0xACE0, symBinAddr: 0x10000C258, symSize: 0x38 }
  - { offsetInCU: 0x3C3AE, offset: 0x3C3AE, size: 0x8, addend: 0x0, symName: __ZNSt3__19allocatorINS_3mapINS_12basic_stringIcNS_11char_traitsIcEENS0_IcEEEEN8nlohmann16json_abi_v3_11_310basic_jsonIS1_NS_6vectorES6_bxydS0_NS8_14adl_serializerENSA_IhNS0_IhEEEEvEENS_4lessIvEENS0_INS_4pairIKS6_SE_EEEEEEE10deallocateB8ue170006EPSL_m, symObjAddr: 0xAD18, symBinAddr: 0x10000C290, symSize: 0x44 }
  - { offsetInCU: 0x3C3F0, offset: 0x3C3F0, size: 0x8, addend: 0x0, symName: __ZNSt3__19allocatorINS_6vectorIN8nlohmann16json_abi_v3_11_310basic_jsonINS_3mapES1_NS_12basic_stringIcNS_11char_traitsIcEENS0_IcEEEEbxydS0_NS3_14adl_serializerENS1_IhNS0_IhEEEEvEENS0_ISE_EEEEEC2B8ue170006Ev, symObjAddr: 0xAD5C, symBinAddr: 0x10000C2D4, symSize: 0x2C }
  - { offsetInCU: 0x3C41A, offset: 0x3C41A, size: 0x8, addend: 0x0, symName: __ZNSt3__116__non_trivial_ifILb1ENS_9allocatorINS_6vectorIN8nlohmann16json_abi_v3_11_310basic_jsonINS_3mapES2_NS_12basic_stringIcNS_11char_traitsIcEENS1_IcEEEEbxydS1_NS4_14adl_serializerENS2_IhNS1_IhEEEEvEENS1_ISF_EEEEEEEC2B8ue170006Ev, symObjAddr: 0xAD88, symBinAddr: 0x10000C300, symSize: 0x14 }
  - { offsetInCU: 0x3C444, offset: 0x3C444, size: 0x8, addend: 0x0, symName: __ZNSt3__19allocatorINS_6vectorIN8nlohmann16json_abi_v3_11_310basic_jsonINS_3mapES1_NS_12basic_stringIcNS_11char_traitsIcEENS0_IcEEEEbxydS0_NS3_14adl_serializerENS1_IhNS0_IhEEEEvEENS0_ISE_EEEEE10deallocateB8ue170006EPSG_m, symObjAddr: 0xADE4, symBinAddr: 0x10000C35C, symSize: 0x44 }
  - { offsetInCU: 0x3C486, offset: 0x3C486, size: 0x8, addend: 0x0, symName: __ZNSt3__19allocatorINS_12basic_stringIcNS_11char_traitsIcEENS0_IcEEEEEC2B8ue170006Ev, symObjAddr: 0xAE28, symBinAddr: 0x10000C3A0, symSize: 0x2C }
  - { offsetInCU: 0x3C4B0, offset: 0x3C4B0, size: 0x8, addend: 0x0, symName: __ZNSt3__116__non_trivial_ifILb1ENS_9allocatorINS_12basic_stringIcNS_11char_traitsIcEENS1_IcEEEEEEEC2B8ue170006Ev, symObjAddr: 0xAE54, symBinAddr: 0x10000C3CC, symSize: 0x14 }
  - { offsetInCU: 0x3C4DA, offset: 0x3C4DA, size: 0x8, addend: 0x0, symName: __ZNSt3__19allocatorINS_12basic_stringIcNS_11char_traitsIcEENS0_IcEEEEE10deallocateB8ue170006EPS5_m, symObjAddr: 0xAE68, symBinAddr: 0x10000C3E0, symSize: 0x44 }
  - { offsetInCU: 0x3C51C, offset: 0x3C51C, size: 0x8, addend: 0x0, symName: __ZNSt3__19allocatorIN8nlohmann16json_abi_v3_11_327byte_container_with_subtypeINS_6vectorIhNS0_IhEEEEEEEC2B8ue170006Ev, symObjAddr: 0xAEAC, symBinAddr: 0x10000C424, symSize: 0x2C }
  - { offsetInCU: 0x3C546, offset: 0x3C546, size: 0x8, addend: 0x0, symName: __ZNSt3__116__non_trivial_ifILb1ENS_9allocatorIN8nlohmann16json_abi_v3_11_327byte_container_with_subtypeINS_6vectorIhNS1_IhEEEEEEEEEC2B8ue170006Ev, symObjAddr: 0xAED8, symBinAddr: 0x10000C450, symSize: 0x14 }
  - { offsetInCU: 0x3C570, offset: 0x3C570, size: 0x8, addend: 0x0, symName: __ZN8nlohmann16json_abi_v3_11_327byte_container_with_subtypeINSt3__16vectorIhNS2_9allocatorIhEEEEED1Ev, symObjAddr: 0xAF34, symBinAddr: 0x10000C4AC, symSize: 0x2C }
  - { offsetInCU: 0x3C59D, offset: 0x3C59D, size: 0x8, addend: 0x0, symName: __ZN8nlohmann16json_abi_v3_11_327byte_container_with_subtypeINSt3__16vectorIhNS2_9allocatorIhEEEEED2Ev, symObjAddr: 0xAF60, symBinAddr: 0x10000C4D8, symSize: 0x2C }
  - { offsetInCU: 0x3C5CA, offset: 0x3C5CA, size: 0x8, addend: 0x0, symName: __ZNSt3__16vectorIhNS_9allocatorIhEEED2B8ue170006Ev, symObjAddr: 0xAF8C, symBinAddr: 0x10000C504, symSize: 0x44 }
  - { offsetInCU: 0x3C5F4, offset: 0x3C5F4, size: 0x8, addend: 0x0, symName: __ZNSt3__16vectorIhNS_9allocatorIhEEE16__destroy_vectorC1B8ue170006ERS3_, symObjAddr: 0xAFD0, symBinAddr: 0x10000C548, symSize: 0x34 }
  - { offsetInCU: 0x3C62D, offset: 0x3C62D, size: 0x8, addend: 0x0, symName: __ZNSt3__16vectorIhNS_9allocatorIhEEE16__destroy_vectorclB8ue170006Ev, symObjAddr: 0xB004, symBinAddr: 0x10000C57C, symSize: 0x90 }
  - { offsetInCU: 0x3C653, offset: 0x3C653, size: 0x8, addend: 0x0, symName: __ZNSt3__16vectorIhNS_9allocatorIhEEE16__destroy_vectorC2B8ue170006ERS3_, symObjAddr: 0xB094, symBinAddr: 0x10000C60C, symSize: 0x20 }
  - { offsetInCU: 0x3C68C, offset: 0x3C68C, size: 0x8, addend: 0x0, symName: __ZNSt3__16vectorIhNS_9allocatorIhEEE7__clearB8ue170006Ev, symObjAddr: 0xB0B4, symBinAddr: 0x10000C62C, symSize: 0x28 }
  - { offsetInCU: 0x3C6B2, offset: 0x3C6B2, size: 0x8, addend: 0x0, symName: __ZNKSt3__16vectorIhNS_9allocatorIhEEE17__annotate_deleteB8ue170006Ev, symObjAddr: 0xB0DC, symBinAddr: 0x10000C654, symSize: 0xB8 }
  - { offsetInCU: 0x3C6D8, offset: 0x3C6D8, size: 0x8, addend: 0x0, symName: __ZNSt3__116allocator_traitsINS_9allocatorIhEEE10deallocateB8ue170006ERS2_Phm, symObjAddr: 0xB194, symBinAddr: 0x10000C70C, symSize: 0x34 }
  - { offsetInCU: 0x3C71A, offset: 0x3C71A, size: 0x8, addend: 0x0, symName: __ZNSt3__16vectorIhNS_9allocatorIhEEE7__allocB8ue170006Ev, symObjAddr: 0xB1C8, symBinAddr: 0x10000C740, symSize: 0x28 }
  - { offsetInCU: 0x3C740, offset: 0x3C740, size: 0x8, addend: 0x0, symName: __ZNKSt3__16vectorIhNS_9allocatorIhEEE8capacityB8ue170006Ev, symObjAddr: 0xB1F0, symBinAddr: 0x10000C768, symSize: 0x38 }
  - { offsetInCU: 0x3C766, offset: 0x3C766, size: 0x8, addend: 0x0, symName: __ZNSt3__16vectorIhNS_9allocatorIhEEE22__base_destruct_at_endB8ue170006EPh, symObjAddr: 0xB228, symBinAddr: 0x10000C7A0, symSize: 0x8C }
  - { offsetInCU: 0x3C7AA, offset: 0x3C7AA, size: 0x8, addend: 0x0, symName: __ZNSt3__116allocator_traitsINS_9allocatorIhEEE7destroyB8ue170006IhvvEEvRS2_PT_, symObjAddr: 0xB2B4, symBinAddr: 0x10000C82C, symSize: 0x28 }
  - { offsetInCU: 0x3C7E4, offset: 0x3C7E4, size: 0x8, addend: 0x0, symName: __ZNKSt3__16vectorIhNS_9allocatorIhEEE31__annotate_contiguous_containerB8ue170006EPKvS5_S5_S5_, symObjAddr: 0xB324, symBinAddr: 0x10000C89C, symSize: 0x20 }
  - { offsetInCU: 0x3C836, offset: 0x3C836, size: 0x8, addend: 0x0, symName: __ZNKSt3__16vectorIhNS_9allocatorIhEEE4dataB8ue170006Ev, symObjAddr: 0xB344, symBinAddr: 0x10000C8BC, symSize: 0x28 }
  - { offsetInCU: 0x3C85C, offset: 0x3C85C, size: 0x8, addend: 0x0, symName: __ZNKSt3__16vectorIhNS_9allocatorIhEEE4sizeB8ue170006Ev, symObjAddr: 0xB36C, symBinAddr: 0x10000C8E4, symSize: 0x20 }
  - { offsetInCU: 0x3C882, offset: 0x3C882, size: 0x8, addend: 0x0, symName: __ZNSt3__19allocatorIhE10deallocateB8ue170006EPhm, symObjAddr: 0xB38C, symBinAddr: 0x10000C904, symSize: 0x40 }
  - { offsetInCU: 0x3C8C4, offset: 0x3C8C4, size: 0x8, addend: 0x0, symName: __ZNSt3__117__compressed_pairIPhNS_9allocatorIhEEE6secondB8ue170006Ev, symObjAddr: 0xB3CC, symBinAddr: 0x10000C944, symSize: 0x24 }
  - { offsetInCU: 0x3C8EA, offset: 0x3C8EA, size: 0x8, addend: 0x0, symName: __ZNSt3__122__compressed_pair_elemINS_9allocatorIhEELi1ELb1EE5__getB8ue170006Ev, symObjAddr: 0xB3F0, symBinAddr: 0x10000C968, symSize: 0x14 }
  - { offsetInCU: 0x3C910, offset: 0x3C910, size: 0x8, addend: 0x0, symName: __ZNKSt3__16vectorIhNS_9allocatorIhEEE9__end_capB8ue170006Ev, symObjAddr: 0xB404, symBinAddr: 0x10000C97C, symSize: 0x28 }
  - { offsetInCU: 0x3C936, offset: 0x3C936, size: 0x8, addend: 0x0, symName: __ZNKSt3__117__compressed_pairIPhNS_9allocatorIhEEE5firstB8ue170006Ev, symObjAddr: 0xB42C, symBinAddr: 0x10000C9A4, symSize: 0x24 }
  - { offsetInCU: 0x3C95C, offset: 0x3C95C, size: 0x8, addend: 0x0, symName: __ZNKSt3__122__compressed_pair_elemIPhLi0ELb0EE5__getB8ue170006Ev, symObjAddr: 0xB450, symBinAddr: 0x10000C9C8, symSize: 0x14 }
  - { offsetInCU: 0x3C982, offset: 0x3C982, size: 0x8, addend: 0x0, symName: __ZNSt3__19allocatorIN8nlohmann16json_abi_v3_11_327byte_container_with_subtypeINS_6vectorIhNS0_IhEEEEEEE10deallocateB8ue170006EPS7_m, symObjAddr: 0xB464, symBinAddr: 0x10000C9DC, symSize: 0x44 }
  - { offsetInCU: 0x3C9C4, offset: 0x3C9C4, size: 0x8, addend: 0x0, symName: __ZNSt3__14listINS0_I11TransactionNS_9allocatorIS1_EEEENS2_IS4_EEEC2B8ue170006Ev, symObjAddr: 0xB4A8, symBinAddr: 0x10000CA20, symSize: 0x2C }
  - { offsetInCU: 0x3C9EE, offset: 0x3C9EE, size: 0x8, addend: 0x0, symName: __ZNSt3__110__list_impINS_4listI11TransactionNS_9allocatorIS2_EEEENS3_IS5_EEEC2Ev, symObjAddr: 0xB4D4, symBinAddr: 0x10000CA4C, symSize: 0x50 }
  - { offsetInCU: 0x3CA1A, offset: 0x3CA1A, size: 0x8, addend: 0x0, symName: __ZNSt3__116__list_node_baseINS_4listI11TransactionNS_9allocatorIS2_EEEEPvEC1B8ue170006Ev, symObjAddr: 0xB524, symBinAddr: 0x10000CA9C, symSize: 0x2C }
  - { offsetInCU: 0x3CA44, offset: 0x3CA44, size: 0x8, addend: 0x0, symName: __ZNSt3__117__compressed_pairImNS_9allocatorINS_11__list_nodeINS_4listI11TransactionNS1_IS4_EEEEPvEEEEEC1B8ue170006IiNS_18__default_init_tagEEEOT_OT0_, symObjAddr: 0xB550, symBinAddr: 0x10000CAC8, symSize: 0x3C }
  - { offsetInCU: 0x3CA9C, offset: 0x3CA9C, size: 0x8, addend: 0x0, symName: __ZNSt3__116__list_node_baseINS_4listI11TransactionNS_9allocatorIS2_EEEEPvEC2B8ue170006Ev, symObjAddr: 0xB58C, symBinAddr: 0x10000CB04, symSize: 0x4C }
  - { offsetInCU: 0x3CAC6, offset: 0x3CAC6, size: 0x8, addend: 0x0, symName: __ZNSt3__117__compressed_pairImNS_9allocatorINS_11__list_nodeINS_4listI11TransactionNS1_IS4_EEEEPvEEEEEC2B8ue170006IiNS_18__default_init_tagEEEOT_OT0_, symObjAddr: 0xB5D8, symBinAddr: 0x10000CB50, symSize: 0x40 }
  - { offsetInCU: 0x3CB1E, offset: 0x3CB1E, size: 0x8, addend: 0x0, symName: __ZNSt3__122__compressed_pair_elemImLi0ELb0EEC2B8ue170006IivEEOT_, symObjAddr: 0xB618, symBinAddr: 0x10000CB90, symSize: 0x24 }
  - { offsetInCU: 0x3CB60, offset: 0x3CB60, size: 0x8, addend: 0x0, symName: __ZNSt3__122__compressed_pair_elemINS_9allocatorINS_11__list_nodeINS_4listI11TransactionNS1_IS4_EEEEPvEEEELi1ELb1EEC2B8ue170006ENS_18__default_init_tagE, symObjAddr: 0xB63C, symBinAddr: 0x10000CBB4, symSize: 0x2C }
  - { offsetInCU: 0x3CB95, offset: 0x3CB95, size: 0x8, addend: 0x0, symName: __ZNSt3__19allocatorINS_11__list_nodeINS_4listI11TransactionNS0_IS3_EEEEPvEEEC2B8ue170006Ev, symObjAddr: 0xB668, symBinAddr: 0x10000CBE0, symSize: 0x2C }
  - { offsetInCU: 0x3CBBF, offset: 0x3CBBF, size: 0x8, addend: 0x0, symName: __ZNSt3__116__non_trivial_ifILb1ENS_9allocatorINS_11__list_nodeINS_4listI11TransactionNS1_IS4_EEEEPvEEEEEC2B8ue170006Ev, symObjAddr: 0xB694, symBinAddr: 0x10000CC0C, symSize: 0x14 }
  - { offsetInCU: 0x3CBE9, offset: 0x3CBE9, size: 0x8, addend: 0x0, symName: __ZNSt3__110__list_impI11TransactionNS_9allocatorIS1_EEE5beginB8ue170006Ev, symObjAddr: 0xB6A8, symBinAddr: 0x10000CC20, symSize: 0x30 }
  - { offsetInCU: 0x3CC0F, offset: 0x3CC0F, size: 0x8, addend: 0x0, symName: __ZNSt3__115__list_iteratorI11TransactionPvEC1B8ue170006EPNS_16__list_node_baseIS1_S2_EE, symObjAddr: 0xB6D8, symBinAddr: 0x10000CC50, symSize: 0x34 }
  - { offsetInCU: 0x3CC48, offset: 0x3CC48, size: 0x8, addend: 0x0, symName: __ZNSt3__115__list_iteratorI11TransactionPvEC2B8ue170006EPNS_16__list_node_baseIS1_S2_EE, symObjAddr: 0xB70C, symBinAddr: 0x10000CC84, symSize: 0x20 }
  - { offsetInCU: 0x3CC81, offset: 0x3CC81, size: 0x8, addend: 0x0, symName: __ZNSt3__110__list_impI11TransactionNS_9allocatorIS1_EEE3endB8ue170006Ev, symObjAddr: 0xB72C, symBinAddr: 0x10000CCA4, symSize: 0x34 }
  - { offsetInCU: 0x3CCA7, offset: 0x3CCA7, size: 0x8, addend: 0x0, symName: __ZNSt3__14listI11TransactionNS_9allocatorIS1_EEEC2EmRKS1_, symObjAddr: 0xB760, symBinAddr: 0x10000CCD8, symSize: 0x98 }
  - { offsetInCU: 0x3CCF1, offset: 0x3CCF1, size: 0x8, addend: 0x0, symName: __ZNSt3__110__list_impI11TransactionNS_9allocatorIS1_EEEC2Ev, symObjAddr: 0xB7F8, symBinAddr: 0x10000CD70, symSize: 0x50 }
  - { offsetInCU: 0x3CD1D, offset: 0x3CD1D, size: 0x8, addend: 0x0, symName: __ZNSt3__116__list_node_baseI11TransactionPvEC1B8ue170006Ev, symObjAddr: 0xB848, symBinAddr: 0x10000CDC0, symSize: 0x2C }
  - { offsetInCU: 0x3CD47, offset: 0x3CD47, size: 0x8, addend: 0x0, symName: __ZNSt3__117__compressed_pairImNS_9allocatorINS_11__list_nodeI11TransactionPvEEEEEC1B8ue170006IiNS_18__default_init_tagEEEOT_OT0_, symObjAddr: 0xB874, symBinAddr: 0x10000CDEC, symSize: 0x3C }
  - { offsetInCU: 0x3CD9F, offset: 0x3CD9F, size: 0x8, addend: 0x0, symName: __ZNSt3__116__list_node_baseI11TransactionPvEC2B8ue170006Ev, symObjAddr: 0xB8B0, symBinAddr: 0x10000CE28, symSize: 0x4C }
  - { offsetInCU: 0x3CDC9, offset: 0x3CDC9, size: 0x8, addend: 0x0, symName: __ZNSt3__117__compressed_pairImNS_9allocatorINS_11__list_nodeI11TransactionPvEEEEEC2B8ue170006IiNS_18__default_init_tagEEEOT_OT0_, symObjAddr: 0xB8FC, symBinAddr: 0x10000CE74, symSize: 0x40 }
  - { offsetInCU: 0x3CE21, offset: 0x3CE21, size: 0x8, addend: 0x0, symName: __ZNSt3__122__compressed_pair_elemINS_9allocatorINS_11__list_nodeI11TransactionPvEEEELi1ELb1EEC2B8ue170006ENS_18__default_init_tagE, symObjAddr: 0xB93C, symBinAddr: 0x10000CEB4, symSize: 0x2C }
  - { offsetInCU: 0x3CE56, offset: 0x3CE56, size: 0x8, addend: 0x0, symName: __ZNSt3__19allocatorINS_11__list_nodeI11TransactionPvEEEC2B8ue170006Ev, symObjAddr: 0xB968, symBinAddr: 0x10000CEE0, symSize: 0x2C }
  - { offsetInCU: 0x3CE80, offset: 0x3CE80, size: 0x8, addend: 0x0, symName: __ZNSt3__116__non_trivial_ifILb1ENS_9allocatorINS_11__list_nodeI11TransactionPvEEEEEC2B8ue170006Ev, symObjAddr: 0xB994, symBinAddr: 0x10000CF0C, symSize: 0x14 }
  - { offsetInCU: 0x3CEAA, offset: 0x3CEAA, size: 0x8, addend: 0x0, symName: __ZNSt3__14listINS0_I11TransactionNS_9allocatorIS1_EEEENS2_IS4_EEE15__allocate_nodeB8ue170006ERNS2_INS_11__list_nodeIS4_PvEEEE, symObjAddr: 0xB9A8, symBinAddr: 0x10000CF20, symSize: 0x70 }
  - { offsetInCU: 0x3CEEE, offset: 0x3CEEE, size: 0x8, addend: 0x0, symName: __ZNSt3__116allocator_traitsINS_9allocatorINS_11__list_nodeINS_4listI11TransactionNS1_IS4_EEEEPvEEEEE9constructB8ue170006IS6_JS6_EvvEEvRS9_PT_DpOT0_, symObjAddr: 0xBA18, symBinAddr: 0x10000CF90, symSize: 0x30 }
  - { offsetInCU: 0x3CF42, offset: 0x3CF42, size: 0x8, addend: 0x0, symName: __ZNKSt3__110unique_ptrINS_11__list_nodeINS_4listI11TransactionNS_9allocatorIS3_EEEEPvEENS_22__allocator_destructorINS4_IS8_EEEEEptB8ue170006Ev, symObjAddr: 0xBA48, symBinAddr: 0x10000CFC0, symSize: 0x28 }
  - { offsetInCU: 0x3CF68, offset: 0x3CF68, size: 0x8, addend: 0x0, symName: __ZNSt3__14listINS0_I11TransactionNS_9allocatorIS1_EEEENS2_IS4_EEE20__link_nodes_at_backEPNS_16__list_node_baseIS4_PvEESA_, symObjAddr: 0xBA70, symBinAddr: 0x10000CFE8, symSize: 0x60 }
  - { offsetInCU: 0x3CFAE, offset: 0x3CFAE, size: 0x8, addend: 0x0, symName: __ZNKSt3__110unique_ptrINS_11__list_nodeINS_4listI11TransactionNS_9allocatorIS3_EEEEPvEENS_22__allocator_destructorINS4_IS8_EEEEE3getB8ue170006Ev, symObjAddr: 0xBAD0, symBinAddr: 0x10000D048, symSize: 0x28 }
  - { offsetInCU: 0x3CFD4, offset: 0x3CFD4, size: 0x8, addend: 0x0, symName: __ZNSt3__111__list_nodeINS_4listI11TransactionNS_9allocatorIS2_EEEEPvE9__as_linkB8ue170006Ev, symObjAddr: 0xBAF8, symBinAddr: 0x10000D070, symSize: 0x24 }
  - { offsetInCU: 0x3CFFA, offset: 0x3CFFA, size: 0x8, addend: 0x0, symName: __ZNSt3__110unique_ptrINS_11__list_nodeINS_4listI11TransactionNS_9allocatorIS3_EEEEPvEENS_22__allocator_destructorINS4_IS8_EEEEE7releaseB8ue170006Ev, symObjAddr: 0xBB1C, symBinAddr: 0x10000D094, symSize: 0x44 }
  - { offsetInCU: 0x3D02F, offset: 0x3D02F, size: 0x8, addend: 0x0, symName: __ZNSt3__110unique_ptrINS_11__list_nodeINS_4listI11TransactionNS_9allocatorIS3_EEEEPvEENS_22__allocator_destructorINS4_IS8_EEEEED1B8ue170006Ev, symObjAddr: 0xBB60, symBinAddr: 0x10000D0D8, symSize: 0x2C }
  - { offsetInCU: 0x3D059, offset: 0x3D059, size: 0x8, addend: 0x0, symName: __ZNSt3__116allocator_traitsINS_9allocatorINS_11__list_nodeINS_4listI11TransactionNS1_IS4_EEEEPvEEEEE8allocateB8ue170006ERS9_m, symObjAddr: 0xBB8C, symBinAddr: 0x10000D104, symSize: 0x2C }
  - { offsetInCU: 0x3D08C, offset: 0x3D08C, size: 0x8, addend: 0x0, symName: __ZNSt3__122__allocator_destructorINS_9allocatorINS_11__list_nodeINS_4listI11TransactionNS1_IS4_EEEEPvEEEEEC1B8ue170006ERS9_m, symObjAddr: 0xBBB8, symBinAddr: 0x10000D130, symSize: 0x3C }
  - { offsetInCU: 0x3D0D8, offset: 0x3D0D8, size: 0x8, addend: 0x0, symName: __ZNSt3__110unique_ptrINS_11__list_nodeINS_4listI11TransactionNS_9allocatorIS3_EEEEPvEENS_22__allocator_destructorINS4_IS8_EEEEEC1B8ue170006ILb1EvEEPS8_NS_16__dependent_typeINS_27__unique_ptr_deleter_sfinaeISB_EEXT_EE20__good_rval_ref_typeE, symObjAddr: 0xBBF4, symBinAddr: 0x10000D16C, symSize: 0x3C }
  - { offsetInCU: 0x3D129, offset: 0x3D129, size: 0x8, addend: 0x0, symName: __ZNSt3__19allocatorINS_11__list_nodeINS_4listI11TransactionNS0_IS3_EEEEPvEEE8allocateB8ue170006Em, symObjAddr: 0xBC30, symBinAddr: 0x10000D1A8, symSize: 0x5C }
  - { offsetInCU: 0x3D168, offset: 0x3D168, size: 0x8, addend: 0x0, symName: __ZNSt3__116allocator_traitsINS_9allocatorINS_11__list_nodeINS_4listI11TransactionNS1_IS4_EEEEPvEEEEE8max_sizeB8ue170006IS9_vvEEmRKS9_, symObjAddr: 0xBC8C, symBinAddr: 0x10000D204, symSize: 0x28 }
  - { offsetInCU: 0x3D193, offset: 0x3D193, size: 0x8, addend: 0x0, symName: __ZNSt3__122__allocator_destructorINS_9allocatorINS_11__list_nodeINS_4listI11TransactionNS1_IS4_EEEEPvEEEEEC2B8ue170006ERS9_m, symObjAddr: 0xBCB4, symBinAddr: 0x10000D22C, symSize: 0x2C }
  - { offsetInCU: 0x3D1D9, offset: 0x3D1D9, size: 0x8, addend: 0x0, symName: __ZNSt3__110unique_ptrINS_11__list_nodeINS_4listI11TransactionNS_9allocatorIS3_EEEEPvEENS_22__allocator_destructorINS4_IS8_EEEEEC2B8ue170006ILb1EvEEPS8_NS_16__dependent_typeINS_27__unique_ptr_deleter_sfinaeISB_EEXT_EE20__good_rval_ref_typeE, symObjAddr: 0xBCE0, symBinAddr: 0x10000D258, symSize: 0x48 }
  - { offsetInCU: 0x3D22A, offset: 0x3D22A, size: 0x8, addend: 0x0, symName: __ZNSt3__117__compressed_pairIPNS_11__list_nodeINS_4listI11TransactionNS_9allocatorIS3_EEEEPvEENS_22__allocator_destructorINS4_IS8_EEEEEC1B8ue170006IRS9_SC_EEOT_OT0_, symObjAddr: 0xBD28, symBinAddr: 0x10000D2A0, symSize: 0x3C }
  - { offsetInCU: 0x3D282, offset: 0x3D282, size: 0x8, addend: 0x0, symName: __ZNSt3__117__compressed_pairIPNS_11__list_nodeINS_4listI11TransactionNS_9allocatorIS3_EEEEPvEENS_22__allocator_destructorINS4_IS8_EEEEEC2B8ue170006IRS9_SC_EEOT_OT0_, symObjAddr: 0xBD64, symBinAddr: 0x10000D2DC, symSize: 0x48 }
  - { offsetInCU: 0x3D2DA, offset: 0x3D2DA, size: 0x8, addend: 0x0, symName: __ZNSt3__122__compressed_pair_elemIPNS_11__list_nodeINS_4listI11TransactionNS_9allocatorIS3_EEEEPvEELi0ELb0EEC2B8ue170006IRS9_vEEOT_, symObjAddr: 0xBDAC, symBinAddr: 0x10000D324, symSize: 0x24 }
  - { offsetInCU: 0x3D31C, offset: 0x3D31C, size: 0x8, addend: 0x0, symName: __ZNSt3__122__compressed_pair_elemINS_22__allocator_destructorINS_9allocatorINS_11__list_nodeINS_4listI11TransactionNS2_IS5_EEEEPvEEEEEELi1ELb0EEC2B8ue170006ISB_vEEOT_, symObjAddr: 0xBDD0, symBinAddr: 0x10000D348, symSize: 0x24 }
  - { offsetInCU: 0x3D35E, offset: 0x3D35E, size: 0x8, addend: 0x0, symName: __ZNSt3__14listI11TransactionNS_9allocatorIS1_EEEC1EOS4_, symObjAddr: 0xBE30, symBinAddr: 0x10000D3A8, symSize: 0x34 }
  - { offsetInCU: 0x3D399, offset: 0x3D399, size: 0x8, addend: 0x0, symName: __ZNSt3__14listI11TransactionNS_9allocatorIS1_EEEC2EOS4_, symObjAddr: 0xBE64, symBinAddr: 0x10000D3DC, symSize: 0x70 }
  - { offsetInCU: 0x3D3D4, offset: 0x3D3D4, size: 0x8, addend: 0x0, symName: __ZNSt3__110__list_impI11TransactionNS_9allocatorIS1_EEEC2EONS2_INS_11__list_nodeIS1_PvEEEE, symObjAddr: 0xBED4, symBinAddr: 0x10000D44C, symSize: 0x54 }
  - { offsetInCU: 0x3D40F, offset: 0x3D40F, size: 0x8, addend: 0x0, symName: __ZNSt3__14listI11TransactionNS_9allocatorIS1_EEE6spliceENS_21__list_const_iteratorIS1_PvEERS4_, symObjAddr: 0xBF28, symBinAddr: 0x10000D4A0, symSize: 0xAC }
  - { offsetInCU: 0x3D482, offset: 0x3D482, size: 0x8, addend: 0x0, symName: __ZNSt3__121__list_const_iteratorI11TransactionPvEC1B8ue170006ERKNS_15__list_iteratorIS1_S2_EE, symObjAddr: 0xBFD4, symBinAddr: 0x10000D54C, symSize: 0x34 }
  - { offsetInCU: 0x3D4C1, offset: 0x3D4C1, size: 0x8, addend: 0x0, symName: __ZNSt3__117__compressed_pairImNS_9allocatorINS_11__list_nodeI11TransactionPvEEEEEC1B8ue170006IiS6_EEOT_OT0_, symObjAddr: 0xC008, symBinAddr: 0x10000D580, symSize: 0x3C }
  - { offsetInCU: 0x3D519, offset: 0x3D519, size: 0x8, addend: 0x0, symName: __ZNSt3__117__compressed_pairImNS_9allocatorINS_11__list_nodeI11TransactionPvEEEEEC2B8ue170006IiS6_EEOT_OT0_, symObjAddr: 0xC044, symBinAddr: 0x10000D5BC, symSize: 0x44 }
  - { offsetInCU: 0x3D571, offset: 0x3D571, size: 0x8, addend: 0x0, symName: __ZNSt3__122__compressed_pair_elemINS_9allocatorINS_11__list_nodeI11TransactionPvEEEELi1ELb1EEC2B8ue170006IS6_vEEOT_, symObjAddr: 0xC088, symBinAddr: 0x10000D600, symSize: 0x18 }
  - { offsetInCU: 0x3D5B3, offset: 0x3D5B3, size: 0x8, addend: 0x0, symName: __ZNKSt3__14listI11TransactionNS_9allocatorIS1_EEE5emptyB8ue170006Ev, symObjAddr: 0xC0A0, symBinAddr: 0x10000D618, symSize: 0x28 }
  - { offsetInCU: 0x3D5D9, offset: 0x3D5D9, size: 0x8, addend: 0x0, symName: __ZNSt3__14listI11TransactionNS_9allocatorIS1_EEE12__link_nodesEPNS_16__list_node_baseIS1_PvEES8_S8_, symObjAddr: 0xC0C8, symBinAddr: 0x10000D640, symSize: 0x50 }
  - { offsetInCU: 0x3D61D, offset: 0x3D61D, size: 0x8, addend: 0x0, symName: __ZNSt3__121__list_const_iteratorI11TransactionPvEC2B8ue170006ERKNS_15__list_iteratorIS1_S2_EE, symObjAddr: 0xC118, symBinAddr: 0x10000D690, symSize: 0x24 }
  - { offsetInCU: 0x3D656, offset: 0x3D656, size: 0x8, addend: 0x0, symName: __ZNKSt3__117__compressed_pairIPNS_11__list_nodeINS_4listI11TransactionNS_9allocatorIS3_EEEEPvEENS_22__allocator_destructorINS4_IS8_EEEEE5firstB8ue170006Ev, symObjAddr: 0xC13C, symBinAddr: 0x10000D6B4, symSize: 0x24 }
  - { offsetInCU: 0x3D67C, offset: 0x3D67C, size: 0x8, addend: 0x0, symName: __ZNKSt3__122__compressed_pair_elemIPNS_11__list_nodeINS_4listI11TransactionNS_9allocatorIS3_EEEEPvEELi0ELb0EE5__getB8ue170006Ev, symObjAddr: 0xC160, symBinAddr: 0x10000D6D8, symSize: 0x14 }
  - { offsetInCU: 0x3D6A2, offset: 0x3D6A2, size: 0x8, addend: 0x0, symName: __ZNSt3__117__compressed_pairIPNS_11__list_nodeINS_4listI11TransactionNS_9allocatorIS3_EEEEPvEENS_22__allocator_destructorINS4_IS8_EEEEE5firstB8ue170006Ev, symObjAddr: 0xC174, symBinAddr: 0x10000D6EC, symSize: 0x24 }
  - { offsetInCU: 0x3D6C8, offset: 0x3D6C8, size: 0x8, addend: 0x0, symName: __ZNSt3__122__compressed_pair_elemIPNS_11__list_nodeINS_4listI11TransactionNS_9allocatorIS3_EEEEPvEELi0ELb0EE5__getB8ue170006Ev, symObjAddr: 0xC198, symBinAddr: 0x10000D710, symSize: 0x14 }
  - { offsetInCU: 0x3D6EE, offset: 0x3D6EE, size: 0x8, addend: 0x0, symName: __ZNSt3__110unique_ptrINS_11__list_nodeINS_4listI11TransactionNS_9allocatorIS3_EEEEPvEENS_22__allocator_destructorINS4_IS8_EEEEED2B8ue170006Ev, symObjAddr: 0xC1AC, symBinAddr: 0x10000D724, symSize: 0x30 }
  - { offsetInCU: 0x3D718, offset: 0x3D718, size: 0x8, addend: 0x0, symName: __ZNSt3__110unique_ptrINS_11__list_nodeINS_4listI11TransactionNS_9allocatorIS3_EEEEPvEENS_22__allocator_destructorINS4_IS8_EEEEE5resetB8ue170006EPS8_, symObjAddr: 0xC1DC, symBinAddr: 0x10000D754, symSize: 0x78 }
  - { offsetInCU: 0x3D75C, offset: 0x3D75C, size: 0x8, addend: 0x0, symName: __ZNSt3__117__compressed_pairIPNS_11__list_nodeINS_4listI11TransactionNS_9allocatorIS3_EEEEPvEENS_22__allocator_destructorINS4_IS8_EEEEE6secondB8ue170006Ev, symObjAddr: 0xC254, symBinAddr: 0x10000D7CC, symSize: 0x28 }
  - { offsetInCU: 0x3D782, offset: 0x3D782, size: 0x8, addend: 0x0, symName: __ZNSt3__122__allocator_destructorINS_9allocatorINS_11__list_nodeINS_4listI11TransactionNS1_IS4_EEEEPvEEEEEclB8ue170006EPS8_, symObjAddr: 0xC27C, symBinAddr: 0x10000D7F4, symSize: 0x34 }
  - { offsetInCU: 0x3D7B6, offset: 0x3D7B6, size: 0x8, addend: 0x0, symName: __ZNSt3__122__compressed_pair_elemINS_22__allocator_destructorINS_9allocatorINS_11__list_nodeINS_4listI11TransactionNS2_IS5_EEEEPvEEEEEELi1ELb0EE5__getB8ue170006Ev, symObjAddr: 0xC2B0, symBinAddr: 0x10000D828, symSize: 0x14 }
  - { offsetInCU: 0x3D7DC, offset: 0x3D7DC, size: 0x8, addend: 0x0, symName: __ZNSt3__14listI11TransactionNS_9allocatorIS1_EEE15__allocate_nodeB8ue170006ERNS2_INS_11__list_nodeIS1_PvEEEE, symObjAddr: 0xC2C4, symBinAddr: 0x10000D83C, symSize: 0x70 }
  - { offsetInCU: 0x3D820, offset: 0x3D820, size: 0x8, addend: 0x0, symName: __ZNSt3__116allocator_traitsINS_9allocatorINS_11__list_nodeI11TransactionPvEEEEE9constructB8ue170006IS3_JRKS3_EvvEEvRS6_PT_DpOT0_, symObjAddr: 0xC334, symBinAddr: 0x10000D8AC, symSize: 0x30 }
  - { offsetInCU: 0x3D874, offset: 0x3D874, size: 0x8, addend: 0x0, symName: __ZNKSt3__110unique_ptrINS_11__list_nodeI11TransactionPvEENS_22__allocator_destructorINS_9allocatorIS4_EEEEEptB8ue170006Ev, symObjAddr: 0xC364, symBinAddr: 0x10000D8DC, symSize: 0x28 }
  - { offsetInCU: 0x3D89A, offset: 0x3D89A, size: 0x8, addend: 0x0, symName: __ZNSt3__14listI11TransactionNS_9allocatorIS1_EEE20__link_nodes_at_backEPNS_16__list_node_baseIS1_PvEES8_, symObjAddr: 0xC38C, symBinAddr: 0x10000D904, symSize: 0x60 }
  - { offsetInCU: 0x3D8E0, offset: 0x3D8E0, size: 0x8, addend: 0x0, symName: __ZNKSt3__110unique_ptrINS_11__list_nodeI11TransactionPvEENS_22__allocator_destructorINS_9allocatorIS4_EEEEE3getB8ue170006Ev, symObjAddr: 0xC3EC, symBinAddr: 0x10000D964, symSize: 0x28 }
  - { offsetInCU: 0x3D906, offset: 0x3D906, size: 0x8, addend: 0x0, symName: __ZNSt3__111__list_nodeI11TransactionPvE9__as_linkB8ue170006Ev, symObjAddr: 0xC414, symBinAddr: 0x10000D98C, symSize: 0x24 }
  - { offsetInCU: 0x3D92C, offset: 0x3D92C, size: 0x8, addend: 0x0, symName: __ZNSt3__110unique_ptrINS_11__list_nodeI11TransactionPvEENS_22__allocator_destructorINS_9allocatorIS4_EEEEE7releaseB8ue170006Ev, symObjAddr: 0xC438, symBinAddr: 0x10000D9B0, symSize: 0x44 }
  - { offsetInCU: 0x3D961, offset: 0x3D961, size: 0x8, addend: 0x0, symName: __ZNSt3__110unique_ptrINS_11__list_nodeI11TransactionPvEENS_22__allocator_destructorINS_9allocatorIS4_EEEEED1B8ue170006Ev, symObjAddr: 0xC47C, symBinAddr: 0x10000D9F4, symSize: 0x2C }
  - { offsetInCU: 0x3D98B, offset: 0x3D98B, size: 0x8, addend: 0x0, symName: __ZNSt3__116allocator_traitsINS_9allocatorINS_11__list_nodeI11TransactionPvEEEEE8allocateB8ue170006ERS6_m, symObjAddr: 0xC4A8, symBinAddr: 0x10000DA20, symSize: 0x2C }
  - { offsetInCU: 0x3D9BE, offset: 0x3D9BE, size: 0x8, addend: 0x0, symName: __ZNSt3__122__allocator_destructorINS_9allocatorINS_11__list_nodeI11TransactionPvEEEEEC1B8ue170006ERS6_m, symObjAddr: 0xC4D4, symBinAddr: 0x10000DA4C, symSize: 0x3C }
  - { offsetInCU: 0x3DA0A, offset: 0x3DA0A, size: 0x8, addend: 0x0, symName: __ZNSt3__110unique_ptrINS_11__list_nodeI11TransactionPvEENS_22__allocator_destructorINS_9allocatorIS4_EEEEEC1B8ue170006ILb1EvEEPS4_NS_16__dependent_typeINS_27__unique_ptr_deleter_sfinaeIS8_EEXT_EE20__good_rval_ref_typeE, symObjAddr: 0xC510, symBinAddr: 0x10000DA88, symSize: 0x3C }
  - { offsetInCU: 0x3DA5B, offset: 0x3DA5B, size: 0x8, addend: 0x0, symName: __ZNSt3__19allocatorINS_11__list_nodeI11TransactionPvEEE8allocateB8ue170006Em, symObjAddr: 0xC54C, symBinAddr: 0x10000DAC4, symSize: 0x5C }
  - { offsetInCU: 0x3DA9A, offset: 0x3DA9A, size: 0x8, addend: 0x0, symName: __ZNSt3__116allocator_traitsINS_9allocatorINS_11__list_nodeI11TransactionPvEEEEE8max_sizeB8ue170006IS6_vvEEmRKS6_, symObjAddr: 0xC5A8, symBinAddr: 0x10000DB20, symSize: 0x28 }
  - { offsetInCU: 0x3DAC5, offset: 0x3DAC5, size: 0x8, addend: 0x0, symName: __ZNSt3__122__allocator_destructorINS_9allocatorINS_11__list_nodeI11TransactionPvEEEEEC2B8ue170006ERS6_m, symObjAddr: 0xC5D0, symBinAddr: 0x10000DB48, symSize: 0x2C }
  - { offsetInCU: 0x3DB0B, offset: 0x3DB0B, size: 0x8, addend: 0x0, symName: __ZNSt3__110unique_ptrINS_11__list_nodeI11TransactionPvEENS_22__allocator_destructorINS_9allocatorIS4_EEEEEC2B8ue170006ILb1EvEEPS4_NS_16__dependent_typeINS_27__unique_ptr_deleter_sfinaeIS8_EEXT_EE20__good_rval_ref_typeE, symObjAddr: 0xC5FC, symBinAddr: 0x10000DB74, symSize: 0x48 }
  - { offsetInCU: 0x3DB5C, offset: 0x3DB5C, size: 0x8, addend: 0x0, symName: __ZNSt3__117__compressed_pairIPNS_11__list_nodeI11TransactionPvEENS_22__allocator_destructorINS_9allocatorIS4_EEEEEC1B8ue170006IRS5_S9_EEOT_OT0_, symObjAddr: 0xC644, symBinAddr: 0x10000DBBC, symSize: 0x3C }
  - { offsetInCU: 0x3DBB4, offset: 0x3DBB4, size: 0x8, addend: 0x0, symName: __ZNSt3__117__compressed_pairIPNS_11__list_nodeI11TransactionPvEENS_22__allocator_destructorINS_9allocatorIS4_EEEEEC2B8ue170006IRS5_S9_EEOT_OT0_, symObjAddr: 0xC680, symBinAddr: 0x10000DBF8, symSize: 0x48 }
  - { offsetInCU: 0x3DC0C, offset: 0x3DC0C, size: 0x8, addend: 0x0, symName: __ZNSt3__122__compressed_pair_elemIPNS_11__list_nodeI11TransactionPvEELi0ELb0EEC2B8ue170006IRS5_vEEOT_, symObjAddr: 0xC6C8, symBinAddr: 0x10000DC40, symSize: 0x24 }
  - { offsetInCU: 0x3DC4E, offset: 0x3DC4E, size: 0x8, addend: 0x0, symName: __ZNSt3__122__compressed_pair_elemINS_22__allocator_destructorINS_9allocatorINS_11__list_nodeI11TransactionPvEEEEEELi1ELb0EEC2B8ue170006IS8_vEEOT_, symObjAddr: 0xC6EC, symBinAddr: 0x10000DC64, symSize: 0x24 }
  - { offsetInCU: 0x3DC96, offset: 0x3DC96, size: 0x8, addend: 0x0, symName: __ZNKSt3__117__compressed_pairIPNS_11__list_nodeI11TransactionPvEENS_22__allocator_destructorINS_9allocatorIS4_EEEEE5firstB8ue170006Ev, symObjAddr: 0xC74C, symBinAddr: 0x10000DCC4, symSize: 0x24 }
  - { offsetInCU: 0x3DCBC, offset: 0x3DCBC, size: 0x8, addend: 0x0, symName: __ZNKSt3__122__compressed_pair_elemIPNS_11__list_nodeI11TransactionPvEELi0ELb0EE5__getB8ue170006Ev, symObjAddr: 0xC770, symBinAddr: 0x10000DCE8, symSize: 0x14 }
  - { offsetInCU: 0x3DCE2, offset: 0x3DCE2, size: 0x8, addend: 0x0, symName: __ZNSt3__117__compressed_pairIPNS_11__list_nodeI11TransactionPvEENS_22__allocator_destructorINS_9allocatorIS4_EEEEE5firstB8ue170006Ev, symObjAddr: 0xC784, symBinAddr: 0x10000DCFC, symSize: 0x24 }
  - { offsetInCU: 0x3DD08, offset: 0x3DD08, size: 0x8, addend: 0x0, symName: __ZNSt3__122__compressed_pair_elemIPNS_11__list_nodeI11TransactionPvEELi0ELb0EE5__getB8ue170006Ev, symObjAddr: 0xC7A8, symBinAddr: 0x10000DD20, symSize: 0x14 }
  - { offsetInCU: 0x3DD2E, offset: 0x3DD2E, size: 0x8, addend: 0x0, symName: __ZNSt3__110unique_ptrINS_11__list_nodeI11TransactionPvEENS_22__allocator_destructorINS_9allocatorIS4_EEEEED2B8ue170006Ev, symObjAddr: 0xC7BC, symBinAddr: 0x10000DD34, symSize: 0x30 }
  - { offsetInCU: 0x3DD58, offset: 0x3DD58, size: 0x8, addend: 0x0, symName: __ZNSt3__110unique_ptrINS_11__list_nodeI11TransactionPvEENS_22__allocator_destructorINS_9allocatorIS4_EEEEE5resetB8ue170006EPS4_, symObjAddr: 0xC7EC, symBinAddr: 0x10000DD64, symSize: 0x78 }
  - { offsetInCU: 0x3DD9C, offset: 0x3DD9C, size: 0x8, addend: 0x0, symName: __ZNSt3__117__compressed_pairIPNS_11__list_nodeI11TransactionPvEENS_22__allocator_destructorINS_9allocatorIS4_EEEEE6secondB8ue170006Ev, symObjAddr: 0xC864, symBinAddr: 0x10000DDDC, symSize: 0x28 }
  - { offsetInCU: 0x3DDC2, offset: 0x3DDC2, size: 0x8, addend: 0x0, symName: __ZNSt3__122__allocator_destructorINS_9allocatorINS_11__list_nodeI11TransactionPvEEEEEclB8ue170006EPS5_, symObjAddr: 0xC88C, symBinAddr: 0x10000DE04, symSize: 0x34 }
  - { offsetInCU: 0x3DDF6, offset: 0x3DDF6, size: 0x8, addend: 0x0, symName: __ZNSt3__122__compressed_pair_elemINS_22__allocator_destructorINS_9allocatorINS_11__list_nodeI11TransactionPvEEEEEELi1ELb0EE5__getB8ue170006Ev, symObjAddr: 0xC8C0, symBinAddr: 0x10000DE38, symSize: 0x14 }
  - { offsetInCU: 0x3DE1C, offset: 0x3DE1C, size: 0x8, addend: 0x0, symName: __ZNSt3__14listI11TransactionNS_9allocatorIS1_EEEC2B8ue170006Ev, symObjAddr: 0xC8D4, symBinAddr: 0x10000DE4C, symSize: 0x2C }
  - { offsetInCU: 0x3DE46, offset: 0x3DE46, size: 0x8, addend: 0x0, symName: __ZNSt3__115__list_iteratorINS_12basic_stringIcNS_11char_traitsIcEENS_9allocatorIcEEEEPvEppB8ue170006Ev, symObjAddr: 0xC930, symBinAddr: 0x10000DEA8, symSize: 0x20 }
  - { offsetInCU: 0x3DE89, offset: 0x3DE89, size: 0x8, addend: 0x0, symName: __ZNKSt3__113basic_ostreamIcNS_11char_traitsIcEEE6sentrycvbB8ue170006Ev, symObjAddr: 0xCB3C, symBinAddr: 0x10000E0B4, symSize: 0x1C }
  - { offsetInCU: 0x3DEAF, offset: 0x3DEAF, size: 0x8, addend: 0x0, symName: __ZNSt3__119ostreambuf_iteratorIcNS_11char_traitsIcEEEC1B8ue170006ERNS_13basic_ostreamIcS2_EE, symObjAddr: 0xCD98, symBinAddr: 0x10000E310, symSize: 0x34 }
  - { offsetInCU: 0x3DEE7, offset: 0x3DEE7, size: 0x8, addend: 0x0, symName: __ZNKSt3__18ios_base5flagsB8ue170006Ev, symObjAddr: 0xCDCC, symBinAddr: 0x10000E344, symSize: 0x18 }
  - { offsetInCU: 0x3DF0F, offset: 0x3DF0F, size: 0x8, addend: 0x0, symName: __ZNKSt3__19basic_iosIcNS_11char_traitsIcEEE4fillB8ue170006Ev, symObjAddr: 0xCDE4, symBinAddr: 0x10000E35C, symSize: 0x64 }
  - { offsetInCU: 0x3DF37, offset: 0x3DF37, size: 0x8, addend: 0x0, symName: __ZNKSt3__119ostreambuf_iteratorIcNS_11char_traitsIcEEE6failedB8ue170006Ev, symObjAddr: 0xCE48, symBinAddr: 0x10000E3C0, symSize: 0x24 }
  - { offsetInCU: 0x3DF5D, offset: 0x3DF5D, size: 0x8, addend: 0x0, symName: __ZNSt3__19basic_iosIcNS_11char_traitsIcEEE8setstateB8ue170006Ej, symObjAddr: 0xCE6C, symBinAddr: 0x10000E3E4, symSize: 0x2C }
  - { offsetInCU: 0x3DF92, offset: 0x3DF92, size: 0x8, addend: 0x0, symName: __ZNKSt3__18ios_base5widthB8ue170006Ev, symObjAddr: 0xCE98, symBinAddr: 0x10000E410, symSize: 0x18 }
  - { offsetInCU: 0x3DFBA, offset: 0x3DFBA, size: 0x8, addend: 0x0, symName: __ZNSt3__115basic_streambufIcNS_11char_traitsIcEEE5sputnB8ue170006EPKcl, symObjAddr: 0xCEB0, symBinAddr: 0x10000E428, symSize: 0x3C }
  - { offsetInCU: 0x3DFFC, offset: 0x3DFFC, size: 0x8, addend: 0x0, symName: __ZNSt3__112basic_stringIcNS_11char_traitsIcEENS_9allocatorIcEEEC1B8ue170006Emc, symObjAddr: 0xCEEC, symBinAddr: 0x10000E464, symSize: 0x3C }
  - { offsetInCU: 0x3E044, offset: 0x3E044, size: 0x8, addend: 0x0, symName: __ZNSt3__112basic_stringIcNS_11char_traitsIcEENS_9allocatorIcEEE4dataB8ue170006Ev, symObjAddr: 0xCF28, symBinAddr: 0x10000E4A0, symSize: 0x28 }
  - { offsetInCU: 0x3E06A, offset: 0x3E06A, size: 0x8, addend: 0x0, symName: __ZNSt3__18ios_base5widthB8ue170006El, symObjAddr: 0xCF50, symBinAddr: 0x10000E4C8, symSize: 0x2C }
  - { offsetInCU: 0x3E0B0, offset: 0x3E0B0, size: 0x8, addend: 0x0, symName: __ZNSt3__112basic_stringIcNS_11char_traitsIcEENS_9allocatorIcEEEC2B8ue170006Emc, symObjAddr: 0xCF7C, symBinAddr: 0x10000E4F4, symSize: 0x4C }
  - { offsetInCU: 0x3E0F8, offset: 0x3E0F8, size: 0x8, addend: 0x0, symName: __ZNSt3__119ostreambuf_iteratorIcNS_11char_traitsIcEEEC2B8ue170006ERNS_13basic_ostreamIcS2_EE, symObjAddr: 0xCFDC, symBinAddr: 0x10000E554, symSize: 0x54 }
  - { offsetInCU: 0x3E130, offset: 0x3E130, size: 0x8, addend: 0x0, symName: __ZNKSt3__19basic_iosIcNS_11char_traitsIcEEE5rdbufB8ue170006Ev, symObjAddr: 0xD030, symBinAddr: 0x10000E5A8, symSize: 0x24 }
  - { offsetInCU: 0x3E158, offset: 0x3E158, size: 0x8, addend: 0x0, symName: __ZNKSt3__18ios_base5rdbufB8ue170006Ev, symObjAddr: 0xD054, symBinAddr: 0x10000E5CC, symSize: 0x18 }
  - { offsetInCU: 0x3E17E, offset: 0x3E17E, size: 0x8, addend: 0x0, symName: __ZNSt3__111char_traitsIcE11eq_int_typeB8ue170006Eii, symObjAddr: 0xD06C, symBinAddr: 0x10000E5E4, symSize: 0x28 }
  - { offsetInCU: 0x3E1B1, offset: 0x3E1B1, size: 0x8, addend: 0x0, symName: __ZNSt3__111char_traitsIcE3eofB8ue170006Ev, symObjAddr: 0xD094, symBinAddr: 0x10000E60C, symSize: 0x8 }
  - { offsetInCU: 0x3E1C5, offset: 0x3E1C5, size: 0x8, addend: 0x0, symName: __ZNKSt3__19basic_iosIcNS_11char_traitsIcEEE5widenB8ue170006Ec, symObjAddr: 0xD09C, symBinAddr: 0x10000E614, symSize: 0x84 }
  - { offsetInCU: 0x3E235, offset: 0x3E235, size: 0x8, addend: 0x0, symName: __ZNKSt3__15ctypeIcE5widenB8ue170006Ec, symObjAddr: 0xD14C, symBinAddr: 0x10000E6C4, symSize: 0x38 }
  - { offsetInCU: 0x3E26A, offset: 0x3E26A, size: 0x8, addend: 0x0, symName: __ZNSt3__18ios_base8setstateB8ue170006Ej, symObjAddr: 0xD184, symBinAddr: 0x10000E6FC, symSize: 0x34 }
  - { offsetInCU: 0x3E2A1, offset: 0x3E2A1, size: 0x8, addend: 0x0, symName: __ZNSt3__114pointer_traitsIP11TransactionE10pointer_toB8ue170006ERS1_, symObjAddr: 0xD1B8, symBinAddr: 0x10000E730, symSize: 0x14 }
  - { offsetInCU: 0x3E2C4, offset: 0x3E2C4, size: 0x8, addend: 0x0, symName: __ZNSt3__14listINS_12basic_stringIcNS_11char_traitsIcEENS_9allocatorIcEEEENS4_IS6_EEEC2B8ue170006Ev, symObjAddr: 0xD1CC, symBinAddr: 0x10000E744, symSize: 0x2C }
  - { offsetInCU: 0x3E2EE, offset: 0x3E2EE, size: 0x8, addend: 0x0, symName: __ZNSt3__110__list_impINS_12basic_stringIcNS_11char_traitsIcEENS_9allocatorIcEEEENS4_IS6_EEEC2Ev, symObjAddr: 0xD1F8, symBinAddr: 0x10000E770, symSize: 0x50 }
  - { offsetInCU: 0x3E31A, offset: 0x3E31A, size: 0x8, addend: 0x0, symName: __ZNSt3__116__list_node_baseINS_12basic_stringIcNS_11char_traitsIcEENS_9allocatorIcEEEEPvEC1B8ue170006Ev, symObjAddr: 0xD248, symBinAddr: 0x10000E7C0, symSize: 0x2C }
  - { offsetInCU: 0x3E344, offset: 0x3E344, size: 0x8, addend: 0x0, symName: __ZNSt3__117__compressed_pairImNS_9allocatorINS_11__list_nodeINS_12basic_stringIcNS_11char_traitsIcEENS1_IcEEEEPvEEEEEC1B8ue170006IiNS_18__default_init_tagEEEOT_OT0_, symObjAddr: 0xD274, symBinAddr: 0x10000E7EC, symSize: 0x3C }
  - { offsetInCU: 0x3E39C, offset: 0x3E39C, size: 0x8, addend: 0x0, symName: __ZNSt3__116__list_node_baseINS_12basic_stringIcNS_11char_traitsIcEENS_9allocatorIcEEEEPvEC2B8ue170006Ev, symObjAddr: 0xD2B0, symBinAddr: 0x10000E828, symSize: 0x4C }
  - { offsetInCU: 0x3E3C6, offset: 0x3E3C6, size: 0x8, addend: 0x0, symName: __ZNSt3__117__compressed_pairImNS_9allocatorINS_11__list_nodeINS_12basic_stringIcNS_11char_traitsIcEENS1_IcEEEEPvEEEEEC2B8ue170006IiNS_18__default_init_tagEEEOT_OT0_, symObjAddr: 0xD2FC, symBinAddr: 0x10000E874, symSize: 0x40 }
  - { offsetInCU: 0x3E41E, offset: 0x3E41E, size: 0x8, addend: 0x0, symName: __ZNSt3__122__compressed_pair_elemINS_9allocatorINS_11__list_nodeINS_12basic_stringIcNS_11char_traitsIcEENS1_IcEEEEPvEEEELi1ELb1EEC2B8ue170006ENS_18__default_init_tagE, symObjAddr: 0xD33C, symBinAddr: 0x10000E8B4, symSize: 0x2C }
  - { offsetInCU: 0x3E453, offset: 0x3E453, size: 0x8, addend: 0x0, symName: __ZNSt3__19allocatorINS_11__list_nodeINS_12basic_stringIcNS_11char_traitsIcEENS0_IcEEEEPvEEEC2B8ue170006Ev, symObjAddr: 0xD368, symBinAddr: 0x10000E8E0, symSize: 0x2C }
  - { offsetInCU: 0x3E47D, offset: 0x3E47D, size: 0x8, addend: 0x0, symName: __ZNSt3__116__non_trivial_ifILb1ENS_9allocatorINS_11__list_nodeINS_12basic_stringIcNS_11char_traitsIcEENS1_IcEEEEPvEEEEEC2B8ue170006Ev, symObjAddr: 0xD394, symBinAddr: 0x10000E90C, symSize: 0x14 }
  - { offsetInCU: 0x3E4A7, offset: 0x3E4A7, size: 0x8, addend: 0x0, symName: __ZNSt3__14listINS_12basic_stringIcNS_11char_traitsIcEENS_9allocatorIcEEEENS4_IS6_EEE15__allocate_nodeB8ue170006ERNS4_INS_11__list_nodeIS6_PvEEEE, symObjAddr: 0xD3A8, symBinAddr: 0x10000E920, symSize: 0x70 }
  - { offsetInCU: 0x3E4EB, offset: 0x3E4EB, size: 0x8, addend: 0x0, symName: __ZNSt3__116allocator_traitsINS_9allocatorINS_11__list_nodeINS_12basic_stringIcNS_11char_traitsIcEENS1_IcEEEEPvEEEEE9constructB8ue170006IS7_JRKS7_EvvEEvRSA_PT_DpOT0_, symObjAddr: 0xD418, symBinAddr: 0x10000E990, symSize: 0x30 }
  - { offsetInCU: 0x3E53F, offset: 0x3E53F, size: 0x8, addend: 0x0, symName: __ZNKSt3__110unique_ptrINS_11__list_nodeINS_12basic_stringIcNS_11char_traitsIcEENS_9allocatorIcEEEEPvEENS_22__allocator_destructorINS5_IS9_EEEEEptB8ue170006Ev, symObjAddr: 0xD448, symBinAddr: 0x10000E9C0, symSize: 0x28 }
  - { offsetInCU: 0x3E565, offset: 0x3E565, size: 0x8, addend: 0x0, symName: __ZNSt3__14listINS_12basic_stringIcNS_11char_traitsIcEENS_9allocatorIcEEEENS4_IS6_EEE20__link_nodes_at_backEPNS_16__list_node_baseIS6_PvEESC_, symObjAddr: 0xD470, symBinAddr: 0x10000E9E8, symSize: 0x60 }
  - { offsetInCU: 0x3E5AB, offset: 0x3E5AB, size: 0x8, addend: 0x0, symName: __ZNKSt3__110unique_ptrINS_11__list_nodeINS_12basic_stringIcNS_11char_traitsIcEENS_9allocatorIcEEEEPvEENS_22__allocator_destructorINS5_IS9_EEEEE3getB8ue170006Ev, symObjAddr: 0xD4D0, symBinAddr: 0x10000EA48, symSize: 0x28 }
  - { offsetInCU: 0x3E5D1, offset: 0x3E5D1, size: 0x8, addend: 0x0, symName: __ZNSt3__111__list_nodeINS_12basic_stringIcNS_11char_traitsIcEENS_9allocatorIcEEEEPvE9__as_linkB8ue170006Ev, symObjAddr: 0xD4F8, symBinAddr: 0x10000EA70, symSize: 0x24 }
  - { offsetInCU: 0x3E5F7, offset: 0x3E5F7, size: 0x8, addend: 0x0, symName: __ZNSt3__110unique_ptrINS_11__list_nodeINS_12basic_stringIcNS_11char_traitsIcEENS_9allocatorIcEEEEPvEENS_22__allocator_destructorINS5_IS9_EEEEE7releaseB8ue170006Ev, symObjAddr: 0xD51C, symBinAddr: 0x10000EA94, symSize: 0x44 }
  - { offsetInCU: 0x3E62C, offset: 0x3E62C, size: 0x8, addend: 0x0, symName: __ZNSt3__110unique_ptrINS_11__list_nodeINS_12basic_stringIcNS_11char_traitsIcEENS_9allocatorIcEEEEPvEENS_22__allocator_destructorINS5_IS9_EEEEED1B8ue170006Ev, symObjAddr: 0xD560, symBinAddr: 0x10000EAD8, symSize: 0x2C }
  - { offsetInCU: 0x3E656, offset: 0x3E656, size: 0x8, addend: 0x0, symName: __ZNSt3__116allocator_traitsINS_9allocatorINS_11__list_nodeINS_12basic_stringIcNS_11char_traitsIcEENS1_IcEEEEPvEEEEE8allocateB8ue170006ERSA_m, symObjAddr: 0xD58C, symBinAddr: 0x10000EB04, symSize: 0x2C }
  - { offsetInCU: 0x3E689, offset: 0x3E689, size: 0x8, addend: 0x0, symName: __ZNSt3__122__allocator_destructorINS_9allocatorINS_11__list_nodeINS_12basic_stringIcNS_11char_traitsIcEENS1_IcEEEEPvEEEEEC1B8ue170006ERSA_m, symObjAddr: 0xD5B8, symBinAddr: 0x10000EB30, symSize: 0x3C }
  - { offsetInCU: 0x3E6D5, offset: 0x3E6D5, size: 0x8, addend: 0x0, symName: __ZNSt3__110unique_ptrINS_11__list_nodeINS_12basic_stringIcNS_11char_traitsIcEENS_9allocatorIcEEEEPvEENS_22__allocator_destructorINS5_IS9_EEEEEC1B8ue170006ILb1EvEEPS9_NS_16__dependent_typeINS_27__unique_ptr_deleter_sfinaeISC_EEXT_EE20__good_rval_ref_typeE, symObjAddr: 0xD5F4, symBinAddr: 0x10000EB6C, symSize: 0x3C }
  - { offsetInCU: 0x3E726, offset: 0x3E726, size: 0x8, addend: 0x0, symName: __ZNSt3__19allocatorINS_11__list_nodeINS_12basic_stringIcNS_11char_traitsIcEENS0_IcEEEEPvEEE8allocateB8ue170006Em, symObjAddr: 0xD630, symBinAddr: 0x10000EBA8, symSize: 0x5C }
  - { offsetInCU: 0x3E765, offset: 0x3E765, size: 0x8, addend: 0x0, symName: __ZNSt3__116allocator_traitsINS_9allocatorINS_11__list_nodeINS_12basic_stringIcNS_11char_traitsIcEENS1_IcEEEEPvEEEEE8max_sizeB8ue170006ISA_vvEEmRKSA_, symObjAddr: 0xD68C, symBinAddr: 0x10000EC04, symSize: 0x28 }
  - { offsetInCU: 0x3E790, offset: 0x3E790, size: 0x8, addend: 0x0, symName: __ZNSt3__122__allocator_destructorINS_9allocatorINS_11__list_nodeINS_12basic_stringIcNS_11char_traitsIcEENS1_IcEEEEPvEEEEEC2B8ue170006ERSA_m, symObjAddr: 0xD6B4, symBinAddr: 0x10000EC2C, symSize: 0x2C }
  - { offsetInCU: 0x3E7D6, offset: 0x3E7D6, size: 0x8, addend: 0x0, symName: __ZNSt3__110unique_ptrINS_11__list_nodeINS_12basic_stringIcNS_11char_traitsIcEENS_9allocatorIcEEEEPvEENS_22__allocator_destructorINS5_IS9_EEEEEC2B8ue170006ILb1EvEEPS9_NS_16__dependent_typeINS_27__unique_ptr_deleter_sfinaeISC_EEXT_EE20__good_rval_ref_typeE, symObjAddr: 0xD6E0, symBinAddr: 0x10000EC58, symSize: 0x48 }
  - { offsetInCU: 0x3E827, offset: 0x3E827, size: 0x8, addend: 0x0, symName: __ZNSt3__117__compressed_pairIPNS_11__list_nodeINS_12basic_stringIcNS_11char_traitsIcEENS_9allocatorIcEEEEPvEENS_22__allocator_destructorINS5_IS9_EEEEEC1B8ue170006IRSA_SD_EEOT_OT0_, symObjAddr: 0xD728, symBinAddr: 0x10000ECA0, symSize: 0x3C }
  - { offsetInCU: 0x3E87F, offset: 0x3E87F, size: 0x8, addend: 0x0, symName: __ZNSt3__117__compressed_pairIPNS_11__list_nodeINS_12basic_stringIcNS_11char_traitsIcEENS_9allocatorIcEEEEPvEENS_22__allocator_destructorINS5_IS9_EEEEEC2B8ue170006IRSA_SD_EEOT_OT0_, symObjAddr: 0xD764, symBinAddr: 0x10000ECDC, symSize: 0x48 }
  - { offsetInCU: 0x3E8D7, offset: 0x3E8D7, size: 0x8, addend: 0x0, symName: __ZNSt3__122__compressed_pair_elemIPNS_11__list_nodeINS_12basic_stringIcNS_11char_traitsIcEENS_9allocatorIcEEEEPvEELi0ELb0EEC2B8ue170006IRSA_vEEOT_, symObjAddr: 0xD7AC, symBinAddr: 0x10000ED24, symSize: 0x24 }
  - { offsetInCU: 0x3E919, offset: 0x3E919, size: 0x8, addend: 0x0, symName: __ZNSt3__122__compressed_pair_elemINS_22__allocator_destructorINS_9allocatorINS_11__list_nodeINS_12basic_stringIcNS_11char_traitsIcEENS2_IcEEEEPvEEEEEELi1ELb0EEC2B8ue170006ISC_vEEOT_, symObjAddr: 0xD7D0, symBinAddr: 0x10000ED48, symSize: 0x24 }
  - { offsetInCU: 0x3E95B, offset: 0x3E95B, size: 0x8, addend: 0x0, symName: __ZNKSt3__117__compressed_pairIPNS_11__list_nodeINS_12basic_stringIcNS_11char_traitsIcEENS_9allocatorIcEEEEPvEENS_22__allocator_destructorINS5_IS9_EEEEE5firstB8ue170006Ev, symObjAddr: 0xD830, symBinAddr: 0x10000EDA8, symSize: 0x24 }
  - { offsetInCU: 0x3E981, offset: 0x3E981, size: 0x8, addend: 0x0, symName: __ZNKSt3__122__compressed_pair_elemIPNS_11__list_nodeINS_12basic_stringIcNS_11char_traitsIcEENS_9allocatorIcEEEEPvEELi0ELb0EE5__getB8ue170006Ev, symObjAddr: 0xD854, symBinAddr: 0x10000EDCC, symSize: 0x14 }
  - { offsetInCU: 0x3E9A7, offset: 0x3E9A7, size: 0x8, addend: 0x0, symName: __ZNSt3__117__compressed_pairIPNS_11__list_nodeINS_12basic_stringIcNS_11char_traitsIcEENS_9allocatorIcEEEEPvEENS_22__allocator_destructorINS5_IS9_EEEEE5firstB8ue170006Ev, symObjAddr: 0xD868, symBinAddr: 0x10000EDE0, symSize: 0x24 }
  - { offsetInCU: 0x3E9CD, offset: 0x3E9CD, size: 0x8, addend: 0x0, symName: __ZNSt3__122__compressed_pair_elemIPNS_11__list_nodeINS_12basic_stringIcNS_11char_traitsIcEENS_9allocatorIcEEEEPvEELi0ELb0EE5__getB8ue170006Ev, symObjAddr: 0xD88C, symBinAddr: 0x10000EE04, symSize: 0x14 }
  - { offsetInCU: 0x3E9F3, offset: 0x3E9F3, size: 0x8, addend: 0x0, symName: __ZNSt3__110unique_ptrINS_11__list_nodeINS_12basic_stringIcNS_11char_traitsIcEENS_9allocatorIcEEEEPvEENS_22__allocator_destructorINS5_IS9_EEEEED2B8ue170006Ev, symObjAddr: 0xD8A0, symBinAddr: 0x10000EE18, symSize: 0x30 }
  - { offsetInCU: 0x3EA1D, offset: 0x3EA1D, size: 0x8, addend: 0x0, symName: __ZNSt3__110unique_ptrINS_11__list_nodeINS_12basic_stringIcNS_11char_traitsIcEENS_9allocatorIcEEEEPvEENS_22__allocator_destructorINS5_IS9_EEEEE5resetB8ue170006EPS9_, symObjAddr: 0xD8D0, symBinAddr: 0x10000EE48, symSize: 0x78 }
  - { offsetInCU: 0x3EA61, offset: 0x3EA61, size: 0x8, addend: 0x0, symName: __ZNSt3__117__compressed_pairIPNS_11__list_nodeINS_12basic_stringIcNS_11char_traitsIcEENS_9allocatorIcEEEEPvEENS_22__allocator_destructorINS5_IS9_EEEEE6secondB8ue170006Ev, symObjAddr: 0xD948, symBinAddr: 0x10000EEC0, symSize: 0x28 }
  - { offsetInCU: 0x3EA87, offset: 0x3EA87, size: 0x8, addend: 0x0, symName: __ZNSt3__122__allocator_destructorINS_9allocatorINS_11__list_nodeINS_12basic_stringIcNS_11char_traitsIcEENS1_IcEEEEPvEEEEEclB8ue170006EPS9_, symObjAddr: 0xD970, symBinAddr: 0x10000EEE8, symSize: 0x34 }
  - { offsetInCU: 0x3EABB, offset: 0x3EABB, size: 0x8, addend: 0x0, symName: __ZNSt3__122__compressed_pair_elemINS_22__allocator_destructorINS_9allocatorINS_11__list_nodeINS_12basic_stringIcNS_11char_traitsIcEENS2_IcEEEEPvEEEEEELi1ELb0EE5__getB8ue170006Ev, symObjAddr: 0xD9A4, symBinAddr: 0x10000EF1C, symSize: 0x14 }
  - { offsetInCU: 0x3EAE1, offset: 0x3EAE1, size: 0x8, addend: 0x0, symName: __ZNSt3__19basic_iosIcNS_11char_traitsIcEEEC2B8ue170006Ev, symObjAddr: 0xD9B8, symBinAddr: 0x10000EF30, symSize: 0x44 }
  - { offsetInCU: 0x3EB0B, offset: 0x3EB0B, size: 0x8, addend: 0x0, symName: __ZNSt3__113basic_istreamIcNS_11char_traitsIcEEEC2B8ue170006EPNS_15basic_streambufIcS2_EE, symObjAddr: 0xD9FC, symBinAddr: 0x10000EF74, symSize: 0x64 }
  - { offsetInCU: 0x3EB50, offset: 0x3EB50, size: 0x8, addend: 0x0, symName: __ZNSt3__113basic_filebufIcNS_11char_traitsIcEEE4openERKNS_12basic_stringIcS2_NS_9allocatorIcEEEEj, symObjAddr: 0xDA60, symBinAddr: 0x10000EFD8, symSize: 0x44 }
  - { offsetInCU: 0x3EB94, offset: 0x3EB94, size: 0x8, addend: 0x0, symName: __ZNSt3__18ios_baseC2B8ue170006Ev, symObjAddr: 0xDAA4, symBinAddr: 0x10000F01C, symSize: 0x24 }
  - { offsetInCU: 0x3EBBE, offset: 0x3EBBE, size: 0x8, addend: 0x0, symName: __ZNSt3__19basic_iosIcNS_11char_traitsIcEEE4initB8ue170006EPNS_15basic_streambufIcS2_EE, symObjAddr: 0xDAC8, symBinAddr: 0x10000F040, symSize: 0x44 }
  - { offsetInCU: 0x3EBF5, offset: 0x3EBF5, size: 0x8, addend: 0x0, symName: __ZNKSt3__112basic_stringIcNS_11char_traitsIcEENS_9allocatorIcEEE5c_strB8ue170006Ev, symObjAddr: 0xDB0C, symBinAddr: 0x10000F084, symSize: 0x24 }
  - { offsetInCU: 0x3EC1B, offset: 0x3EC1B, size: 0x8, addend: 0x0, symName: __ZN8nlohmann16json_abi_v3_11_310basic_jsonINSt3__13mapENS2_6vectorENS2_12basic_stringIcNS2_11char_traitsIcEENS2_9allocatorIcEEEEbxydS8_NS0_14adl_serializerENS4_IhNS8_IhEEEEvEC1ENS0_6detail7value_tE, symObjAddr: 0xDB30, symBinAddr: 0x10000F0A8, symSize: 0x34 }
  - { offsetInCU: 0x3EC54, offset: 0x3EC54, size: 0x8, addend: 0x0, symName: __ZN8nlohmann16json_abi_v3_11_310basic_jsonINSt3__13mapENS2_6vectorENS2_12basic_stringIcNS2_11char_traitsIcEENS2_9allocatorIcEEEEbxydS8_NS0_14adl_serializerENS4_IhNS8_IhEEEEvEC2ENS0_6detail7value_tE, symObjAddr: 0xDB64, symBinAddr: 0x10000F0DC, symSize: 0x44 }
  - { offsetInCU: 0x3EC8D, offset: 0x3EC8D, size: 0x8, addend: 0x0, symName: __ZN8nlohmann16json_abi_v3_11_310basic_jsonINSt3__13mapENS2_6vectorENS2_12basic_stringIcNS2_11char_traitsIcEENS2_9allocatorIcEEEEbxydS8_NS0_14adl_serializerENS4_IhNS8_IhEEEEvE4dataC1ENS0_6detail7value_tE, symObjAddr: 0xDBA8, symBinAddr: 0x10000F120, symSize: 0x34 }
  - { offsetInCU: 0x3ECC6, offset: 0x3ECC6, size: 0x8, addend: 0x0, symName: __ZN8nlohmann16json_abi_v3_11_310basic_jsonINSt3__13mapENS2_6vectorENS2_12basic_stringIcNS2_11char_traitsIcEENS2_9allocatorIcEEEEbxydS8_NS0_14adl_serializerENS4_IhNS8_IhEEEEvE4dataC2ENS0_6detail7value_tE, symObjAddr: 0xDBDC, symBinAddr: 0x10000F154, symSize: 0x40 }
  - { offsetInCU: 0x3ECFF, offset: 0x3ECFF, size: 0x8, addend: 0x0, symName: __ZN8nlohmann16json_abi_v3_11_310basic_jsonINSt3__13mapENS2_6vectorENS2_12basic_stringIcNS2_11char_traitsIcEENS2_9allocatorIcEEEEbxydS8_NS0_14adl_serializerENS4_IhNS8_IhEEEEvE10json_valueC1ENS0_6detail7value_tE, symObjAddr: 0xDC1C, symBinAddr: 0x10000F194, symSize: 0x34 }
  - { offsetInCU: 0x3ED38, offset: 0x3ED38, size: 0x8, addend: 0x0, symName: __ZN8nlohmann16json_abi_v3_11_310basic_jsonINSt3__13mapENS2_6vectorENS2_12basic_stringIcNS2_11char_traitsIcEENS2_9allocatorIcEEEEbxydS8_NS0_14adl_serializerENS4_IhNS8_IhEEEEvE10json_valueC2ENS0_6detail7value_tE, symObjAddr: 0xDC50, symBinAddr: 0x10000F1C8, symSize: 0x1DC }
  - { offsetInCU: 0x3ED71, offset: 0x3ED71, size: 0x8, addend: 0x0, symName: __ZN8nlohmann16json_abi_v3_11_310basic_jsonINSt3__13mapENS2_6vectorENS2_12basic_stringIcNS2_11char_traitsIcEENS2_9allocatorIcEEEEbxydS8_NS0_14adl_serializerENS4_IhNS8_IhEEEEvE6createINS3_ISA_SE_NS2_4lessIvEENS8_INS2_4pairIKSA_SE_EEEEEEJEEEPT_DpOT0_, symObjAddr: 0xDE54, symBinAddr: 0x10000F3CC, symSize: 0xEC }
  - { offsetInCU: 0x3EDEA, offset: 0x3EDEA, size: 0x8, addend: 0x0, symName: __ZN8nlohmann16json_abi_v3_11_310basic_jsonINSt3__13mapENS2_6vectorENS2_12basic_stringIcNS2_11char_traitsIcEENS2_9allocatorIcEEEEbxydS8_NS0_14adl_serializerENS4_IhNS8_IhEEEEvE6createINS4_ISE_NS8_ISE_EEEEJEEEPT_DpOT0_, symObjAddr: 0xDF40, symBinAddr: 0x10000F4B8, symSize: 0xEC }
  - { offsetInCU: 0x3EE7C, offset: 0x3EE7C, size: 0x8, addend: 0x0, symName: __ZN8nlohmann16json_abi_v3_11_310basic_jsonINSt3__13mapENS2_6vectorENS2_12basic_stringIcNS2_11char_traitsIcEENS2_9allocatorIcEEEEbxydS8_NS0_14adl_serializerENS4_IhNS8_IhEEEEvE6createISA_JRA1_KcEEEPT_DpOT0_, symObjAddr: 0xE02C, symBinAddr: 0x10000F5A4, symSize: 0xF4 }
  - { offsetInCU: 0x3EF0A, offset: 0x3EF0A, size: 0x8, addend: 0x0, symName: __ZN8nlohmann16json_abi_v3_11_310basic_jsonINSt3__13mapENS2_6vectorENS2_12basic_stringIcNS2_11char_traitsIcEENS2_9allocatorIcEEEEbxydS8_NS0_14adl_serializerENS4_IhNS8_IhEEEEvE6createINS0_27byte_container_with_subtypeISD_EEJEEEPT_DpOT0_, symObjAddr: 0xE120, symBinAddr: 0x10000F698, symSize: 0xEC }
  - { offsetInCU: 0x3EFB7, offset: 0x3EFB7, size: 0x8, addend: 0x0, symName: __ZN8nlohmann16json_abi_v3_11_36detail11other_error6createIDnLi0EEES2_iRKNSt3__112basic_stringIcNS4_11char_traitsIcEENS4_9allocatorIcEEEET_, symObjAddr: 0xE20C, symBinAddr: 0x10000F784, symSize: 0x130 }
  - { offsetInCU: 0x3F017, offset: 0x3F017, size: 0x8, addend: 0x0, symName: __ZN8nlohmann16json_abi_v3_11_36detail11other_errorD1Ev, symObjAddr: 0xE33C, symBinAddr: 0x10000F8B4, symSize: 0x2C }
  - { offsetInCU: 0x3F044, offset: 0x3F044, size: 0x8, addend: 0x0, symName: __ZNSt3__116allocator_traitsINS_9allocatorINS_3mapINS_12basic_stringIcNS_11char_traitsIcEENS1_IcEEEEN8nlohmann16json_abi_v3_11_310basic_jsonIS2_NS_6vectorES7_bxydS1_NS9_14adl_serializerENSB_IhNS1_IhEEEEvEENS_4lessIvEENS1_INS_4pairIKS7_SF_EEEEEEEEE8allocateB8ue170006ERSN_m, symObjAddr: 0xE368, symBinAddr: 0x10000F8E0, symSize: 0x2C }
  - { offsetInCU: 0x3F118, offset: 0x3F118, size: 0x8, addend: 0x0, symName: __ZNSt3__110unique_ptrINS_3mapINS_12basic_stringIcNS_11char_traitsIcEENS_9allocatorIcEEEEN8nlohmann16json_abi_v3_11_310basic_jsonIS1_NS_6vectorES7_bxydS5_NS9_14adl_serializerENSB_IhNS5_IhEEEEvEENS_4lessIvEENS5_INS_4pairIKS7_SF_EEEEEEZNSF_6createISM_JEEEPT_DpOT0_EUlPSM_E_EC1B8ue170006ILb1EvEEST_NS_16__dependent_typeINS_27__unique_ptr_deleter_sfinaeISU_EEXT_EE15__lval_ref_typeE, symObjAddr: 0xE394, symBinAddr: 0x10000F90C, symSize: 0x3C }
  - { offsetInCU: 0x3F169, offset: 0x3F169, size: 0x8, addend: 0x0, symName: __ZNSt3__116allocator_traitsINS_9allocatorINS_3mapINS_12basic_stringIcNS_11char_traitsIcEENS1_IcEEEEN8nlohmann16json_abi_v3_11_310basic_jsonIS2_NS_6vectorES7_bxydS1_NS9_14adl_serializerENSB_IhNS1_IhEEEEvEENS_4lessIvEENS1_INS_4pairIKS7_SF_EEEEEEEEE9constructB8ue170006ISM_JEvvEEvRSN_PT_DpOT0_, symObjAddr: 0xE3D0, symBinAddr: 0x10000F948, symSize: 0x28 }
  - { offsetInCU: 0x3F1A8, offset: 0x3F1A8, size: 0x8, addend: 0x0, symName: __ZNKSt3__110unique_ptrINS_3mapINS_12basic_stringIcNS_11char_traitsIcEENS_9allocatorIcEEEEN8nlohmann16json_abi_v3_11_310basic_jsonIS1_NS_6vectorES7_bxydS5_NS9_14adl_serializerENSB_IhNS5_IhEEEEvEENS_4lessIvEENS5_INS_4pairIKS7_SF_EEEEEEZNSF_6createISM_JEEEPT_DpOT0_EUlPSM_E_E3getB8ue170006Ev, symObjAddr: 0xE3F8, symBinAddr: 0x10000F970, symSize: 0x28 }
  - { offsetInCU: 0x3F1CE, offset: 0x3F1CE, size: 0x8, addend: 0x0, symName: __ZNSt3__110unique_ptrINS_3mapINS_12basic_stringIcNS_11char_traitsIcEENS_9allocatorIcEEEEN8nlohmann16json_abi_v3_11_310basic_jsonIS1_NS_6vectorES7_bxydS5_NS9_14adl_serializerENSB_IhNS5_IhEEEEvEENS_4lessIvEENS5_INS_4pairIKS7_SF_EEEEEEZNSF_6createISM_JEEEPT_DpOT0_EUlPSM_E_E7releaseB8ue170006Ev, symObjAddr: 0xE450, symBinAddr: 0x10000F9C8, symSize: 0x44 }
  - { offsetInCU: 0x3F203, offset: 0x3F203, size: 0x8, addend: 0x0, symName: __ZNSt3__110unique_ptrINS_3mapINS_12basic_stringIcNS_11char_traitsIcEENS_9allocatorIcEEEEN8nlohmann16json_abi_v3_11_310basic_jsonIS1_NS_6vectorES7_bxydS5_NS9_14adl_serializerENSB_IhNS5_IhEEEEvEENS_4lessIvEENS5_INS_4pairIKS7_SF_EEEEEEZNSF_6createISM_JEEEPT_DpOT0_EUlPSM_E_ED1B8ue170006Ev, symObjAddr: 0xE494, symBinAddr: 0x10000FA0C, symSize: 0x2C }
  - { offsetInCU: 0x3F22D, offset: 0x3F22D, size: 0x8, addend: 0x0, symName: __ZNSt3__19allocatorINS_3mapINS_12basic_stringIcNS_11char_traitsIcEENS0_IcEEEEN8nlohmann16json_abi_v3_11_310basic_jsonIS1_NS_6vectorES6_bxydS0_NS8_14adl_serializerENSA_IhNS0_IhEEEEvEENS_4lessIvEENS0_INS_4pairIKS6_SE_EEEEEEE8allocateB8ue170006Em, symObjAddr: 0xE4C0, symBinAddr: 0x10000FA38, symSize: 0x5C }
  - { offsetInCU: 0x3F26C, offset: 0x3F26C, size: 0x8, addend: 0x0, symName: __ZNSt3__116allocator_traitsINS_9allocatorINS_3mapINS_12basic_stringIcNS_11char_traitsIcEENS1_IcEEEEN8nlohmann16json_abi_v3_11_310basic_jsonIS2_NS_6vectorES7_bxydS1_NS9_14adl_serializerENSB_IhNS1_IhEEEEvEENS_4lessIvEENS1_INS_4pairIKS7_SF_EEEEEEEEE8max_sizeB8ue170006ISN_vvEEmRKSN_, symObjAddr: 0xE51C, symBinAddr: 0x10000FA94, symSize: 0x28 }
  - { offsetInCU: 0x3F297, offset: 0x3F297, size: 0x8, addend: 0x0, symName: __ZNSt3__110unique_ptrINS_3mapINS_12basic_stringIcNS_11char_traitsIcEENS_9allocatorIcEEEEN8nlohmann16json_abi_v3_11_310basic_jsonIS1_NS_6vectorES7_bxydS5_NS9_14adl_serializerENSB_IhNS5_IhEEEEvEENS_4lessIvEENS5_INS_4pairIKS7_SF_EEEEEEZNSF_6createISM_JEEEPT_DpOT0_EUlPSM_E_EC2B8ue170006ILb1EvEEST_NS_16__dependent_typeINS_27__unique_ptr_deleter_sfinaeISU_EEXT_EE15__lval_ref_typeE, symObjAddr: 0xE544, symBinAddr: 0x10000FABC, symSize: 0x48 }
  - { offsetInCU: 0x3F2E8, offset: 0x3F2E8, size: 0x8, addend: 0x0, symName: __ZNSt3__117__compressed_pairIPNS_3mapINS_12basic_stringIcNS_11char_traitsIcEENS_9allocatorIcEEEEN8nlohmann16json_abi_v3_11_310basic_jsonIS1_NS_6vectorES7_bxydS5_NS9_14adl_serializerENSB_IhNS5_IhEEEEvEENS_4lessIvEENS5_INS_4pairIKS7_SF_EEEEEEZNSF_6createISM_JEEEPT_DpOT0_EUlSN_E_EC1B8ue170006IRSN_RKSU_EEOSP_OT0_, symObjAddr: 0xE58C, symBinAddr: 0x10000FB04, symSize: 0x3C }
  - { offsetInCU: 0x3F340, offset: 0x3F340, size: 0x8, addend: 0x0, symName: __ZNSt3__117__compressed_pairIPNS_3mapINS_12basic_stringIcNS_11char_traitsIcEENS_9allocatorIcEEEEN8nlohmann16json_abi_v3_11_310basic_jsonIS1_NS_6vectorES7_bxydS5_NS9_14adl_serializerENSB_IhNS5_IhEEEEvEENS_4lessIvEENS5_INS_4pairIKS7_SF_EEEEEEZNSF_6createISM_JEEEPT_DpOT0_EUlSN_E_EC2B8ue170006IRSN_RKSU_EEOSP_OT0_, symObjAddr: 0xE5C8, symBinAddr: 0x10000FB40, symSize: 0x48 }
  - { offsetInCU: 0x3F398, offset: 0x3F398, size: 0x8, addend: 0x0, symName: __ZNSt3__122__compressed_pair_elemIPNS_3mapINS_12basic_stringIcNS_11char_traitsIcEENS_9allocatorIcEEEEN8nlohmann16json_abi_v3_11_310basic_jsonIS1_NS_6vectorES7_bxydS5_NS9_14adl_serializerENSB_IhNS5_IhEEEEvEENS_4lessIvEENS5_INS_4pairIKS7_SF_EEEEEELi0ELb0EEC2B8ue170006IRSN_vEEOT_, symObjAddr: 0xE610, symBinAddr: 0x10000FB88, symSize: 0x24 }
  - { offsetInCU: 0x3F3DA, offset: 0x3F3DA, size: 0x8, addend: 0x0, symName: __ZNSt3__122__compressed_pair_elemIZN8nlohmann16json_abi_v3_11_310basic_jsonINS_3mapENS_6vectorENS_12basic_stringIcNS_11char_traitsIcEENS_9allocatorIcEEEEbxydS9_NS2_14adl_serializerENS5_IhNS9_IhEEEEvE6createINS4_ISB_SF_NS_4lessIvEENS9_INS_4pairIKSB_SF_EEEEEEJEEEPT_DpOT0_EUlPSN_E_Li1ELb0EEC2B8ue170006IRKSU_vEEOSO_, symObjAddr: 0xE634, symBinAddr: 0x10000FBAC, symSize: 0x24 }
  - { offsetInCU: 0x3F41C, offset: 0x3F41C, size: 0x8, addend: 0x0, symName: __ZNSt3__13mapINS_12basic_stringIcNS_11char_traitsIcEENS_9allocatorIcEEEEN8nlohmann16json_abi_v3_11_310basic_jsonIS0_NS_6vectorES6_bxydS4_NS8_14adl_serializerENSA_IhNS4_IhEEEEvEENS_4lessIvEENS4_INS_4pairIKS6_SE_EEEEEC1B8ue170006Ev, symObjAddr: 0xE68C, symBinAddr: 0x10000FC04, symSize: 0x2C }
  - { offsetInCU: 0x3F446, offset: 0x3F446, size: 0x8, addend: 0x0, symName: __ZNSt3__13mapINS_12basic_stringIcNS_11char_traitsIcEENS_9allocatorIcEEEEN8nlohmann16json_abi_v3_11_310basic_jsonIS0_NS_6vectorES6_bxydS4_NS8_14adl_serializerENSA_IhNS4_IhEEEEvEENS_4lessIvEENS4_INS_4pairIKS6_SE_EEEEEC2B8ue170006Ev, symObjAddr: 0xE6B8, symBinAddr: 0x10000FC30, symSize: 0x40 }
  - { offsetInCU: 0x3F470, offset: 0x3F470, size: 0x8, addend: 0x0, symName: __ZNSt3__119__map_value_compareINS_12basic_stringIcNS_11char_traitsIcEENS_9allocatorIcEEEENS_12__value_typeIS6_N8nlohmann16json_abi_v3_11_310basic_jsonINS_3mapENS_6vectorES6_bxydS4_NS9_14adl_serializerENSC_IhNS4_IhEEEEvEEEENS_4lessIvEELb1EEC1B8ue170006ESJ_, symObjAddr: 0xE6F8, symBinAddr: 0x10000FC70, symSize: 0x2C }
  - { offsetInCU: 0x3F4A9, offset: 0x3F4A9, size: 0x8, addend: 0x0, symName: __ZNSt3__16__treeINS_12__value_typeINS_12basic_stringIcNS_11char_traitsIcEENS_9allocatorIcEEEEN8nlohmann16json_abi_v3_11_310basic_jsonINS_3mapENS_6vectorES7_bxydS5_NS9_14adl_serializerENSC_IhNS5_IhEEEEvEEEENS_19__map_value_compareIS7_SH_NS_4lessIvEELb1EEENS5_ISH_EEEC1ERKSL_, symObjAddr: 0xE724, symBinAddr: 0x10000FC9C, symSize: 0x34 }
  - { offsetInCU: 0x3F4E4, offset: 0x3F4E4, size: 0x8, addend: 0x0, symName: __ZNSt3__119__map_value_compareINS_12basic_stringIcNS_11char_traitsIcEENS_9allocatorIcEEEENS_12__value_typeIS6_N8nlohmann16json_abi_v3_11_310basic_jsonINS_3mapENS_6vectorES6_bxydS4_NS9_14adl_serializerENSC_IhNS4_IhEEEEvEEEENS_4lessIvEELb1EEC2B8ue170006ESJ_, symObjAddr: 0xE758, symBinAddr: 0x10000FCD0, symSize: 0x14 }
  - { offsetInCU: 0x3F51D, offset: 0x3F51D, size: 0x8, addend: 0x0, symName: __ZNSt3__16__treeINS_12__value_typeINS_12basic_stringIcNS_11char_traitsIcEENS_9allocatorIcEEEEN8nlohmann16json_abi_v3_11_310basic_jsonINS_3mapENS_6vectorES7_bxydS5_NS9_14adl_serializerENSC_IhNS5_IhEEEEvEEEENS_19__map_value_compareIS7_SH_NS_4lessIvEELb1EEENS5_ISH_EEEC2ERKSL_, symObjAddr: 0xE76C, symBinAddr: 0x10000FCE4, symSize: 0x7C }
  - { offsetInCU: 0x3F558, offset: 0x3F558, size: 0x8, addend: 0x0, symName: __ZNSt3__117__compressed_pairINS_15__tree_end_nodeIPNS_16__tree_node_baseIPvEEEENS_9allocatorINS_11__tree_nodeINS_12__value_typeINS_12basic_stringIcNS_11char_traitsIcEENS7_IcEEEEN8nlohmann16json_abi_v3_11_310basic_jsonINS_3mapENS_6vectorESE_bxydS7_NSG_14adl_serializerENSJ_IhNS7_IhEEEEvEEEES3_EEEEEC1B8ue170006ILb1EvEEv, symObjAddr: 0xE7E8, symBinAddr: 0x10000FD60, symSize: 0x2C }
  - { offsetInCU: 0x3F58D, offset: 0x3F58D, size: 0x8, addend: 0x0, symName: __ZNSt3__117__compressed_pairImNS_19__map_value_compareINS_12basic_stringIcNS_11char_traitsIcEENS_9allocatorIcEEEENS_12__value_typeIS7_N8nlohmann16json_abi_v3_11_310basic_jsonINS_3mapENS_6vectorES7_bxydS5_NSA_14adl_serializerENSD_IhNS5_IhEEEEvEEEENS_4lessIvEELb1EEEEC1B8ue170006IiRKSL_EEOT_OT0_, symObjAddr: 0xE814, symBinAddr: 0x10000FD8C, symSize: 0x3C }
  - { offsetInCU: 0x3F5E5, offset: 0x3F5E5, size: 0x8, addend: 0x0, symName: __ZNSt3__117__compressed_pairINS_15__tree_end_nodeIPNS_16__tree_node_baseIPvEEEENS_9allocatorINS_11__tree_nodeINS_12__value_typeINS_12basic_stringIcNS_11char_traitsIcEENS7_IcEEEEN8nlohmann16json_abi_v3_11_310basic_jsonINS_3mapENS_6vectorESE_bxydS7_NSG_14adl_serializerENSJ_IhNS7_IhEEEEvEEEES3_EEEEEC2B8ue170006ILb1EvEEv, symObjAddr: 0xE850, symBinAddr: 0x10000FDC8, symSize: 0x34 }
  - { offsetInCU: 0x3F61A, offset: 0x3F61A, size: 0x8, addend: 0x0, symName: __ZNSt3__122__compressed_pair_elemINS_15__tree_end_nodeIPNS_16__tree_node_baseIPvEEEELi0ELb0EEC2B8ue170006ENS_16__value_init_tagE, symObjAddr: 0xE884, symBinAddr: 0x10000FDFC, symSize: 0x2C }
  - { offsetInCU: 0x3F64F, offset: 0x3F64F, size: 0x8, addend: 0x0, symName: __ZNSt3__122__compressed_pair_elemINS_9allocatorINS_11__tree_nodeINS_12__value_typeINS_12basic_stringIcNS_11char_traitsIcEENS1_IcEEEEN8nlohmann16json_abi_v3_11_310basic_jsonINS_3mapENS_6vectorES8_bxydS1_NSA_14adl_serializerENSD_IhNS1_IhEEEEvEEEEPvEEEELi1ELb1EEC2B8ue170006ENS_16__value_init_tagE, symObjAddr: 0xE8B0, symBinAddr: 0x10000FE28, symSize: 0x2C }
  - { offsetInCU: 0x3F684, offset: 0x3F684, size: 0x8, addend: 0x0, symName: __ZNSt3__115__tree_end_nodeIPNS_16__tree_node_baseIPvEEEC1B8ue170006Ev, symObjAddr: 0xE8DC, symBinAddr: 0x10000FE54, symSize: 0x2C }
  - { offsetInCU: 0x3F6AE, offset: 0x3F6AE, size: 0x8, addend: 0x0, symName: __ZNSt3__115__tree_end_nodeIPNS_16__tree_node_baseIPvEEEC2B8ue170006Ev, symObjAddr: 0xE908, symBinAddr: 0x10000FE80, symSize: 0x18 }
  - { offsetInCU: 0x3F6D8, offset: 0x3F6D8, size: 0x8, addend: 0x0, symName: __ZNSt3__19allocatorINS_11__tree_nodeINS_12__value_typeINS_12basic_stringIcNS_11char_traitsIcEENS0_IcEEEEN8nlohmann16json_abi_v3_11_310basic_jsonINS_3mapENS_6vectorES7_bxydS0_NS9_14adl_serializerENSC_IhNS0_IhEEEEvEEEEPvEEEC2B8ue170006Ev, symObjAddr: 0xE920, symBinAddr: 0x10000FE98, symSize: 0x2C }
  - { offsetInCU: 0x3F702, offset: 0x3F702, size: 0x8, addend: 0x0, symName: __ZNSt3__116__non_trivial_ifILb1ENS_9allocatorINS_11__tree_nodeINS_12__value_typeINS_12basic_stringIcNS_11char_traitsIcEENS1_IcEEEEN8nlohmann16json_abi_v3_11_310basic_jsonINS_3mapENS_6vectorES8_bxydS1_NSA_14adl_serializerENSD_IhNS1_IhEEEEvEEEEPvEEEEEC2B8ue170006Ev, symObjAddr: 0xE94C, symBinAddr: 0x10000FEC4, symSize: 0x14 }
  - { offsetInCU: 0x3F72C, offset: 0x3F72C, size: 0x8, addend: 0x0, symName: __ZNSt3__117__compressed_pairImNS_19__map_value_compareINS_12basic_stringIcNS_11char_traitsIcEENS_9allocatorIcEEEENS_12__value_typeIS7_N8nlohmann16json_abi_v3_11_310basic_jsonINS_3mapENS_6vectorES7_bxydS5_NSA_14adl_serializerENSD_IhNS5_IhEEEEvEEEENS_4lessIvEELb1EEEEC2B8ue170006IiRKSL_EEOT_OT0_, symObjAddr: 0xE960, symBinAddr: 0x10000FED8, symSize: 0x44 }
  - { offsetInCU: 0x3F784, offset: 0x3F784, size: 0x8, addend: 0x0, symName: __ZNSt3__122__compressed_pair_elemINS_19__map_value_compareINS_12basic_stringIcNS_11char_traitsIcEENS_9allocatorIcEEEENS_12__value_typeIS7_N8nlohmann16json_abi_v3_11_310basic_jsonINS_3mapENS_6vectorES7_bxydS5_NSA_14adl_serializerENSD_IhNS5_IhEEEEvEEEENS_4lessIvEELb1EEELi1ELb1EEC2B8ue170006IRKSL_vEEOT_, symObjAddr: 0xE9A4, symBinAddr: 0x10000FF1C, symSize: 0x18 }
  - { offsetInCU: 0x3F7C6, offset: 0x3F7C6, size: 0x8, addend: 0x0, symName: __ZNKSt3__117__compressed_pairIPNS_3mapINS_12basic_stringIcNS_11char_traitsIcEENS_9allocatorIcEEEEN8nlohmann16json_abi_v3_11_310basic_jsonIS1_NS_6vectorES7_bxydS5_NS9_14adl_serializerENSB_IhNS5_IhEEEEvEENS_4lessIvEENS5_INS_4pairIKS7_SF_EEEEEEZNSF_6createISM_JEEEPT_DpOT0_EUlSN_E_E5firstB8ue170006Ev, symObjAddr: 0xE9BC, symBinAddr: 0x10000FF34, symSize: 0x24 }
  - { offsetInCU: 0x3F7EC, offset: 0x3F7EC, size: 0x8, addend: 0x0, symName: __ZNKSt3__122__compressed_pair_elemIPNS_3mapINS_12basic_stringIcNS_11char_traitsIcEENS_9allocatorIcEEEEN8nlohmann16json_abi_v3_11_310basic_jsonIS1_NS_6vectorES7_bxydS5_NS9_14adl_serializerENSB_IhNS5_IhEEEEvEENS_4lessIvEENS5_INS_4pairIKS7_SF_EEEEEELi0ELb0EE5__getB8ue170006Ev, symObjAddr: 0xE9E0, symBinAddr: 0x10000FF58, symSize: 0x14 }
  - { offsetInCU: 0x3F812, offset: 0x3F812, size: 0x8, addend: 0x0, symName: __ZNKSt3__110unique_ptrINS_3mapINS_12basic_stringIcNS_11char_traitsIcEENS_9allocatorIcEEEEN8nlohmann16json_abi_v3_11_310basic_jsonIS1_NS_6vectorES7_bxydS5_NS9_14adl_serializerENSB_IhNS5_IhEEEEvEENS_4lessIvEENS5_INS_4pairIKS7_SF_EEEEEEZNSF_6createISM_JEEEPT_DpOT0_EUlPSM_E_EcvbB8ue170006Ev, symObjAddr: 0xE9F4, symBinAddr: 0x10000FF6C, symSize: 0x34 }
  - { offsetInCU: 0x3F838, offset: 0x3F838, size: 0x8, addend: 0x0, symName: __ZNSt3__117__compressed_pairIPNS_3mapINS_12basic_stringIcNS_11char_traitsIcEENS_9allocatorIcEEEEN8nlohmann16json_abi_v3_11_310basic_jsonIS1_NS_6vectorES7_bxydS5_NS9_14adl_serializerENSB_IhNS5_IhEEEEvEENS_4lessIvEENS5_INS_4pairIKS7_SF_EEEEEEZNSF_6createISM_JEEEPT_DpOT0_EUlSN_E_E5firstB8ue170006Ev, symObjAddr: 0xEA28, symBinAddr: 0x10000FFA0, symSize: 0x24 }
  - { offsetInCU: 0x3F85E, offset: 0x3F85E, size: 0x8, addend: 0x0, symName: __ZNSt3__122__compressed_pair_elemIPNS_3mapINS_12basic_stringIcNS_11char_traitsIcEENS_9allocatorIcEEEEN8nlohmann16json_abi_v3_11_310basic_jsonIS1_NS_6vectorES7_bxydS5_NS9_14adl_serializerENSB_IhNS5_IhEEEEvEENS_4lessIvEENS5_INS_4pairIKS7_SF_EEEEEELi0ELb0EE5__getB8ue170006Ev, symObjAddr: 0xEA4C, symBinAddr: 0x10000FFC4, symSize: 0x14 }
  - { offsetInCU: 0x3F884, offset: 0x3F884, size: 0x8, addend: 0x0, symName: __ZNSt3__110unique_ptrINS_3mapINS_12basic_stringIcNS_11char_traitsIcEENS_9allocatorIcEEEEN8nlohmann16json_abi_v3_11_310basic_jsonIS1_NS_6vectorES7_bxydS5_NS9_14adl_serializerENSB_IhNS5_IhEEEEvEENS_4lessIvEENS5_INS_4pairIKS7_SF_EEEEEEZNSF_6createISM_JEEEPT_DpOT0_EUlPSM_E_ED2B8ue170006Ev, symObjAddr: 0xEA60, symBinAddr: 0x10000FFD8, symSize: 0x30 }
  - { offsetInCU: 0x3F8AE, offset: 0x3F8AE, size: 0x8, addend: 0x0, symName: __ZNSt3__110unique_ptrINS_3mapINS_12basic_stringIcNS_11char_traitsIcEENS_9allocatorIcEEEEN8nlohmann16json_abi_v3_11_310basic_jsonIS1_NS_6vectorES7_bxydS5_NS9_14adl_serializerENSB_IhNS5_IhEEEEvEENS_4lessIvEENS5_INS_4pairIKS7_SF_EEEEEEZNSF_6createISM_JEEEPT_DpOT0_EUlPSM_E_E5resetB8ue170006EST_, symObjAddr: 0xEA90, symBinAddr: 0x100010008, symSize: 0x80 }
  - { offsetInCU: 0x3F8F2, offset: 0x3F8F2, size: 0x8, addend: 0x0, symName: __ZNSt3__117__compressed_pairIPNS_3mapINS_12basic_stringIcNS_11char_traitsIcEENS_9allocatorIcEEEEN8nlohmann16json_abi_v3_11_310basic_jsonIS1_NS_6vectorES7_bxydS5_NS9_14adl_serializerENSB_IhNS5_IhEEEEvEENS_4lessIvEENS5_INS_4pairIKS7_SF_EEEEEEZNSF_6createISM_JEEEPT_DpOT0_EUlSN_E_E6secondB8ue170006Ev, symObjAddr: 0xEB10, symBinAddr: 0x100010088, symSize: 0x28 }
  - { offsetInCU: 0x3F91E, offset: 0x3F91E, size: 0x8, addend: 0x0, symName: __ZZN8nlohmann16json_abi_v3_11_310basic_jsonINSt3__13mapENS2_6vectorENS2_12basic_stringIcNS2_11char_traitsIcEENS2_9allocatorIcEEEEbxydS8_NS0_14adl_serializerENS4_IhNS8_IhEEEEvE6createINS3_ISA_SE_NS2_4lessIvEENS8_INS2_4pairIKSA_SE_EEEEEEJEEEPT_DpOT0_ENKUlPSM_E_clESS_, symObjAddr: 0xEB38, symBinAddr: 0x1000100B0, symSize: 0x34 }
  - { offsetInCU: 0x3F957, offset: 0x3F957, size: 0x8, addend: 0x0, symName: __ZNSt3__122__compressed_pair_elemIZN8nlohmann16json_abi_v3_11_310basic_jsonINS_3mapENS_6vectorENS_12basic_stringIcNS_11char_traitsIcEENS_9allocatorIcEEEEbxydS9_NS2_14adl_serializerENS5_IhNS9_IhEEEEvE6createINS4_ISB_SF_NS_4lessIvEENS9_INS_4pairIKSB_SF_EEEEEEJEEEPT_DpOT0_EUlPSN_E_Li1ELb0EE5__getB8ue170006Ev, symObjAddr: 0xEB6C, symBinAddr: 0x1000100E4, symSize: 0x14 }
  - { offsetInCU: 0x3F97D, offset: 0x3F97D, size: 0x8, addend: 0x0, symName: __ZNSt3__116allocator_traitsINS_9allocatorINS_6vectorIN8nlohmann16json_abi_v3_11_310basic_jsonINS_3mapES2_NS_12basic_stringIcNS_11char_traitsIcEENS1_IcEEEEbxydS1_NS4_14adl_serializerENS2_IhNS1_IhEEEEvEENS1_ISF_EEEEEEE8allocateB8ue170006ERSI_m, symObjAddr: 0xEB80, symBinAddr: 0x1000100F8, symSize: 0x2C }
  - { offsetInCU: 0x3FA51, offset: 0x3FA51, size: 0x8, addend: 0x0, symName: __ZNSt3__110unique_ptrINS_6vectorIN8nlohmann16json_abi_v3_11_310basic_jsonINS_3mapES1_NS_12basic_stringIcNS_11char_traitsIcEENS_9allocatorIcEEEEbxydS9_NS3_14adl_serializerENS1_IhNS9_IhEEEEvEENS9_ISF_EEEEZNSF_6createISH_JEEEPT_DpOT0_EUlPSH_E_EC1B8ue170006ILb1EvEESO_NS_16__dependent_typeINS_27__unique_ptr_deleter_sfinaeISP_EEXT_EE15__lval_ref_typeE, symObjAddr: 0xEBAC, symBinAddr: 0x100010124, symSize: 0x3C }
  - { offsetInCU: 0x3FAA2, offset: 0x3FAA2, size: 0x8, addend: 0x0, symName: __ZNSt3__116allocator_traitsINS_9allocatorINS_6vectorIN8nlohmann16json_abi_v3_11_310basic_jsonINS_3mapES2_NS_12basic_stringIcNS_11char_traitsIcEENS1_IcEEEEbxydS1_NS4_14adl_serializerENS2_IhNS1_IhEEEEvEENS1_ISF_EEEEEEE9constructB8ue170006ISH_JEvvEEvRSI_PT_DpOT0_, symObjAddr: 0xEBE8, symBinAddr: 0x100010160, symSize: 0x28 }
  - { offsetInCU: 0x3FAE1, offset: 0x3FAE1, size: 0x8, addend: 0x0, symName: __ZNKSt3__110unique_ptrINS_6vectorIN8nlohmann16json_abi_v3_11_310basic_jsonINS_3mapES1_NS_12basic_stringIcNS_11char_traitsIcEENS_9allocatorIcEEEEbxydS9_NS3_14adl_serializerENS1_IhNS9_IhEEEEvEENS9_ISF_EEEEZNSF_6createISH_JEEEPT_DpOT0_EUlPSH_E_E3getB8ue170006Ev, symObjAddr: 0xEC10, symBinAddr: 0x100010188, symSize: 0x28 }
  - { offsetInCU: 0x3FB07, offset: 0x3FB07, size: 0x8, addend: 0x0, symName: __ZNSt3__110unique_ptrINS_6vectorIN8nlohmann16json_abi_v3_11_310basic_jsonINS_3mapES1_NS_12basic_stringIcNS_11char_traitsIcEENS_9allocatorIcEEEEbxydS9_NS3_14adl_serializerENS1_IhNS9_IhEEEEvEENS9_ISF_EEEEZNSF_6createISH_JEEEPT_DpOT0_EUlPSH_E_E7releaseB8ue170006Ev, symObjAddr: 0xEC68, symBinAddr: 0x1000101E0, symSize: 0x44 }
  - { offsetInCU: 0x3FB3C, offset: 0x3FB3C, size: 0x8, addend: 0x0, symName: __ZNSt3__110unique_ptrINS_6vectorIN8nlohmann16json_abi_v3_11_310basic_jsonINS_3mapES1_NS_12basic_stringIcNS_11char_traitsIcEENS_9allocatorIcEEEEbxydS9_NS3_14adl_serializerENS1_IhNS9_IhEEEEvEENS9_ISF_EEEEZNSF_6createISH_JEEEPT_DpOT0_EUlPSH_E_ED1B8ue170006Ev, symObjAddr: 0xECAC, symBinAddr: 0x100010224, symSize: 0x2C }
  - { offsetInCU: 0x3FB66, offset: 0x3FB66, size: 0x8, addend: 0x0, symName: __ZNSt3__19allocatorINS_6vectorIN8nlohmann16json_abi_v3_11_310basic_jsonINS_3mapES1_NS_12basic_stringIcNS_11char_traitsIcEENS0_IcEEEEbxydS0_NS3_14adl_serializerENS1_IhNS0_IhEEEEvEENS0_ISE_EEEEE8allocateB8ue170006Em, symObjAddr: 0xECD8, symBinAddr: 0x100010250, symSize: 0x5C }
  - { offsetInCU: 0x3FBA5, offset: 0x3FBA5, size: 0x8, addend: 0x0, symName: __ZNSt3__116allocator_traitsINS_9allocatorINS_6vectorIN8nlohmann16json_abi_v3_11_310basic_jsonINS_3mapES2_NS_12basic_stringIcNS_11char_traitsIcEENS1_IcEEEEbxydS1_NS4_14adl_serializerENS2_IhNS1_IhEEEEvEENS1_ISF_EEEEEEE8max_sizeB8ue170006ISI_vvEEmRKSI_, symObjAddr: 0xED34, symBinAddr: 0x1000102AC, symSize: 0x28 }
  - { offsetInCU: 0x3FBD0, offset: 0x3FBD0, size: 0x8, addend: 0x0, symName: __ZNSt3__110unique_ptrINS_6vectorIN8nlohmann16json_abi_v3_11_310basic_jsonINS_3mapES1_NS_12basic_stringIcNS_11char_traitsIcEENS_9allocatorIcEEEEbxydS9_NS3_14adl_serializerENS1_IhNS9_IhEEEEvEENS9_ISF_EEEEZNSF_6createISH_JEEEPT_DpOT0_EUlPSH_E_EC2B8ue170006ILb1EvEESO_NS_16__dependent_typeINS_27__unique_ptr_deleter_sfinaeISP_EEXT_EE15__lval_ref_typeE, symObjAddr: 0xED5C, symBinAddr: 0x1000102D4, symSize: 0x48 }
  - { offsetInCU: 0x3FC21, offset: 0x3FC21, size: 0x8, addend: 0x0, symName: __ZNSt3__117__compressed_pairIPNS_6vectorIN8nlohmann16json_abi_v3_11_310basic_jsonINS_3mapES1_NS_12basic_stringIcNS_11char_traitsIcEENS_9allocatorIcEEEEbxydS9_NS3_14adl_serializerENS1_IhNS9_IhEEEEvEENS9_ISF_EEEEZNSF_6createISH_JEEEPT_DpOT0_EUlSI_E_EC1B8ue170006IRSI_RKSP_EEOSK_OT0_, symObjAddr: 0xEDA4, symBinAddr: 0x10001031C, symSize: 0x3C }
  - { offsetInCU: 0x3FC79, offset: 0x3FC79, size: 0x8, addend: 0x0, symName: __ZNSt3__117__compressed_pairIPNS_6vectorIN8nlohmann16json_abi_v3_11_310basic_jsonINS_3mapES1_NS_12basic_stringIcNS_11char_traitsIcEENS_9allocatorIcEEEEbxydS9_NS3_14adl_serializerENS1_IhNS9_IhEEEEvEENS9_ISF_EEEEZNSF_6createISH_JEEEPT_DpOT0_EUlSI_E_EC2B8ue170006IRSI_RKSP_EEOSK_OT0_, symObjAddr: 0xEDE0, symBinAddr: 0x100010358, symSize: 0x48 }
  - { offsetInCU: 0x3FCD1, offset: 0x3FCD1, size: 0x8, addend: 0x0, symName: __ZNSt3__122__compressed_pair_elemIPNS_6vectorIN8nlohmann16json_abi_v3_11_310basic_jsonINS_3mapES1_NS_12basic_stringIcNS_11char_traitsIcEENS_9allocatorIcEEEEbxydS9_NS3_14adl_serializerENS1_IhNS9_IhEEEEvEENS9_ISF_EEEELi0ELb0EEC2B8ue170006IRSI_vEEOT_, symObjAddr: 0xEE28, symBinAddr: 0x1000103A0, symSize: 0x24 }
  - { offsetInCU: 0x3FD13, offset: 0x3FD13, size: 0x8, addend: 0x0, symName: __ZNSt3__122__compressed_pair_elemIZN8nlohmann16json_abi_v3_11_310basic_jsonINS_3mapENS_6vectorENS_12basic_stringIcNS_11char_traitsIcEENS_9allocatorIcEEEEbxydS9_NS2_14adl_serializerENS5_IhNS9_IhEEEEvE6createINS5_ISF_NS9_ISF_EEEEJEEEPT_DpOT0_EUlPSI_E_Li1ELb0EEC2B8ue170006IRKSP_vEEOSJ_, symObjAddr: 0xEE4C, symBinAddr: 0x1000103C4, symSize: 0x24 }
  - { offsetInCU: 0x3FD55, offset: 0x3FD55, size: 0x8, addend: 0x0, symName: __ZNKSt3__117__compressed_pairIPNS_6vectorIN8nlohmann16json_abi_v3_11_310basic_jsonINS_3mapES1_NS_12basic_stringIcNS_11char_traitsIcEENS_9allocatorIcEEEEbxydS9_NS3_14adl_serializerENS1_IhNS9_IhEEEEvEENS9_ISF_EEEEZNSF_6createISH_JEEEPT_DpOT0_EUlSI_E_E5firstB8ue170006Ev, symObjAddr: 0xEEA4, symBinAddr: 0x10001041C, symSize: 0x24 }
  - { offsetInCU: 0x3FD7B, offset: 0x3FD7B, size: 0x8, addend: 0x0, symName: __ZNKSt3__122__compressed_pair_elemIPNS_6vectorIN8nlohmann16json_abi_v3_11_310basic_jsonINS_3mapES1_NS_12basic_stringIcNS_11char_traitsIcEENS_9allocatorIcEEEEbxydS9_NS3_14adl_serializerENS1_IhNS9_IhEEEEvEENS9_ISF_EEEELi0ELb0EE5__getB8ue170006Ev, symObjAddr: 0xEEC8, symBinAddr: 0x100010440, symSize: 0x14 }
  - { offsetInCU: 0x3FDA1, offset: 0x3FDA1, size: 0x8, addend: 0x0, symName: __ZNKSt3__110unique_ptrINS_6vectorIN8nlohmann16json_abi_v3_11_310basic_jsonINS_3mapES1_NS_12basic_stringIcNS_11char_traitsIcEENS_9allocatorIcEEEEbxydS9_NS3_14adl_serializerENS1_IhNS9_IhEEEEvEENS9_ISF_EEEEZNSF_6createISH_JEEEPT_DpOT0_EUlPSH_E_EcvbB8ue170006Ev, symObjAddr: 0xEEDC, symBinAddr: 0x100010454, symSize: 0x34 }
  - { offsetInCU: 0x3FDC7, offset: 0x3FDC7, size: 0x8, addend: 0x0, symName: __ZNSt3__117__compressed_pairIPNS_6vectorIN8nlohmann16json_abi_v3_11_310basic_jsonINS_3mapES1_NS_12basic_stringIcNS_11char_traitsIcEENS_9allocatorIcEEEEbxydS9_NS3_14adl_serializerENS1_IhNS9_IhEEEEvEENS9_ISF_EEEEZNSF_6createISH_JEEEPT_DpOT0_EUlSI_E_E5firstB8ue170006Ev, symObjAddr: 0xEF10, symBinAddr: 0x100010488, symSize: 0x24 }
  - { offsetInCU: 0x3FDED, offset: 0x3FDED, size: 0x8, addend: 0x0, symName: __ZNSt3__122__compressed_pair_elemIPNS_6vectorIN8nlohmann16json_abi_v3_11_310basic_jsonINS_3mapES1_NS_12basic_stringIcNS_11char_traitsIcEENS_9allocatorIcEEEEbxydS9_NS3_14adl_serializerENS1_IhNS9_IhEEEEvEENS9_ISF_EEEELi0ELb0EE5__getB8ue170006Ev, symObjAddr: 0xEF34, symBinAddr: 0x1000104AC, symSize: 0x14 }
  - { offsetInCU: 0x3FE13, offset: 0x3FE13, size: 0x8, addend: 0x0, symName: __ZNSt3__110unique_ptrINS_6vectorIN8nlohmann16json_abi_v3_11_310basic_jsonINS_3mapES1_NS_12basic_stringIcNS_11char_traitsIcEENS_9allocatorIcEEEEbxydS9_NS3_14adl_serializerENS1_IhNS9_IhEEEEvEENS9_ISF_EEEEZNSF_6createISH_JEEEPT_DpOT0_EUlPSH_E_ED2B8ue170006Ev, symObjAddr: 0xEF48, symBinAddr: 0x1000104C0, symSize: 0x30 }
  - { offsetInCU: 0x3FE3D, offset: 0x3FE3D, size: 0x8, addend: 0x0, symName: __ZNSt3__110unique_ptrINS_6vectorIN8nlohmann16json_abi_v3_11_310basic_jsonINS_3mapES1_NS_12basic_stringIcNS_11char_traitsIcEENS_9allocatorIcEEEEbxydS9_NS3_14adl_serializerENS1_IhNS9_IhEEEEvEENS9_ISF_EEEEZNSF_6createISH_JEEEPT_DpOT0_EUlPSH_E_E5resetB8ue170006ESO_, symObjAddr: 0xEF78, symBinAddr: 0x1000104F0, symSize: 0x80 }
  - { offsetInCU: 0x3FE81, offset: 0x3FE81, size: 0x8, addend: 0x0, symName: __ZNSt3__117__compressed_pairIPNS_6vectorIN8nlohmann16json_abi_v3_11_310basic_jsonINS_3mapES1_NS_12basic_stringIcNS_11char_traitsIcEENS_9allocatorIcEEEEbxydS9_NS3_14adl_serializerENS1_IhNS9_IhEEEEvEENS9_ISF_EEEEZNSF_6createISH_JEEEPT_DpOT0_EUlSI_E_E6secondB8ue170006Ev, symObjAddr: 0xEFF8, symBinAddr: 0x100010570, symSize: 0x28 }
  - { offsetInCU: 0x3FEAD, offset: 0x3FEAD, size: 0x8, addend: 0x0, symName: __ZZN8nlohmann16json_abi_v3_11_310basic_jsonINSt3__13mapENS2_6vectorENS2_12basic_stringIcNS2_11char_traitsIcEENS2_9allocatorIcEEEEbxydS8_NS0_14adl_serializerENS4_IhNS8_IhEEEEvE6createINS4_ISE_NS8_ISE_EEEEJEEEPT_DpOT0_ENKUlPSH_E_clESN_, symObjAddr: 0xF020, symBinAddr: 0x100010598, symSize: 0x34 }
  - { offsetInCU: 0x3FEE6, offset: 0x3FEE6, size: 0x8, addend: 0x0, symName: __ZNSt3__122__compressed_pair_elemIZN8nlohmann16json_abi_v3_11_310basic_jsonINS_3mapENS_6vectorENS_12basic_stringIcNS_11char_traitsIcEENS_9allocatorIcEEEEbxydS9_NS2_14adl_serializerENS5_IhNS9_IhEEEEvE6createINS5_ISF_NS9_ISF_EEEEJEEEPT_DpOT0_EUlPSI_E_Li1ELb0EE5__getB8ue170006Ev, symObjAddr: 0xF054, symBinAddr: 0x1000105CC, symSize: 0x14 }
  - { offsetInCU: 0x3FF0C, offset: 0x3FF0C, size: 0x8, addend: 0x0, symName: __ZNSt3__116allocator_traitsINS_9allocatorINS_12basic_stringIcNS_11char_traitsIcEENS1_IcEEEEEEE8allocateB8ue170006ERS7_m, symObjAddr: 0xF068, symBinAddr: 0x1000105E0, symSize: 0x2C }
  - { offsetInCU: 0x3FFB2, offset: 0x3FFB2, size: 0x8, addend: 0x0, symName: __ZNSt3__110unique_ptrINS_12basic_stringIcNS_11char_traitsIcEENS_9allocatorIcEEEEZN8nlohmann16json_abi_v3_11_310basic_jsonINS_3mapENS_6vectorES6_bxydS4_NS8_14adl_serializerENSB_IhNS4_IhEEEEvE6createIS6_JRA1_KcEEEPT_DpOT0_EUlPS6_E_EC1B8ue170006ILb1EvEESP_NS_16__dependent_typeINS_27__unique_ptr_deleter_sfinaeISQ_EEXT_EE15__lval_ref_typeE, symObjAddr: 0xF094, symBinAddr: 0x10001060C, symSize: 0x3C }
  - { offsetInCU: 0x40003, offset: 0x40003, size: 0x8, addend: 0x0, symName: __ZNSt3__116allocator_traitsINS_9allocatorINS_12basic_stringIcNS_11char_traitsIcEENS1_IcEEEEEEE9constructB8ue170006IS6_JRA1_KcEvvEEvRS7_PT_DpOT0_, symObjAddr: 0xF0D0, symBinAddr: 0x100010648, symSize: 0x30 }
  - { offsetInCU: 0x40057, offset: 0x40057, size: 0x8, addend: 0x0, symName: __ZNKSt3__110unique_ptrINS_12basic_stringIcNS_11char_traitsIcEENS_9allocatorIcEEEEZN8nlohmann16json_abi_v3_11_310basic_jsonINS_3mapENS_6vectorES6_bxydS4_NS8_14adl_serializerENSB_IhNS4_IhEEEEvE6createIS6_JRA1_KcEEEPT_DpOT0_EUlPS6_E_E3getB8ue170006Ev, symObjAddr: 0xF100, symBinAddr: 0x100010678, symSize: 0x28 }
  - { offsetInCU: 0x4007D, offset: 0x4007D, size: 0x8, addend: 0x0, symName: __ZNSt3__110unique_ptrINS_12basic_stringIcNS_11char_traitsIcEENS_9allocatorIcEEEEZN8nlohmann16json_abi_v3_11_310basic_jsonINS_3mapENS_6vectorES6_bxydS4_NS8_14adl_serializerENSB_IhNS4_IhEEEEvE6createIS6_JRA1_KcEEEPT_DpOT0_EUlPS6_E_E7releaseB8ue170006Ev, symObjAddr: 0xF158, symBinAddr: 0x1000106D0, symSize: 0x44 }
  - { offsetInCU: 0x400B2, offset: 0x400B2, size: 0x8, addend: 0x0, symName: __ZNSt3__110unique_ptrINS_12basic_stringIcNS_11char_traitsIcEENS_9allocatorIcEEEEZN8nlohmann16json_abi_v3_11_310basic_jsonINS_3mapENS_6vectorES6_bxydS4_NS8_14adl_serializerENSB_IhNS4_IhEEEEvE6createIS6_JRA1_KcEEEPT_DpOT0_EUlPS6_E_ED1B8ue170006Ev, symObjAddr: 0xF19C, symBinAddr: 0x100010714, symSize: 0x2C }
  - { offsetInCU: 0x400DC, offset: 0x400DC, size: 0x8, addend: 0x0, symName: __ZNSt3__19allocatorINS_12basic_stringIcNS_11char_traitsIcEENS0_IcEEEEE8allocateB8ue170006Em, symObjAddr: 0xF1C8, symBinAddr: 0x100010740, symSize: 0x5C }
  - { offsetInCU: 0x4011B, offset: 0x4011B, size: 0x8, addend: 0x0, symName: __ZNSt3__116allocator_traitsINS_9allocatorINS_12basic_stringIcNS_11char_traitsIcEENS1_IcEEEEEEE8max_sizeB8ue170006IS7_vvEEmRKS7_, symObjAddr: 0xF224, symBinAddr: 0x10001079C, symSize: 0x28 }
  - { offsetInCU: 0x40146, offset: 0x40146, size: 0x8, addend: 0x0, symName: __ZNSt3__110unique_ptrINS_12basic_stringIcNS_11char_traitsIcEENS_9allocatorIcEEEEZN8nlohmann16json_abi_v3_11_310basic_jsonINS_3mapENS_6vectorES6_bxydS4_NS8_14adl_serializerENSB_IhNS4_IhEEEEvE6createIS6_JRA1_KcEEEPT_DpOT0_EUlPS6_E_EC2B8ue170006ILb1EvEESP_NS_16__dependent_typeINS_27__unique_ptr_deleter_sfinaeISQ_EEXT_EE15__lval_ref_typeE, symObjAddr: 0xF24C, symBinAddr: 0x1000107C4, symSize: 0x48 }
  - { offsetInCU: 0x4019D, offset: 0x4019D, size: 0x8, addend: 0x0, symName: __ZNSt3__117__compressed_pairIPNS_12basic_stringIcNS_11char_traitsIcEENS_9allocatorIcEEEEZN8nlohmann16json_abi_v3_11_310basic_jsonINS_3mapENS_6vectorES6_bxydS4_NS9_14adl_serializerENSC_IhNS4_IhEEEEvE6createIS6_JRA1_KcEEEPT_DpOT0_EUlS7_E_EC1B8ue170006IRS7_RKSQ_EEOSL_OT0_, symObjAddr: 0xF294, symBinAddr: 0x10001080C, symSize: 0x3C }
  - { offsetInCU: 0x401F5, offset: 0x401F5, size: 0x8, addend: 0x0, symName: __ZNSt3__117__compressed_pairIPNS_12basic_stringIcNS_11char_traitsIcEENS_9allocatorIcEEEEZN8nlohmann16json_abi_v3_11_310basic_jsonINS_3mapENS_6vectorES6_bxydS4_NS9_14adl_serializerENSC_IhNS4_IhEEEEvE6createIS6_JRA1_KcEEEPT_DpOT0_EUlS7_E_EC2B8ue170006IRS7_RKSQ_EEOSL_OT0_, symObjAddr: 0xF2D0, symBinAddr: 0x100010848, symSize: 0x48 }
  - { offsetInCU: 0x4024D, offset: 0x4024D, size: 0x8, addend: 0x0, symName: __ZNSt3__122__compressed_pair_elemIPNS_12basic_stringIcNS_11char_traitsIcEENS_9allocatorIcEEEELi0ELb0EEC2B8ue170006IRS7_vEEOT_, symObjAddr: 0xF318, symBinAddr: 0x100010890, symSize: 0x24 }
  - { offsetInCU: 0x4028F, offset: 0x4028F, size: 0x8, addend: 0x0, symName: __ZNSt3__122__compressed_pair_elemIZN8nlohmann16json_abi_v3_11_310basic_jsonINS_3mapENS_6vectorENS_12basic_stringIcNS_11char_traitsIcEENS_9allocatorIcEEEEbxydS9_NS2_14adl_serializerENS5_IhNS9_IhEEEEvE6createISB_JRA1_KcEEEPT_DpOT0_EUlPSB_E_Li1ELb0EEC2B8ue170006IRKSQ_vEEOSK_, symObjAddr: 0xF33C, symBinAddr: 0x1000108B4, symSize: 0x24 }
  - { offsetInCU: 0x402D1, offset: 0x402D1, size: 0x8, addend: 0x0, symName: __ZNKSt3__117__compressed_pairIPNS_12basic_stringIcNS_11char_traitsIcEENS_9allocatorIcEEEEZN8nlohmann16json_abi_v3_11_310basic_jsonINS_3mapENS_6vectorES6_bxydS4_NS9_14adl_serializerENSC_IhNS4_IhEEEEvE6createIS6_JRA1_KcEEEPT_DpOT0_EUlS7_E_E5firstB8ue170006Ev, symObjAddr: 0xF39C, symBinAddr: 0x100010914, symSize: 0x24 }
  - { offsetInCU: 0x402F7, offset: 0x402F7, size: 0x8, addend: 0x0, symName: __ZNKSt3__122__compressed_pair_elemIPNS_12basic_stringIcNS_11char_traitsIcEENS_9allocatorIcEEEELi0ELb0EE5__getB8ue170006Ev, symObjAddr: 0xF3C0, symBinAddr: 0x100010938, symSize: 0x14 }
  - { offsetInCU: 0x4031D, offset: 0x4031D, size: 0x8, addend: 0x0, symName: __ZNKSt3__110unique_ptrINS_12basic_stringIcNS_11char_traitsIcEENS_9allocatorIcEEEEZN8nlohmann16json_abi_v3_11_310basic_jsonINS_3mapENS_6vectorES6_bxydS4_NS8_14adl_serializerENSB_IhNS4_IhEEEEvE6createIS6_JRA1_KcEEEPT_DpOT0_EUlPS6_E_EcvbB8ue170006Ev, symObjAddr: 0xF3D4, symBinAddr: 0x10001094C, symSize: 0x34 }
  - { offsetInCU: 0x40343, offset: 0x40343, size: 0x8, addend: 0x0, symName: __ZNSt3__117__compressed_pairIPNS_12basic_stringIcNS_11char_traitsIcEENS_9allocatorIcEEEEZN8nlohmann16json_abi_v3_11_310basic_jsonINS_3mapENS_6vectorES6_bxydS4_NS9_14adl_serializerENSC_IhNS4_IhEEEEvE6createIS6_JRA1_KcEEEPT_DpOT0_EUlS7_E_E5firstB8ue170006Ev, symObjAddr: 0xF408, symBinAddr: 0x100010980, symSize: 0x24 }
  - { offsetInCU: 0x40369, offset: 0x40369, size: 0x8, addend: 0x0, symName: __ZNSt3__122__compressed_pair_elemIPNS_12basic_stringIcNS_11char_traitsIcEENS_9allocatorIcEEEELi0ELb0EE5__getB8ue170006Ev, symObjAddr: 0xF42C, symBinAddr: 0x1000109A4, symSize: 0x14 }
  - { offsetInCU: 0x4038F, offset: 0x4038F, size: 0x8, addend: 0x0, symName: __ZNSt3__110unique_ptrINS_12basic_stringIcNS_11char_traitsIcEENS_9allocatorIcEEEEZN8nlohmann16json_abi_v3_11_310basic_jsonINS_3mapENS_6vectorES6_bxydS4_NS8_14adl_serializerENSB_IhNS4_IhEEEEvE6createIS6_JRA1_KcEEEPT_DpOT0_EUlPS6_E_ED2B8ue170006Ev, symObjAddr: 0xF440, symBinAddr: 0x1000109B8, symSize: 0x30 }
  - { offsetInCU: 0x403B9, offset: 0x403B9, size: 0x8, addend: 0x0, symName: __ZNSt3__110unique_ptrINS_12basic_stringIcNS_11char_traitsIcEENS_9allocatorIcEEEEZN8nlohmann16json_abi_v3_11_310basic_jsonINS_3mapENS_6vectorES6_bxydS4_NS8_14adl_serializerENSB_IhNS4_IhEEEEvE6createIS6_JRA1_KcEEEPT_DpOT0_EUlPS6_E_E5resetB8ue170006ESP_, symObjAddr: 0xF470, symBinAddr: 0x1000109E8, symSize: 0x80 }
  - { offsetInCU: 0x403FD, offset: 0x403FD, size: 0x8, addend: 0x0, symName: __ZNSt3__117__compressed_pairIPNS_12basic_stringIcNS_11char_traitsIcEENS_9allocatorIcEEEEZN8nlohmann16json_abi_v3_11_310basic_jsonINS_3mapENS_6vectorES6_bxydS4_NS9_14adl_serializerENSC_IhNS4_IhEEEEvE6createIS6_JRA1_KcEEEPT_DpOT0_EUlS7_E_E6secondB8ue170006Ev, symObjAddr: 0xF4F0, symBinAddr: 0x100010A68, symSize: 0x28 }
  - { offsetInCU: 0x40429, offset: 0x40429, size: 0x8, addend: 0x0, symName: __ZZN8nlohmann16json_abi_v3_11_310basic_jsonINSt3__13mapENS2_6vectorENS2_12basic_stringIcNS2_11char_traitsIcEENS2_9allocatorIcEEEEbxydS8_NS0_14adl_serializerENS4_IhNS8_IhEEEEvE6createISA_JRA1_KcEEEPT_DpOT0_ENKUlPSA_E_clESO_, symObjAddr: 0xF518, symBinAddr: 0x100010A90, symSize: 0x34 }
  - { offsetInCU: 0x40462, offset: 0x40462, size: 0x8, addend: 0x0, symName: __ZNSt3__122__compressed_pair_elemIZN8nlohmann16json_abi_v3_11_310basic_jsonINS_3mapENS_6vectorENS_12basic_stringIcNS_11char_traitsIcEENS_9allocatorIcEEEEbxydS9_NS2_14adl_serializerENS5_IhNS9_IhEEEEvE6createISB_JRA1_KcEEEPT_DpOT0_EUlPSB_E_Li1ELb0EE5__getB8ue170006Ev, symObjAddr: 0xF54C, symBinAddr: 0x100010AC4, symSize: 0x14 }
  - { offsetInCU: 0x40488, offset: 0x40488, size: 0x8, addend: 0x0, symName: __ZNSt3__116allocator_traitsINS_9allocatorIN8nlohmann16json_abi_v3_11_327byte_container_with_subtypeINS_6vectorIhNS1_IhEEEEEEEEE8allocateB8ue170006ERS9_m, symObjAddr: 0xF560, symBinAddr: 0x100010AD8, symSize: 0x2C }
  - { offsetInCU: 0x40562, offset: 0x40562, size: 0x8, addend: 0x0, symName: __ZNSt3__110unique_ptrIN8nlohmann16json_abi_v3_11_327byte_container_with_subtypeINS_6vectorIhNS_9allocatorIhEEEEEEZNS2_10basic_jsonINS_3mapES4_NS_12basic_stringIcNS_11char_traitsIcEENS5_IcEEEEbxydS5_NS2_14adl_serializerES7_vE6createIS8_JEEEPT_DpOT0_EUlPS8_E_EC1B8ue170006ILb1EvEESO_NS_16__dependent_typeINS_27__unique_ptr_deleter_sfinaeISP_EEXT_EE15__lval_ref_typeE, symObjAddr: 0xF58C, symBinAddr: 0x100010B04, symSize: 0x3C }
  - { offsetInCU: 0x405B3, offset: 0x405B3, size: 0x8, addend: 0x0, symName: __ZNSt3__116allocator_traitsINS_9allocatorIN8nlohmann16json_abi_v3_11_327byte_container_with_subtypeINS_6vectorIhNS1_IhEEEEEEEEE9constructB8ue170006IS8_JEvvEEvRS9_PT_DpOT0_, symObjAddr: 0xF5C8, symBinAddr: 0x100010B40, symSize: 0x28 }
  - { offsetInCU: 0x405F2, offset: 0x405F2, size: 0x8, addend: 0x0, symName: __ZNKSt3__110unique_ptrIN8nlohmann16json_abi_v3_11_327byte_container_with_subtypeINS_6vectorIhNS_9allocatorIhEEEEEEZNS2_10basic_jsonINS_3mapES4_NS_12basic_stringIcNS_11char_traitsIcEENS5_IcEEEEbxydS5_NS2_14adl_serializerES7_vE6createIS8_JEEEPT_DpOT0_EUlPS8_E_E3getB8ue170006Ev, symObjAddr: 0xF5F0, symBinAddr: 0x100010B68, symSize: 0x28 }
  - { offsetInCU: 0x40618, offset: 0x40618, size: 0x8, addend: 0x0, symName: __ZNSt3__110unique_ptrIN8nlohmann16json_abi_v3_11_327byte_container_with_subtypeINS_6vectorIhNS_9allocatorIhEEEEEEZNS2_10basic_jsonINS_3mapES4_NS_12basic_stringIcNS_11char_traitsIcEENS5_IcEEEEbxydS5_NS2_14adl_serializerES7_vE6createIS8_JEEEPT_DpOT0_EUlPS8_E_E7releaseB8ue170006Ev, symObjAddr: 0xF648, symBinAddr: 0x100010BC0, symSize: 0x44 }
  - { offsetInCU: 0x4064D, offset: 0x4064D, size: 0x8, addend: 0x0, symName: __ZNSt3__110unique_ptrIN8nlohmann16json_abi_v3_11_327byte_container_with_subtypeINS_6vectorIhNS_9allocatorIhEEEEEEZNS2_10basic_jsonINS_3mapES4_NS_12basic_stringIcNS_11char_traitsIcEENS5_IcEEEEbxydS5_NS2_14adl_serializerES7_vE6createIS8_JEEEPT_DpOT0_EUlPS8_E_ED1B8ue170006Ev, symObjAddr: 0xF68C, symBinAddr: 0x100010C04, symSize: 0x2C }
  - { offsetInCU: 0x40677, offset: 0x40677, size: 0x8, addend: 0x0, symName: __ZNSt3__19allocatorIN8nlohmann16json_abi_v3_11_327byte_container_with_subtypeINS_6vectorIhNS0_IhEEEEEEE8allocateB8ue170006Em, symObjAddr: 0xF6B8, symBinAddr: 0x100010C30, symSize: 0x5C }
  - { offsetInCU: 0x406B6, offset: 0x406B6, size: 0x8, addend: 0x0, symName: __ZNSt3__116allocator_traitsINS_9allocatorIN8nlohmann16json_abi_v3_11_327byte_container_with_subtypeINS_6vectorIhNS1_IhEEEEEEEEE8max_sizeB8ue170006IS9_vvEEmRKS9_, symObjAddr: 0xF714, symBinAddr: 0x100010C8C, symSize: 0x28 }
  - { offsetInCU: 0x406E1, offset: 0x406E1, size: 0x8, addend: 0x0, symName: __ZNSt3__110unique_ptrIN8nlohmann16json_abi_v3_11_327byte_container_with_subtypeINS_6vectorIhNS_9allocatorIhEEEEEEZNS2_10basic_jsonINS_3mapES4_NS_12basic_stringIcNS_11char_traitsIcEENS5_IcEEEEbxydS5_NS2_14adl_serializerES7_vE6createIS8_JEEEPT_DpOT0_EUlPS8_E_EC2B8ue170006ILb1EvEESO_NS_16__dependent_typeINS_27__unique_ptr_deleter_sfinaeISP_EEXT_EE15__lval_ref_typeE, symObjAddr: 0xF73C, symBinAddr: 0x100010CB4, symSize: 0x48 }
  - { offsetInCU: 0x40732, offset: 0x40732, size: 0x8, addend: 0x0, symName: __ZNSt3__117__compressed_pairIPN8nlohmann16json_abi_v3_11_327byte_container_with_subtypeINS_6vectorIhNS_9allocatorIhEEEEEEZNS2_10basic_jsonINS_3mapES4_NS_12basic_stringIcNS_11char_traitsIcEENS5_IcEEEEbxydS5_NS2_14adl_serializerES7_vE6createIS8_JEEEPT_DpOT0_EUlS9_E_EC1B8ue170006IRS9_RKSP_EEOSK_OT0_, symObjAddr: 0xF784, symBinAddr: 0x100010CFC, symSize: 0x3C }
  - { offsetInCU: 0x4078A, offset: 0x4078A, size: 0x8, addend: 0x0, symName: __ZNSt3__117__compressed_pairIPN8nlohmann16json_abi_v3_11_327byte_container_with_subtypeINS_6vectorIhNS_9allocatorIhEEEEEEZNS2_10basic_jsonINS_3mapES4_NS_12basic_stringIcNS_11char_traitsIcEENS5_IcEEEEbxydS5_NS2_14adl_serializerES7_vE6createIS8_JEEEPT_DpOT0_EUlS9_E_EC2B8ue170006IRS9_RKSP_EEOSK_OT0_, symObjAddr: 0xF7C0, symBinAddr: 0x100010D38, symSize: 0x48 }
  - { offsetInCU: 0x407E2, offset: 0x407E2, size: 0x8, addend: 0x0, symName: __ZNSt3__122__compressed_pair_elemIPN8nlohmann16json_abi_v3_11_327byte_container_with_subtypeINS_6vectorIhNS_9allocatorIhEEEEEELi0ELb0EEC2B8ue170006IRS9_vEEOT_, symObjAddr: 0xF808, symBinAddr: 0x100010D80, symSize: 0x24 }
  - { offsetInCU: 0x40824, offset: 0x40824, size: 0x8, addend: 0x0, symName: __ZNSt3__122__compressed_pair_elemIZN8nlohmann16json_abi_v3_11_310basic_jsonINS_3mapENS_6vectorENS_12basic_stringIcNS_11char_traitsIcEENS_9allocatorIcEEEEbxydS9_NS2_14adl_serializerENS5_IhNS9_IhEEEEvE6createINS2_27byte_container_with_subtypeISE_EEJEEEPT_DpOT0_EUlPSI_E_Li1ELb0EEC2B8ue170006IRKSP_vEEOSJ_, symObjAddr: 0xF82C, symBinAddr: 0x100010DA4, symSize: 0x24 }
  - { offsetInCU: 0x40866, offset: 0x40866, size: 0x8, addend: 0x0, symName: __ZN8nlohmann16json_abi_v3_11_327byte_container_with_subtypeINSt3__16vectorIhNS2_9allocatorIhEEEEEC1Ev, symObjAddr: 0xF884, symBinAddr: 0x100010DFC, symSize: 0x2C }
  - { offsetInCU: 0x40890, offset: 0x40890, size: 0x8, addend: 0x0, symName: __ZN8nlohmann16json_abi_v3_11_327byte_container_with_subtypeINSt3__16vectorIhNS2_9allocatorIhEEEEEC2Ev, symObjAddr: 0xF8B0, symBinAddr: 0x100010E28, symSize: 0x34 }
  - { offsetInCU: 0x408BA, offset: 0x408BA, size: 0x8, addend: 0x0, symName: __ZNSt3__16vectorIhNS_9allocatorIhEEEC2B8ue170006Ev, symObjAddr: 0xF8E4, symBinAddr: 0x100010E5C, symSize: 0x4C }
  - { offsetInCU: 0x408E4, offset: 0x408E4, size: 0x8, addend: 0x0, symName: __ZNSt3__117__compressed_pairIPhNS_9allocatorIhEEEC1B8ue170006IDnNS_18__default_init_tagEEEOT_OT0_, symObjAddr: 0xF930, symBinAddr: 0x100010EA8, symSize: 0x3C }
  - { offsetInCU: 0x4093C, offset: 0x4093C, size: 0x8, addend: 0x0, symName: __ZNSt3__117__compressed_pairIPhNS_9allocatorIhEEEC2B8ue170006IDnNS_18__default_init_tagEEEOT_OT0_, symObjAddr: 0xF96C, symBinAddr: 0x100010EE4, symSize: 0x40 }
  - { offsetInCU: 0x40994, offset: 0x40994, size: 0x8, addend: 0x0, symName: __ZNSt3__122__compressed_pair_elemIPhLi0ELb0EEC2B8ue170006IDnvEEOT_, symObjAddr: 0xF9AC, symBinAddr: 0x100010F24, symSize: 0x1C }
  - { offsetInCU: 0x409D6, offset: 0x409D6, size: 0x8, addend: 0x0, symName: __ZNSt3__122__compressed_pair_elemINS_9allocatorIhEELi1ELb1EEC2B8ue170006ENS_18__default_init_tagE, symObjAddr: 0xF9C8, symBinAddr: 0x100010F40, symSize: 0x2C }
  - { offsetInCU: 0x40A0B, offset: 0x40A0B, size: 0x8, addend: 0x0, symName: __ZNSt3__19allocatorIhEC2B8ue170006Ev, symObjAddr: 0xF9F4, symBinAddr: 0x100010F6C, symSize: 0x2C }
  - { offsetInCU: 0x40A35, offset: 0x40A35, size: 0x8, addend: 0x0, symName: __ZNSt3__116__non_trivial_ifILb1ENS_9allocatorIhEEEC2B8ue170006Ev, symObjAddr: 0xFA20, symBinAddr: 0x100010F98, symSize: 0x14 }
  - { offsetInCU: 0x40A5F, offset: 0x40A5F, size: 0x8, addend: 0x0, symName: __ZNKSt3__117__compressed_pairIPN8nlohmann16json_abi_v3_11_327byte_container_with_subtypeINS_6vectorIhNS_9allocatorIhEEEEEEZNS2_10basic_jsonINS_3mapES4_NS_12basic_stringIcNS_11char_traitsIcEENS5_IcEEEEbxydS5_NS2_14adl_serializerES7_vE6createIS8_JEEEPT_DpOT0_EUlS9_E_E5firstB8ue170006Ev, symObjAddr: 0xFA34, symBinAddr: 0x100010FAC, symSize: 0x24 }
  - { offsetInCU: 0x40A85, offset: 0x40A85, size: 0x8, addend: 0x0, symName: __ZNKSt3__122__compressed_pair_elemIPN8nlohmann16json_abi_v3_11_327byte_container_with_subtypeINS_6vectorIhNS_9allocatorIhEEEEEELi0ELb0EE5__getB8ue170006Ev, symObjAddr: 0xFA58, symBinAddr: 0x100010FD0, symSize: 0x14 }
  - { offsetInCU: 0x40AAB, offset: 0x40AAB, size: 0x8, addend: 0x0, symName: __ZNKSt3__110unique_ptrIN8nlohmann16json_abi_v3_11_327byte_container_with_subtypeINS_6vectorIhNS_9allocatorIhEEEEEEZNS2_10basic_jsonINS_3mapES4_NS_12basic_stringIcNS_11char_traitsIcEENS5_IcEEEEbxydS5_NS2_14adl_serializerES7_vE6createIS8_JEEEPT_DpOT0_EUlPS8_E_EcvbB8ue170006Ev, symObjAddr: 0xFA6C, symBinAddr: 0x100010FE4, symSize: 0x34 }
  - { offsetInCU: 0x40AD1, offset: 0x40AD1, size: 0x8, addend: 0x0, symName: __ZNSt3__117__compressed_pairIPN8nlohmann16json_abi_v3_11_327byte_container_with_subtypeINS_6vectorIhNS_9allocatorIhEEEEEEZNS2_10basic_jsonINS_3mapES4_NS_12basic_stringIcNS_11char_traitsIcEENS5_IcEEEEbxydS5_NS2_14adl_serializerES7_vE6createIS8_JEEEPT_DpOT0_EUlS9_E_E5firstB8ue170006Ev, symObjAddr: 0xFAA0, symBinAddr: 0x100011018, symSize: 0x24 }
  - { offsetInCU: 0x40AF7, offset: 0x40AF7, size: 0x8, addend: 0x0, symName: __ZNSt3__122__compressed_pair_elemIPN8nlohmann16json_abi_v3_11_327byte_container_with_subtypeINS_6vectorIhNS_9allocatorIhEEEEEELi0ELb0EE5__getB8ue170006Ev, symObjAddr: 0xFAC4, symBinAddr: 0x10001103C, symSize: 0x14 }
  - { offsetInCU: 0x40B1D, offset: 0x40B1D, size: 0x8, addend: 0x0, symName: __ZNSt3__110unique_ptrIN8nlohmann16json_abi_v3_11_327byte_container_with_subtypeINS_6vectorIhNS_9allocatorIhEEEEEEZNS2_10basic_jsonINS_3mapES4_NS_12basic_stringIcNS_11char_traitsIcEENS5_IcEEEEbxydS5_NS2_14adl_serializerES7_vE6createIS8_JEEEPT_DpOT0_EUlPS8_E_ED2B8ue170006Ev, symObjAddr: 0xFAD8, symBinAddr: 0x100011050, symSize: 0x30 }
  - { offsetInCU: 0x40B47, offset: 0x40B47, size: 0x8, addend: 0x0, symName: __ZNSt3__110unique_ptrIN8nlohmann16json_abi_v3_11_327byte_container_with_subtypeINS_6vectorIhNS_9allocatorIhEEEEEEZNS2_10basic_jsonINS_3mapES4_NS_12basic_stringIcNS_11char_traitsIcEENS5_IcEEEEbxydS5_NS2_14adl_serializerES7_vE6createIS8_JEEEPT_DpOT0_EUlPS8_E_E5resetB8ue170006ESO_, symObjAddr: 0xFB08, symBinAddr: 0x100011080, symSize: 0x80 }
  - { offsetInCU: 0x40B8B, offset: 0x40B8B, size: 0x8, addend: 0x0, symName: __ZNSt3__117__compressed_pairIPN8nlohmann16json_abi_v3_11_327byte_container_with_subtypeINS_6vectorIhNS_9allocatorIhEEEEEEZNS2_10basic_jsonINS_3mapES4_NS_12basic_stringIcNS_11char_traitsIcEENS5_IcEEEEbxydS5_NS2_14adl_serializerES7_vE6createIS8_JEEEPT_DpOT0_EUlS9_E_E6secondB8ue170006Ev, symObjAddr: 0xFB88, symBinAddr: 0x100011100, symSize: 0x28 }
  - { offsetInCU: 0x40BB7, offset: 0x40BB7, size: 0x8, addend: 0x0, symName: __ZZN8nlohmann16json_abi_v3_11_310basic_jsonINSt3__13mapENS2_6vectorENS2_12basic_stringIcNS2_11char_traitsIcEENS2_9allocatorIcEEEEbxydS8_NS0_14adl_serializerENS4_IhNS8_IhEEEEvE6createINS0_27byte_container_with_subtypeISD_EEJEEEPT_DpOT0_ENKUlPSH_E_clESN_, symObjAddr: 0xFBB0, symBinAddr: 0x100011128, symSize: 0x34 }
  - { offsetInCU: 0x40BF0, offset: 0x40BF0, size: 0x8, addend: 0x0, symName: __ZNSt3__122__compressed_pair_elemIZN8nlohmann16json_abi_v3_11_310basic_jsonINS_3mapENS_6vectorENS_12basic_stringIcNS_11char_traitsIcEENS_9allocatorIcEEEEbxydS9_NS2_14adl_serializerENS5_IhNS9_IhEEEEvE6createINS2_27byte_container_with_subtypeISE_EEJEEEPT_DpOT0_EUlPSI_E_Li1ELb0EE5__getB8ue170006Ev, symObjAddr: 0xFBE4, symBinAddr: 0x10001115C, symSize: 0x14 }
  - { offsetInCU: 0x40C16, offset: 0x40C16, size: 0x8, addend: 0x0, symName: __ZN8nlohmann16json_abi_v3_11_36detail9exception4nameERKNSt3__112basic_stringIcNS3_11char_traitsIcEENS3_9allocatorIcEEEEi, symObjAddr: 0xFCD0, symBinAddr: 0x100011248, symSize: 0xA0 }
  - { offsetInCU: 0x40C49, offset: 0x40C49, size: 0x8, addend: 0x0, symName: __ZN8nlohmann16json_abi_v3_11_36detail9exception11diagnosticsEDn, symObjAddr: 0xFD70, symBinAddr: 0x1000112E8, symSize: 0x3C }
  - { offsetInCU: 0x40C69, offset: 0x40C69, size: 0x8, addend: 0x0, symName: __ZN8nlohmann16json_abi_v3_11_36detail11other_errorC1EiPKc, symObjAddr: 0xFDAC, symBinAddr: 0x100011324, symSize: 0x3C }
  - { offsetInCU: 0x40CB1, offset: 0x40CB1, size: 0x8, addend: 0x0, symName: __ZNSt3__112basic_stringIcNS_11char_traitsIcEENS_9allocatorIcEEEC1B8ue170006Ev, symObjAddr: 0xFDE8, symBinAddr: 0x100011360, symSize: 0x2C }
  - { offsetInCU: 0x40CDB, offset: 0x40CDB, size: 0x8, addend: 0x0, symName: __ZNSt3__112basic_stringIcNS_11char_traitsIcEENS_9allocatorIcEEEC2B8ue170006Ev, symObjAddr: 0xFEA0, symBinAddr: 0x100011418, symSize: 0x48 }
  - { offsetInCU: 0x40D05, offset: 0x40D05, size: 0x8, addend: 0x0, symName: __ZNSt3__112basic_stringIcNS_11char_traitsIcEENS_9allocatorIcEEE14__default_initB8ue170006Ev, symObjAddr: 0xFEE8, symBinAddr: 0x100011460, symSize: 0x40 }
  - { offsetInCU: 0x40D2B, offset: 0x40D2B, size: 0x8, addend: 0x0, symName: __ZNSt3__112basic_stringIcNS_11char_traitsIcEENS_9allocatorIcEEE6appendB8ue170006ERKS5_, symObjAddr: 0xFFA8, symBinAddr: 0x100011520, symSize: 0x4C }
  - { offsetInCU: 0x40D60, offset: 0x40D60, size: 0x8, addend: 0x0, symName: __ZNSt3__112basic_stringIcNS_11char_traitsIcEENS_9allocatorIcEEEpLB8ue170006Ec, symObjAddr: 0x103A4, symBinAddr: 0x10001191C, symSize: 0x34 }
  - { offsetInCU: 0x40D95, offset: 0x40D95, size: 0x8, addend: 0x0, symName: __ZN8nlohmann16json_abi_v3_11_36detail11other_errorC2EiPKc, symObjAddr: 0x10448, symBinAddr: 0x1000119C0, symSize: 0x54 }
  - { offsetInCU: 0x40DDD, offset: 0x40DDD, size: 0x8, addend: 0x0, symName: __ZN8nlohmann16json_abi_v3_11_36detail9exceptionC2EiPKc, symObjAddr: 0x1049C, symBinAddr: 0x100011A14, symSize: 0x8C }
  - { offsetInCU: 0x40E25, offset: 0x40E25, size: 0x8, addend: 0x0, symName: __ZN8nlohmann16json_abi_v3_11_36detail11other_errorD0Ev, symObjAddr: 0x10528, symBinAddr: 0x100011AA0, symSize: 0x30 }
  - { offsetInCU: 0x40E52, offset: 0x40E52, size: 0x8, addend: 0x0, symName: __ZNK8nlohmann16json_abi_v3_11_36detail9exception4whatEv, symObjAddr: 0x10558, symBinAddr: 0x100011AD0, symSize: 0x28 }
  - { offsetInCU: 0x40E78, offset: 0x40E78, size: 0x8, addend: 0x0, symName: __ZNSt9exceptionC2B8ue170006Ev, symObjAddr: 0x10580, symBinAddr: 0x100011AF8, symSize: 0x24 }
  - { offsetInCU: 0x40EA2, offset: 0x40EA2, size: 0x8, addend: 0x0, symName: __ZN8nlohmann16json_abi_v3_11_36detail9exceptionD1Ev, symObjAddr: 0x105A4, symBinAddr: 0x100011B1C, symSize: 0x2C }
  - { offsetInCU: 0x40ECF, offset: 0x40ECF, size: 0x8, addend: 0x0, symName: __ZN8nlohmann16json_abi_v3_11_36detail9exceptionD0Ev, symObjAddr: 0x105D0, symBinAddr: 0x100011B48, symSize: 0x30 }
  - { offsetInCU: 0x40EFC, offset: 0x40EFC, size: 0x8, addend: 0x0, symName: __ZN8nlohmann16json_abi_v3_11_36detail9exceptionD2Ev, symObjAddr: 0x10600, symBinAddr: 0x100011B78, symSize: 0x48 }
  - { offsetInCU: 0x40F29, offset: 0x40F29, size: 0x8, addend: 0x0, symName: __ZN8nlohmann16json_abi_v3_11_36detail11other_errorD2Ev, symObjAddr: 0x10648, symBinAddr: 0x100011BC0, symSize: 0x2C }
  - { offsetInCU: 0x40F66, offset: 0x40F66, size: 0x8, addend: 0x0, symName: __ZN8nlohmann16json_abi_v3_11_310basic_jsonINSt3__13mapENS2_6vectorENS2_12basic_stringIcNS2_11char_traitsIcEENS2_9allocatorIcEEEEbxydS8_NS0_14adl_serializerENS4_IhNS8_IhEEEEvE6parserINS0_6detail20input_stream_adapterEEENSG_6parserISE_T_EESJ_NS2_8functionIFbiNSG_13parse_event_tERSE_EEEbb, symObjAddr: 0x10674, symBinAddr: 0x100011BEC, symSize: 0xD0 }
  - { offsetInCU: 0x40FC2, offset: 0x40FC2, size: 0x8, addend: 0x0, symName: __ZNSt3__18functionIFbiN8nlohmann16json_abi_v3_11_36detail13parse_event_tERNS2_10basic_jsonINS_3mapENS_6vectorENS_12basic_stringIcNS_11char_traitsIcEENS_9allocatorIcEEEEbxydSB_NS2_14adl_serializerENS7_IhNSB_IhEEEEvEEEEC1B8ue170006EDn, symObjAddr: 0x1077C, symBinAddr: 0x100011CF4, symSize: 0x34 }
  - { offsetInCU: 0x40FF7, offset: 0x40FF7, size: 0x8, addend: 0x0, symName: __ZN8nlohmann16json_abi_v3_11_36detail6parserINS0_10basic_jsonINSt3__13mapENS4_6vectorENS4_12basic_stringIcNS4_11char_traitsIcEENS4_9allocatorIcEEEEbxydSA_NS0_14adl_serializerENS6_IhNSA_IhEEEEvEENS1_20input_stream_adapterEE5parseEbRSG_, symObjAddr: 0x107B0, symBinAddr: 0x100011D28, symSize: 0x564 }
  - { offsetInCU: 0x41074, offset: 0x41074, size: 0x8, addend: 0x0, symName: __ZN8nlohmann16json_abi_v3_11_36detail6parserINS0_10basic_jsonINSt3__13mapENS4_6vectorENS4_12basic_stringIcNS4_11char_traitsIcEENS4_9allocatorIcEEEEbxydSA_NS0_14adl_serializerENS6_IhNSA_IhEEEEvEENS1_20input_stream_adapterEED1Ev, symObjAddr: 0x10D14, symBinAddr: 0x10001228C, symSize: 0x2C }
  - { offsetInCU: 0x410A1, offset: 0x410A1, size: 0x8, addend: 0x0, symName: __ZNSt3__18functionIFbiN8nlohmann16json_abi_v3_11_36detail13parse_event_tERNS2_10basic_jsonINS_3mapENS_6vectorENS_12basic_stringIcNS_11char_traitsIcEENS_9allocatorIcEEEEbxydSB_NS2_14adl_serializerENS7_IhNSB_IhEEEEvEEEED1Ev, symObjAddr: 0x10D40, symBinAddr: 0x1000122B8, symSize: 0x2C }
  - { offsetInCU: 0x410CD, offset: 0x410CD, size: 0x8, addend: 0x0, symName: __ZN8nlohmann16json_abi_v3_11_36detail20input_stream_adapterD1Ev, symObjAddr: 0x10D6C, symBinAddr: 0x1000122E4, symSize: 0x2C }
  - { offsetInCU: 0x410F7, offset: 0x410F7, size: 0x8, addend: 0x0, symName: __ZNSt3__18functionIFbiN8nlohmann16json_abi_v3_11_36detail13parse_event_tERNS2_10basic_jsonINS_3mapENS_6vectorENS_12basic_stringIcNS_11char_traitsIcEENS_9allocatorIcEEEEbxydSB_NS2_14adl_serializerENS7_IhNSB_IhEEEEvEEEEC1EOSK_, symObjAddr: 0x10D98, symBinAddr: 0x100012310, symSize: 0x34 }
  - { offsetInCU: 0x41132, offset: 0x41132, size: 0x8, addend: 0x0, symName: __ZN8nlohmann16json_abi_v3_11_36detail6parserINS0_10basic_jsonINSt3__13mapENS4_6vectorENS4_12basic_stringIcNS4_11char_traitsIcEENS4_9allocatorIcEEEEbxydSA_NS0_14adl_serializerENS6_IhNSA_IhEEEEvEENS1_20input_stream_adapterEEC1EOSH_NS4_8functionIFbiNS1_13parse_event_tERSG_EEEbb, symObjAddr: 0x10DCC, symBinAddr: 0x100012344, symSize: 0x60 }
  - { offsetInCU: 0x41199, offset: 0x41199, size: 0x8, addend: 0x0, symName: __ZNSt3__18functionIFbiN8nlohmann16json_abi_v3_11_36detail13parse_event_tERNS2_10basic_jsonINS_3mapENS_6vectorENS_12basic_stringIcNS_11char_traitsIcEENS_9allocatorIcEEEEbxydSB_NS2_14adl_serializerENS7_IhNSB_IhEEEEvEEEEC2EOSK_, symObjAddr: 0x10E2C, symBinAddr: 0x1000123A4, symSize: 0x34 }
  - { offsetInCU: 0x411D4, offset: 0x411D4, size: 0x8, addend: 0x0, symName: __ZNSt3__110__function12__value_funcIFbiN8nlohmann16json_abi_v3_11_36detail13parse_event_tERNS3_10basic_jsonINS_3mapENS_6vectorENS_12basic_stringIcNS_11char_traitsIcEENS_9allocatorIcEEEEbxydSC_NS3_14adl_serializerENS8_IhNSC_IhEEEEvEEEEC1B8ue170006EOSL_, symObjAddr: 0x10E60, symBinAddr: 0x1000123D8, symSize: 0x34 }
  - { offsetInCU: 0x4120D, offset: 0x4120D, size: 0x8, addend: 0x0, symName: __ZNSt3__110__function12__value_funcIFbiN8nlohmann16json_abi_v3_11_36detail13parse_event_tERNS3_10basic_jsonINS_3mapENS_6vectorENS_12basic_stringIcNS_11char_traitsIcEENS_9allocatorIcEEEEbxydSC_NS3_14adl_serializerENS8_IhNSC_IhEEEEvEEEEC2B8ue170006EOSL_, symObjAddr: 0x10E94, symBinAddr: 0x10001240C, symSize: 0xD0 }
  - { offsetInCU: 0x41246, offset: 0x41246, size: 0x8, addend: 0x0, symName: __ZNSt3__110__function12__value_funcIFbiN8nlohmann16json_abi_v3_11_36detail13parse_event_tERNS3_10basic_jsonINS_3mapENS_6vectorENS_12basic_stringIcNS_11char_traitsIcEENS_9allocatorIcEEEEbxydSC_NS3_14adl_serializerENS8_IhNSC_IhEEEEvEEEE9__as_baseB8ue170006EPv, symObjAddr: 0x10F64, symBinAddr: 0x1000124DC, symSize: 0x14 }
  - { offsetInCU: 0x4126A, offset: 0x4126A, size: 0x8, addend: 0x0, symName: __ZN8nlohmann16json_abi_v3_11_36detail6parserINS0_10basic_jsonINSt3__13mapENS4_6vectorENS4_12basic_stringIcNS4_11char_traitsIcEENS4_9allocatorIcEEEEbxydSA_NS0_14adl_serializerENS6_IhNSA_IhEEEEvEENS1_20input_stream_adapterEEC2EOSH_NS4_8functionIFbiNS1_13parse_event_tERSG_EEEbb, symObjAddr: 0x10F78, symBinAddr: 0x1000124F0, symSize: 0xC0 }
  - { offsetInCU: 0x412D1, offset: 0x412D1, size: 0x8, addend: 0x0, symName: __ZNSt3__18functionIFbiN8nlohmann16json_abi_v3_11_36detail13parse_event_tERNS2_10basic_jsonINS_3mapENS_6vectorENS_12basic_stringIcNS_11char_traitsIcEENS_9allocatorIcEEEEbxydSB_NS2_14adl_serializerENS7_IhNSB_IhEEEEvEEEEC1ERKSK_, symObjAddr: 0x11038, symBinAddr: 0x1000125B0, symSize: 0x34 }
  - { offsetInCU: 0x4130C, offset: 0x4130C, size: 0x8, addend: 0x0, symName: __ZN8nlohmann16json_abi_v3_11_36detail5lexerINS0_10basic_jsonINSt3__13mapENS4_6vectorENS4_12basic_stringIcNS4_11char_traitsIcEENS4_9allocatorIcEEEEbxydSA_NS0_14adl_serializerENS6_IhNSA_IhEEEEvEENS1_20input_stream_adapterEEC1EOSH_b, symObjAddr: 0x1106C, symBinAddr: 0x1000125E4, symSize: 0x48 }
  - { offsetInCU: 0x41354, offset: 0x41354, size: 0x8, addend: 0x0, symName: __ZN8nlohmann16json_abi_v3_11_36detail6parserINS0_10basic_jsonINSt3__13mapENS4_6vectorENS4_12basic_stringIcNS4_11char_traitsIcEENS4_9allocatorIcEEEEbxydSA_NS0_14adl_serializerENS6_IhNSA_IhEEEEvEENS1_20input_stream_adapterEE9get_tokenEv, symObjAddr: 0x110B4, symBinAddr: 0x10001262C, symSize: 0x34 }
  - { offsetInCU: 0x4137A, offset: 0x4137A, size: 0x8, addend: 0x0, symName: __ZN8nlohmann16json_abi_v3_11_36detail5lexerINS0_10basic_jsonINSt3__13mapENS4_6vectorENS4_12basic_stringIcNS4_11char_traitsIcEENS4_9allocatorIcEEEEbxydSA_NS0_14adl_serializerENS6_IhNSA_IhEEEEvEENS1_20input_stream_adapterEED1Ev, symObjAddr: 0x110E8, symBinAddr: 0x100012660, symSize: 0x2C }
  - { offsetInCU: 0x413A4, offset: 0x413A4, size: 0x8, addend: 0x0, symName: __ZNSt3__18functionIFbiN8nlohmann16json_abi_v3_11_36detail13parse_event_tERNS2_10basic_jsonINS_3mapENS_6vectorENS_12basic_stringIcNS_11char_traitsIcEENS_9allocatorIcEEEEbxydSB_NS2_14adl_serializerENS7_IhNSB_IhEEEEvEEEEC2ERKSK_, symObjAddr: 0x11114, symBinAddr: 0x10001268C, symSize: 0x34 }
  - { offsetInCU: 0x413DF, offset: 0x413DF, size: 0x8, addend: 0x0, symName: __ZNSt3__110__function12__value_funcIFbiN8nlohmann16json_abi_v3_11_36detail13parse_event_tERNS3_10basic_jsonINS_3mapENS_6vectorENS_12basic_stringIcNS_11char_traitsIcEENS_9allocatorIcEEEEbxydSC_NS3_14adl_serializerENS8_IhNSC_IhEEEEvEEEEC1B8ue170006ERKSL_, symObjAddr: 0x11148, symBinAddr: 0x1000126C0, symSize: 0x34 }
  - { offsetInCU: 0x41418, offset: 0x41418, size: 0x8, addend: 0x0, symName: __ZNSt3__110__function12__value_funcIFbiN8nlohmann16json_abi_v3_11_36detail13parse_event_tERNS3_10basic_jsonINS_3mapENS_6vectorENS_12basic_stringIcNS_11char_traitsIcEENS_9allocatorIcEEEEbxydSC_NS3_14adl_serializerENS8_IhNSC_IhEEEEvEEEEC2B8ue170006ERKSL_, symObjAddr: 0x1117C, symBinAddr: 0x1000126F4, symSize: 0xC0 }
  - { offsetInCU: 0x41451, offset: 0x41451, size: 0x8, addend: 0x0, symName: __ZN8nlohmann16json_abi_v3_11_36detail5lexerINS0_10basic_jsonINSt3__13mapENS4_6vectorENS4_12basic_stringIcNS4_11char_traitsIcEENS4_9allocatorIcEEEEbxydSA_NS0_14adl_serializerENS6_IhNSA_IhEEEEvEENS1_20input_stream_adapterEEC2EOSH_b, symObjAddr: 0x1123C, symBinAddr: 0x1000127B4, symSize: 0xB0 }
  - { offsetInCU: 0x41499, offset: 0x41499, size: 0x8, addend: 0x0, symName: __ZN8nlohmann16json_abi_v3_11_36detail20input_stream_adapterC1EOS2_, symObjAddr: 0x112EC, symBinAddr: 0x100012864, symSize: 0x34 }
  - { offsetInCU: 0x414D2, offset: 0x414D2, size: 0x8, addend: 0x0, symName: __ZNSt3__16vectorIcNS_9allocatorIcEEEC1B8ue170006Ev, symObjAddr: 0x11320, symBinAddr: 0x100012898, symSize: 0x2C }
  - { offsetInCU: 0x414FC, offset: 0x414FC, size: 0x8, addend: 0x0, symName: __ZN8nlohmann16json_abi_v3_11_36detail5lexerINS0_10basic_jsonINSt3__13mapENS4_6vectorENS4_12basic_stringIcNS4_11char_traitsIcEENS4_9allocatorIcEEEEbxydSA_NS0_14adl_serializerENS6_IhNSA_IhEEEEvEENS1_20input_stream_adapterEE17get_decimal_pointEv, symObjAddr: 0x1134C, symBinAddr: 0x1000128C4, symSize: 0xB0 }
  - { offsetInCU: 0x41520, offset: 0x41520, size: 0x8, addend: 0x0, symName: __ZN8nlohmann16json_abi_v3_11_36detail20input_stream_adapterC2EOS2_, symObjAddr: 0x113FC, symBinAddr: 0x100012974, symSize: 0x40 }
  - { offsetInCU: 0x41559, offset: 0x41559, size: 0x8, addend: 0x0, symName: __ZNSt3__16vectorIcNS_9allocatorIcEEEC2B8ue170006Ev, symObjAddr: 0x1143C, symBinAddr: 0x1000129B4, symSize: 0x4C }
  - { offsetInCU: 0x41583, offset: 0x41583, size: 0x8, addend: 0x0, symName: __ZNSt3__117__compressed_pairIPcNS_9allocatorIcEEEC1B8ue170006IDnNS_18__default_init_tagEEEOT_OT0_, symObjAddr: 0x11488, symBinAddr: 0x100012A00, symSize: 0x3C }
  - { offsetInCU: 0x415DB, offset: 0x415DB, size: 0x8, addend: 0x0, symName: __ZNSt3__117__compressed_pairIPcNS_9allocatorIcEEEC2B8ue170006IDnNS_18__default_init_tagEEEOT_OT0_, symObjAddr: 0x114C4, symBinAddr: 0x100012A3C, symSize: 0x40 }
  - { offsetInCU: 0x41633, offset: 0x41633, size: 0x8, addend: 0x0, symName: __ZNSt3__122__compressed_pair_elemIPcLi0ELb0EEC2B8ue170006IDnvEEOT_, symObjAddr: 0x11504, symBinAddr: 0x100012A7C, symSize: 0x1C }
  - { offsetInCU: 0x41675, offset: 0x41675, size: 0x8, addend: 0x0, symName: __ZN8nlohmann16json_abi_v3_11_36detail5lexerINS0_10basic_jsonINSt3__13mapENS4_6vectorENS4_12basic_stringIcNS4_11char_traitsIcEENS4_9allocatorIcEEEEbxydSA_NS0_14adl_serializerENS6_IhNSA_IhEEEEvEENS1_20input_stream_adapterEE4scanEv, symObjAddr: 0x11520, symBinAddr: 0x100012A98, symSize: 0x280 }
  - { offsetInCU: 0x416F5, offset: 0x416F5, size: 0x8, addend: 0x0, symName: __ZN8nlohmann16json_abi_v3_11_36detail5lexerINS0_10basic_jsonINSt3__13mapENS4_6vectorENS4_12basic_stringIcNS4_11char_traitsIcEENS4_9allocatorIcEEEEbxydSA_NS0_14adl_serializerENS6_IhNSA_IhEEEEvEENS1_20input_stream_adapterEE8skip_bomEv, symObjAddr: 0x1199C, symBinAddr: 0x100012F14, symSize: 0xA8 }
  - { offsetInCU: 0x4171B, offset: 0x4171B, size: 0x8, addend: 0x0, symName: __ZN8nlohmann16json_abi_v3_11_36detail5lexerINS0_10basic_jsonINSt3__13mapENS4_6vectorENS4_12basic_stringIcNS4_11char_traitsIcEENS4_9allocatorIcEEEEbxydSA_NS0_14adl_serializerENS6_IhNSA_IhEEEEvEENS1_20input_stream_adapterEE15skip_whitespaceEv, symObjAddr: 0x11A44, symBinAddr: 0x100012FBC, symSize: 0xB8 }
  - { offsetInCU: 0x41741, offset: 0x41741, size: 0x8, addend: 0x0, symName: __ZN8nlohmann16json_abi_v3_11_36detail5lexerINS0_10basic_jsonINSt3__13mapENS4_6vectorENS4_12basic_stringIcNS4_11char_traitsIcEENS4_9allocatorIcEEEEbxydSA_NS0_14adl_serializerENS6_IhNSA_IhEEEEvEENS1_20input_stream_adapterEE12scan_commentEv, symObjAddr: 0x11AFC, symBinAddr: 0x100013074, symSize: 0x17C }
  - { offsetInCU: 0x41767, offset: 0x41767, size: 0x8, addend: 0x0, symName: __ZN8nlohmann16json_abi_v3_11_36detail5lexerINS0_10basic_jsonINSt3__13mapENS4_6vectorENS4_12basic_stringIcNS4_11char_traitsIcEENS4_9allocatorIcEEEEbxydSA_NS0_14adl_serializerENS6_IhNSA_IhEEEEvEENS1_20input_stream_adapterEE12scan_literalEPKcmNS1_10lexer_baseISG_E10token_typeE, symObjAddr: 0x11C78, symBinAddr: 0x1000131F0, symSize: 0x100 }
  - { offsetInCU: 0x41825, offset: 0x41825, size: 0x8, addend: 0x0, symName: __ZNSt3__15arrayIcLm4EE4dataB8ue170006Ev, symObjAddr: 0x11D78, symBinAddr: 0x1000132F0, symSize: 0x14 }
  - { offsetInCU: 0x4184B, offset: 0x4184B, size: 0x8, addend: 0x0, symName: __ZNKSt3__15arrayIcLm4EE4sizeB8ue170006Ev, symObjAddr: 0x11D8C, symBinAddr: 0x100013304, symSize: 0x14 }
  - { offsetInCU: 0x418B3, offset: 0x418B3, size: 0x8, addend: 0x0, symName: __ZNSt3__15arrayIcLm5EE4dataB8ue170006Ev, symObjAddr: 0x11DA0, symBinAddr: 0x100013318, symSize: 0x14 }
  - { offsetInCU: 0x418D9, offset: 0x418D9, size: 0x8, addend: 0x0, symName: __ZNKSt3__15arrayIcLm5EE4sizeB8ue170006Ev, symObjAddr: 0x11DB4, symBinAddr: 0x10001332C, symSize: 0x14 }
  - { offsetInCU: 0x418FF, offset: 0x418FF, size: 0x8, addend: 0x0, symName: __ZN8nlohmann16json_abi_v3_11_36detail5lexerINS0_10basic_jsonINSt3__13mapENS4_6vectorENS4_12basic_stringIcNS4_11char_traitsIcEENS4_9allocatorIcEEEEbxydSA_NS0_14adl_serializerENS6_IhNSA_IhEEEEvEENS1_20input_stream_adapterEE11scan_stringEv, symObjAddr: 0x11DC8, symBinAddr: 0x100013340, symSize: 0xB64 }
  - { offsetInCU: 0x41974, offset: 0x41974, size: 0x8, addend: 0x0, symName: __ZN8nlohmann16json_abi_v3_11_36detail5lexerINS0_10basic_jsonINSt3__13mapENS4_6vectorENS4_12basic_stringIcNS4_11char_traitsIcEENS4_9allocatorIcEEEEbxydSA_NS0_14adl_serializerENS6_IhNSA_IhEEEEvEENS1_20input_stream_adapterEE11scan_numberEv, symObjAddr: 0x12E54, symBinAddr: 0x1000143CC, symSize: 0x658 }
  - { offsetInCU: 0x41A8D, offset: 0x41A8D, size: 0x8, addend: 0x0, symName: __ZN8nlohmann16json_abi_v3_11_36detail5lexerINS0_10basic_jsonINSt3__13mapENS4_6vectorENS4_12basic_stringIcNS4_11char_traitsIcEENS4_9allocatorIcEEEEbxydSA_NS0_14adl_serializerENS6_IhNSA_IhEEEEvEENS1_20input_stream_adapterEE3getEv, symObjAddr: 0x1358C, symBinAddr: 0x100014B04, symSize: 0xF0 }
  - { offsetInCU: 0x41AB3, offset: 0x41AB3, size: 0x8, addend: 0x0, symName: __ZN8nlohmann16json_abi_v3_11_36detail5lexerINS0_10basic_jsonINSt3__13mapENS4_6vectorENS4_12basic_stringIcNS4_11char_traitsIcEENS4_9allocatorIcEEEEbxydSA_NS0_14adl_serializerENS6_IhNSA_IhEEEEvEENS1_20input_stream_adapterEE5ungetEv, symObjAddr: 0x1367C, symBinAddr: 0x100014BF4, symSize: 0xFC }
  - { offsetInCU: 0x41AD9, offset: 0x41AD9, size: 0x8, addend: 0x0, symName: __ZN8nlohmann16json_abi_v3_11_36detail20input_stream_adapter13get_characterEv, symObjAddr: 0x13778, symBinAddr: 0x100014CF0, symSize: 0x94 }
  - { offsetInCU: 0x41B0E, offset: 0x41B0E, size: 0x8, addend: 0x0, symName: __ZNSt3__16vectorIcNS_9allocatorIcEEE9push_backB8ue170006EOc, symObjAddr: 0x1380C, symBinAddr: 0x100014D84, symSize: 0x6C }
  - { offsetInCU: 0x41B45, offset: 0x41B45, size: 0x8, addend: 0x0, symName: __ZNSt3__111char_traitsIcE12to_char_typeB8ue170006Ei, symObjAddr: 0x13878, symBinAddr: 0x100014DF0, symSize: 0x18 }
  - { offsetInCU: 0x41B68, offset: 0x41B68, size: 0x8, addend: 0x0, symName: __ZNSt3__115basic_streambufIcNS_11char_traitsIcEEE6sbumpcB8ue170006Ev, symObjAddr: 0x13890, symBinAddr: 0x100014E08, symSize: 0x78 }
  - { offsetInCU: 0x41B8E, offset: 0x41B8E, size: 0x8, addend: 0x0, symName: __ZNSt3__19basic_iosIcNS_11char_traitsIcEEE5clearB8ue170006Ej, symObjAddr: 0x13908, symBinAddr: 0x100014E80, symSize: 0x2C }
  - { offsetInCU: 0x41BC3, offset: 0x41BC3, size: 0x8, addend: 0x0, symName: __ZNKSt3__19basic_iosIcNS_11char_traitsIcEEE7rdstateB8ue170006Ev, symObjAddr: 0x13934, symBinAddr: 0x100014EAC, symSize: 0x24 }
  - { offsetInCU: 0x41BE9, offset: 0x41BE9, size: 0x8, addend: 0x0, symName: __ZNSt3__111char_traitsIcE11to_int_typeB8ue170006Ec, symObjAddr: 0x13958, symBinAddr: 0x100014ED0, symSize: 0x14 }
  - { offsetInCU: 0x41C0D, offset: 0x41C0D, size: 0x8, addend: 0x0, symName: __ZNKSt3__18ios_base7rdstateB8ue170006Ev, symObjAddr: 0x1396C, symBinAddr: 0x100014EE4, symSize: 0x18 }
  - { offsetInCU: 0x41C35, offset: 0x41C35, size: 0x8, addend: 0x0, symName: __ZNSt3__16vectorIcNS_9allocatorIcEEE9__end_capB8ue170006Ev, symObjAddr: 0x13984, symBinAddr: 0x100014EFC, symSize: 0x28 }
  - { offsetInCU: 0x41C61, offset: 0x41C61, size: 0x8, addend: 0x0, symName: __ZNSt3__16vectorIcNS_9allocatorIcEEE22__construct_one_at_endB8ue170006IJcEEEvDpOT_, symObjAddr: 0x139AC, symBinAddr: 0x100014F24, symSize: 0x90 }
  - { offsetInCU: 0x41CB0, offset: 0x41CB0, size: 0x8, addend: 0x0, symName: __ZNSt3__16vectorIcNS_9allocatorIcEEE21__push_back_slow_pathIcEEvOT_, symObjAddr: 0x13A3C, symBinAddr: 0x100014FB4, symSize: 0xD8 }
  - { offsetInCU: 0x41D0E, offset: 0x41D0E, size: 0x8, addend: 0x0, symName: __ZNSt3__117__compressed_pairIPcNS_9allocatorIcEEE5firstB8ue170006Ev, symObjAddr: 0x13B14, symBinAddr: 0x10001508C, symSize: 0x24 }
  - { offsetInCU: 0x41D34, offset: 0x41D34, size: 0x8, addend: 0x0, symName: __ZNSt3__122__compressed_pair_elemIPcLi0ELb0EE5__getB8ue170006Ev, symObjAddr: 0x13B38, symBinAddr: 0x1000150B0, symSize: 0x14 }
  - { offsetInCU: 0x41D76, offset: 0x41D76, size: 0x8, addend: 0x0, symName: __ZNSt3__16vectorIcNS_9allocatorIcEEE21_ConstructTransactionC1B8ue170006ERS3_m, symObjAddr: 0x13B4C, symBinAddr: 0x1000150C4, symSize: 0x3C }
  - { offsetInCU: 0x41DBE, offset: 0x41DBE, size: 0x8, addend: 0x0, symName: __ZNSt3__116allocator_traitsINS_9allocatorIcEEE9constructB8ue170006IcJcEvvEEvRS2_PT_DpOT0_, symObjAddr: 0x13B88, symBinAddr: 0x100015100, symSize: 0x30 }
  - { offsetInCU: 0x41E12, offset: 0x41E12, size: 0x8, addend: 0x0, symName: __ZNSt3__16vectorIcNS_9allocatorIcEEE7__allocB8ue170006Ev, symObjAddr: 0x13BB8, symBinAddr: 0x100015130, symSize: 0x28 }
  - { offsetInCU: 0x41E38, offset: 0x41E38, size: 0x8, addend: 0x0, symName: __ZNSt3__16vectorIcNS_9allocatorIcEEE21_ConstructTransactionD1B8ue170006Ev, symObjAddr: 0x13BE0, symBinAddr: 0x100015158, symSize: 0x2C }
  - { offsetInCU: 0x41E62, offset: 0x41E62, size: 0x8, addend: 0x0, symName: __ZNSt3__16vectorIcNS_9allocatorIcEEE21_ConstructTransactionC2B8ue170006ERS3_m, symObjAddr: 0x13C0C, symBinAddr: 0x100015184, symSize: 0x44 }
  - { offsetInCU: 0x41EAA, offset: 0x41EAA, size: 0x8, addend: 0x0, symName: __ZNSt3__117__compressed_pairIPcNS_9allocatorIcEEE6secondB8ue170006Ev, symObjAddr: 0x13C7C, symBinAddr: 0x1000151F4, symSize: 0x24 }
  - { offsetInCU: 0x41ED0, offset: 0x41ED0, size: 0x8, addend: 0x0, symName: __ZNSt3__122__compressed_pair_elemINS_9allocatorIcEELi1ELb1EE5__getB8ue170006Ev, symObjAddr: 0x13CA0, symBinAddr: 0x100015218, symSize: 0x14 }
  - { offsetInCU: 0x41EF6, offset: 0x41EF6, size: 0x8, addend: 0x0, symName: __ZNSt3__16vectorIcNS_9allocatorIcEEE21_ConstructTransactionD2B8ue170006Ev, symObjAddr: 0x13CB4, symBinAddr: 0x10001522C, symSize: 0x20 }
  - { offsetInCU: 0x41F20, offset: 0x41F20, size: 0x8, addend: 0x0, symName: __ZNKSt3__16vectorIcNS_9allocatorIcEEE11__recommendB8ue170006Em, symObjAddr: 0x13CD4, symBinAddr: 0x10001524C, symSize: 0xB4 }
  - { offsetInCU: 0x41F75, offset: 0x41F75, size: 0x8, addend: 0x0, symName: __ZNKSt3__16vectorIcNS_9allocatorIcEEE4sizeB8ue170006Ev, symObjAddr: 0x13D88, symBinAddr: 0x100015300, symSize: 0x20 }
  - { offsetInCU: 0x41F9B, offset: 0x41F9B, size: 0x8, addend: 0x0, symName: __ZNSt3__114__split_bufferIcRNS_9allocatorIcEEEC1EmmS3_, symObjAddr: 0x13DA8, symBinAddr: 0x100015320, symSize: 0x44 }
  - { offsetInCU: 0x41FF1, offset: 0x41FF1, size: 0x8, addend: 0x0, symName: __ZNSt3__114__split_bufferIcRNS_9allocatorIcEEED1Ev, symObjAddr: 0x13EFC, symBinAddr: 0x100015474, symSize: 0x2C }
  - { offsetInCU: 0x4201D, offset: 0x4201D, size: 0x8, addend: 0x0, symName: __ZNKSt3__16vectorIcNS_9allocatorIcEEE8max_sizeEv, symObjAddr: 0x13F28, symBinAddr: 0x1000154A0, symSize: 0x60 }
  - { offsetInCU: 0x42045, offset: 0x42045, size: 0x8, addend: 0x0, symName: __ZNKSt3__16vectorIcNS_9allocatorIcEEE20__throw_length_errorB8ue170006Ev, symObjAddr: 0x13F88, symBinAddr: 0x100015500, symSize: 0x1C }
  - { offsetInCU: 0x4206B, offset: 0x4206B, size: 0x8, addend: 0x0, symName: __ZNKSt3__16vectorIcNS_9allocatorIcEEE8capacityB8ue170006Ev, symObjAddr: 0x13FA4, symBinAddr: 0x10001551C, symSize: 0x38 }
  - { offsetInCU: 0x4209C, offset: 0x4209C, size: 0x8, addend: 0x0, symName: __ZNSt3__116allocator_traitsINS_9allocatorIcEEE8max_sizeB8ue170006IS2_vvEEmRKS2_, symObjAddr: 0x13FDC, symBinAddr: 0x100015554, symSize: 0x28 }
  - { offsetInCU: 0x420C7, offset: 0x420C7, size: 0x8, addend: 0x0, symName: __ZNKSt3__16vectorIcNS_9allocatorIcEEE7__allocB8ue170006Ev, symObjAddr: 0x14004, symBinAddr: 0x10001557C, symSize: 0x28 }
  - { offsetInCU: 0x420ED, offset: 0x420ED, size: 0x8, addend: 0x0, symName: __ZNKSt3__117__compressed_pairIPcNS_9allocatorIcEEE6secondB8ue170006Ev, symObjAddr: 0x1402C, symBinAddr: 0x1000155A4, symSize: 0x24 }
  - { offsetInCU: 0x42113, offset: 0x42113, size: 0x8, addend: 0x0, symName: __ZNKSt3__122__compressed_pair_elemINS_9allocatorIcEELi1ELb1EE5__getB8ue170006Ev, symObjAddr: 0x14050, symBinAddr: 0x1000155C8, symSize: 0x14 }
  - { offsetInCU: 0x42139, offset: 0x42139, size: 0x8, addend: 0x0, symName: __ZNKSt3__16vectorIcNS_9allocatorIcEEE9__end_capB8ue170006Ev, symObjAddr: 0x14064, symBinAddr: 0x1000155DC, symSize: 0x28 }
  - { offsetInCU: 0x4215F, offset: 0x4215F, size: 0x8, addend: 0x0, symName: __ZNKSt3__117__compressed_pairIPcNS_9allocatorIcEEE5firstB8ue170006Ev, symObjAddr: 0x1408C, symBinAddr: 0x100015604, symSize: 0x24 }
  - { offsetInCU: 0x42185, offset: 0x42185, size: 0x8, addend: 0x0, symName: __ZNKSt3__122__compressed_pair_elemIPcLi0ELb0EE5__getB8ue170006Ev, symObjAddr: 0x140B0, symBinAddr: 0x100015628, symSize: 0x14 }
  - { offsetInCU: 0x421AB, offset: 0x421AB, size: 0x8, addend: 0x0, symName: __ZNSt3__114__split_bufferIcRNS_9allocatorIcEEEC2EmmS3_, symObjAddr: 0x140C4, symBinAddr: 0x10001563C, symSize: 0xD4 }
  - { offsetInCU: 0x4221F, offset: 0x4221F, size: 0x8, addend: 0x0, symName: __ZNSt3__117__compressed_pairIPcRNS_9allocatorIcEEEC1B8ue170006IDnS4_EEOT_OT0_, symObjAddr: 0x14198, symBinAddr: 0x100015710, symSize: 0x3C }
  - { offsetInCU: 0x42277, offset: 0x42277, size: 0x8, addend: 0x0, symName: __ZNSt3__114__split_bufferIcRNS_9allocatorIcEEE7__allocB8ue170006Ev, symObjAddr: 0x14214, symBinAddr: 0x10001578C, symSize: 0x28 }
  - { offsetInCU: 0x4229D, offset: 0x4229D, size: 0x8, addend: 0x0, symName: __ZNSt3__114__split_bufferIcRNS_9allocatorIcEEE9__end_capB8ue170006Ev, symObjAddr: 0x1423C, symBinAddr: 0x1000157B4, symSize: 0x28 }
  - { offsetInCU: 0x422C3, offset: 0x422C3, size: 0x8, addend: 0x0, symName: __ZNSt3__117__compressed_pairIPcRNS_9allocatorIcEEEC2B8ue170006IDnS4_EEOT_OT0_, symObjAddr: 0x14264, symBinAddr: 0x1000157DC, symSize: 0x48 }
  - { offsetInCU: 0x4231B, offset: 0x4231B, size: 0x8, addend: 0x0, symName: __ZNSt3__122__compressed_pair_elemIRNS_9allocatorIcEELi1ELb0EEC2B8ue170006IS3_vEEOT_, symObjAddr: 0x142AC, symBinAddr: 0x100015824, symSize: 0x20 }
  - { offsetInCU: 0x4235D, offset: 0x4235D, size: 0x8, addend: 0x0, symName: __ZNSt3__19allocatorIcE8allocateB8ue170006Em, symObjAddr: 0x142CC, symBinAddr: 0x100015844, symSize: 0x58 }
  - { offsetInCU: 0x42391, offset: 0x42391, size: 0x8, addend: 0x0, symName: __ZNSt3__117__compressed_pairIPcRNS_9allocatorIcEEE6secondB8ue170006Ev, symObjAddr: 0x14324, symBinAddr: 0x10001589C, symSize: 0x28 }
  - { offsetInCU: 0x423B7, offset: 0x423B7, size: 0x8, addend: 0x0, symName: __ZNSt3__122__compressed_pair_elemIRNS_9allocatorIcEELi1ELb0EE5__getB8ue170006Ev, symObjAddr: 0x1434C, symBinAddr: 0x1000158C4, symSize: 0x18 }
  - { offsetInCU: 0x423DD, offset: 0x423DD, size: 0x8, addend: 0x0, symName: __ZNSt3__117__compressed_pairIPcRNS_9allocatorIcEEE5firstB8ue170006Ev, symObjAddr: 0x14364, symBinAddr: 0x1000158DC, symSize: 0x24 }
  - { offsetInCU: 0x42403, offset: 0x42403, size: 0x8, addend: 0x0, symName: __ZNKSt3__16vectorIcNS_9allocatorIcEEE17__annotate_deleteB8ue170006Ev, symObjAddr: 0x14388, symBinAddr: 0x100015900, symSize: 0xB8 }
  - { offsetInCU: 0x42429, offset: 0x42429, size: 0x8, addend: 0x0, symName: __ZNSt3__116reverse_iteratorIPcEC1B8ue170006ES1_, symObjAddr: 0x144B8, symBinAddr: 0x100015A30, symSize: 0x34 }
  - { offsetInCU: 0x42461, offset: 0x42461, size: 0x8, addend: 0x0, symName: __ZNKSt3__116reverse_iteratorIPcE4baseB8ue170006Ev, symObjAddr: 0x144EC, symBinAddr: 0x100015A64, symSize: 0x18 }
  - { offsetInCU: 0x42487, offset: 0x42487, size: 0x8, addend: 0x0, symName: __ZNKSt3__16vectorIcNS_9allocatorIcEEE14__annotate_newB8ue170006Em, symObjAddr: 0x14540, symBinAddr: 0x100015AB8, symSize: 0xAC }
  - { offsetInCU: 0x424BC, offset: 0x424BC, size: 0x8, addend: 0x0, symName: __ZNKSt3__16vectorIcNS_9allocatorIcEEE31__annotate_contiguous_containerB8ue170006EPKvS5_S5_S5_, symObjAddr: 0x145EC, symBinAddr: 0x100015B64, symSize: 0x20 }
  - { offsetInCU: 0x4250E, offset: 0x4250E, size: 0x8, addend: 0x0, symName: __ZNKSt3__16vectorIcNS_9allocatorIcEEE4dataB8ue170006Ev, symObjAddr: 0x1460C, symBinAddr: 0x100015B84, symSize: 0x28 }
  - { offsetInCU: 0x42551, offset: 0x42551, size: 0x8, addend: 0x0, symName: __ZNKSt3__111__move_loopINS_17_ClassicAlgPolicyEEclB8ue170006INS_16reverse_iteratorIPcEES6_S6_EENS_4pairIT_T1_EES8_T0_S9_, symObjAddr: 0x148EC, symBinAddr: 0x100015E64, symSize: 0xA0 }
  - { offsetInCU: 0x425BC, offset: 0x425BC, size: 0x8, addend: 0x0, symName: __ZNSt3__119__unwrap_range_implINS_16reverse_iteratorIPcEES3_E8__unwrapB8ue170006ES3_S3_, symObjAddr: 0x14AD8, symBinAddr: 0x100016050, symSize: 0x84 }
  - { offsetInCU: 0x425F3, offset: 0x425F3, size: 0x8, addend: 0x0, symName: __ZNSt3__14pairINS_16reverse_iteratorIPcEES3_EC1B8ue170006IS3_S3_LPv0EEEOT_OT0_, symObjAddr: 0x14B5C, symBinAddr: 0x1000160D4, symSize: 0x3C }
  - { offsetInCU: 0x42651, offset: 0x42651, size: 0x8, addend: 0x0, symName: __ZNSt3__14pairINS_16reverse_iteratorIPcEES3_EC2B8ue170006IS3_S3_LPv0EEEOT_OT0_, symObjAddr: 0x14B98, symBinAddr: 0x100016110, symSize: 0x34 }
  - { offsetInCU: 0x426AF, offset: 0x426AF, size: 0x8, addend: 0x0, symName: __ZNSt3__18_IterOpsINS_17_ClassicAlgPolicyEE11__iter_moveB8ue170006IRNS_16reverse_iteratorIPcEEEENS_9enable_ifIXsr12is_referenceIDTdeclsr3stdE7declvalIRT_EEEEE5valueEDTclsr3stdE4movedeclsr3stdE7declvalISA_EEEEE4typeEOS9_, symObjAddr: 0x14C14, symBinAddr: 0x10001618C, symSize: 0x28 }
  - { offsetInCU: 0x426DB, offset: 0x426DB, size: 0x8, addend: 0x0, symName: __ZNKSt3__116reverse_iteratorIPcEdeB8ue170006Ev, symObjAddr: 0x14C3C, symBinAddr: 0x1000161B4, symSize: 0x28 }
  - { offsetInCU: 0x4270F, offset: 0x4270F, size: 0x8, addend: 0x0, symName: __ZNSt3__116reverse_iteratorIPcEppB8ue170006Ev, symObjAddr: 0x14C64, symBinAddr: 0x1000161DC, symSize: 0x20 }
  - { offsetInCU: 0x42735, offset: 0x42735, size: 0x8, addend: 0x0, symName: __ZNSt3__18_IterOpsINS_17_ClassicAlgPolicyEE25__validate_iter_referenceB8ue170006IRNS_16reverse_iteratorIPcEEEEvv, symObjAddr: 0x14C84, symBinAddr: 0x1000161FC, symSize: 0x4 }
  - { offsetInCU: 0x42753, offset: 0x42753, size: 0x8, addend: 0x0, symName: __ZNSt3__118__unwrap_iter_implINS_16reverse_iteratorIPcEELb0EE8__unwrapB8ue170006ES3_, symObjAddr: 0x14C88, symBinAddr: 0x100016200, symSize: 0x24 }
  - { offsetInCU: 0x42776, offset: 0x42776, size: 0x8, addend: 0x0, symName: __ZNSt3__119__unwrap_range_implINS_16reverse_iteratorIPcEES3_E8__rewrapB8ue170006ES3_S3_, symObjAddr: 0x14CAC, symBinAddr: 0x100016224, symSize: 0x5C }
  - { offsetInCU: 0x427A7, offset: 0x427A7, size: 0x8, addend: 0x0, symName: __ZNSt3__118__unwrap_iter_implINS_16reverse_iteratorIPcEELb0EE8__rewrapB8ue170006ES3_S3_, symObjAddr: 0x14D08, symBinAddr: 0x100016280, symSize: 0x2C }
  - { offsetInCU: 0x427D5, offset: 0x427D5, size: 0x8, addend: 0x0, symName: __ZNSt3__116reverse_iteratorIPcEC2B8ue170006ES1_, symObjAddr: 0x14D34, symBinAddr: 0x1000162AC, symSize: 0x28 }
  - { offsetInCU: 0x4280D, offset: 0x4280D, size: 0x8, addend: 0x0, symName: __ZNSt3__114__split_bufferIcRNS_9allocatorIcEEED2Ev, symObjAddr: 0x14D5C, symBinAddr: 0x1000162D4, symSize: 0x8C }
  - { offsetInCU: 0x42839, offset: 0x42839, size: 0x8, addend: 0x0, symName: __ZNSt3__114__split_bufferIcRNS_9allocatorIcEEE5clearB8ue170006Ev, symObjAddr: 0x14DE8, symBinAddr: 0x100016360, symSize: 0x28 }
  - { offsetInCU: 0x4285F, offset: 0x4285F, size: 0x8, addend: 0x0, symName: __ZNSt3__116allocator_traitsINS_9allocatorIcEEE10deallocateB8ue170006ERS2_Pcm, symObjAddr: 0x14E10, symBinAddr: 0x100016388, symSize: 0x34 }
  - { offsetInCU: 0x428A1, offset: 0x428A1, size: 0x8, addend: 0x0, symName: __ZNKSt3__114__split_bufferIcRNS_9allocatorIcEEE8capacityB8ue170006Ev, symObjAddr: 0x14E44, symBinAddr: 0x1000163BC, symSize: 0x38 }
  - { offsetInCU: 0x428C7, offset: 0x428C7, size: 0x8, addend: 0x0, symName: __ZNSt3__114__split_bufferIcRNS_9allocatorIcEEE17__destruct_at_endB8ue170006EPc, symObjAddr: 0x14E7C, symBinAddr: 0x1000163F4, symSize: 0x2C }
  - { offsetInCU: 0x428FB, offset: 0x428FB, size: 0x8, addend: 0x0, symName: __ZNSt3__114__split_bufferIcRNS_9allocatorIcEEE17__destruct_at_endB8ue170006EPcNS_17integral_constantIbLb0EEE, symObjAddr: 0x14EA8, symBinAddr: 0x100016420, symSize: 0x80 }
  - { offsetInCU: 0x4293C, offset: 0x4293C, size: 0x8, addend: 0x0, symName: __ZNSt3__116allocator_traitsINS_9allocatorIcEEE7destroyB8ue170006IcvvEEvRS2_PT_, symObjAddr: 0x14F28, symBinAddr: 0x1000164A0, symSize: 0x28 }
  - { offsetInCU: 0x42976, offset: 0x42976, size: 0x8, addend: 0x0, symName: __ZNSt3__19allocatorIcE10deallocateB8ue170006EPcm, symObjAddr: 0x14F84, symBinAddr: 0x1000164FC, symSize: 0x40 }
  - { offsetInCU: 0x429B8, offset: 0x429B8, size: 0x8, addend: 0x0, symName: __ZNKSt3__114__split_bufferIcRNS_9allocatorIcEEE9__end_capB8ue170006Ev, symObjAddr: 0x14FC4, symBinAddr: 0x10001653C, symSize: 0x28 }
  - { offsetInCU: 0x429DE, offset: 0x429DE, size: 0x8, addend: 0x0, symName: __ZNKSt3__117__compressed_pairIPcRNS_9allocatorIcEEE5firstB8ue170006Ev, symObjAddr: 0x14FEC, symBinAddr: 0x100016564, symSize: 0x24 }
  - { offsetInCU: 0x42A04, offset: 0x42A04, size: 0x8, addend: 0x0, symName: __ZNKSt3__16vectorIcNS_9allocatorIcEEE5emptyB8ue170006Ev, symObjAddr: 0x15010, symBinAddr: 0x100016588, symSize: 0x28 }
  - { offsetInCU: 0x42A2A, offset: 0x42A2A, size: 0x8, addend: 0x0, symName: __ZNSt3__16vectorIcNS_9allocatorIcEEE8pop_backEv, symObjAddr: 0x15038, symBinAddr: 0x1000165B0, symSize: 0x2C }
  - { offsetInCU: 0x42A52, offset: 0x42A52, size: 0x8, addend: 0x0, symName: __ZNSt3__16vectorIcNS_9allocatorIcEEE17__destruct_at_endB8ue170006EPc, symObjAddr: 0x15064, symBinAddr: 0x1000165DC, symSize: 0x4C }
  - { offsetInCU: 0x42A96, offset: 0x42A96, size: 0x8, addend: 0x0, symName: __ZNSt3__16vectorIcNS_9allocatorIcEEE22__base_destruct_at_endB8ue170006EPc, symObjAddr: 0x150B0, symBinAddr: 0x100016628, symSize: 0x8C }
  - { offsetInCU: 0x42ADA, offset: 0x42ADA, size: 0x8, addend: 0x0, symName: __ZNKSt3__16vectorIcNS_9allocatorIcEEE17__annotate_shrinkB8ue170006Em, symObjAddr: 0x1513C, symBinAddr: 0x1000166B4, symSize: 0xB4 }
  - { offsetInCU: 0x42B0F, offset: 0x42B0F, size: 0x8, addend: 0x0, symName: __ZN8nlohmann16json_abi_v3_11_36detail5lexerINS0_10basic_jsonINSt3__13mapENS4_6vectorENS4_12basic_stringIcNS4_11char_traitsIcEENS4_9allocatorIcEEEEbxydSA_NS0_14adl_serializerENS6_IhNSA_IhEEEEvEENS1_20input_stream_adapterEE5resetEv, symObjAddr: 0x151F0, symBinAddr: 0x100016768, symSize: 0x60 }
  - { offsetInCU: 0x42B35, offset: 0x42B35, size: 0x8, addend: 0x0, symName: __ZN8nlohmann16json_abi_v3_11_36detail5lexerINS0_10basic_jsonINSt3__13mapENS4_6vectorENS4_12basic_stringIcNS4_11char_traitsIcEENS4_9allocatorIcEEEEbxydSA_NS0_14adl_serializerENS6_IhNSA_IhEEEEvEENS1_20input_stream_adapterEE3addEi, symObjAddr: 0x15250, symBinAddr: 0x1000167C8, symSize: 0x34 }
  - { offsetInCU: 0x42B6A, offset: 0x42B6A, size: 0x8, addend: 0x0, symName: __ZN8nlohmann16json_abi_v3_11_36detail5lexerINS0_10basic_jsonINSt3__13mapENS4_6vectorENS4_12basic_stringIcNS4_11char_traitsIcEENS4_9allocatorIcEEEEbxydSA_NS0_14adl_serializerENS6_IhNSA_IhEEEEvEENS1_20input_stream_adapterEE13get_codepointEv, symObjAddr: 0x15284, symBinAddr: 0x1000167FC, symSize: 0x2B0 }
  - { offsetInCU: 0x42C02, offset: 0x42C02, size: 0x8, addend: 0x0, symName: __ZN8nlohmann16json_abi_v3_11_36detail5lexerINS0_10basic_jsonINSt3__13mapENS4_6vectorENS4_12basic_stringIcNS4_11char_traitsIcEENS4_9allocatorIcEEEEbxydSA_NS0_14adl_serializerENS6_IhNSA_IhEEEEvEENS1_20input_stream_adapterEE18next_byte_in_rangeESt16initializer_listIiE, symObjAddr: 0x15534, symBinAddr: 0x100016AAC, symSize: 0x1C0 }
  - { offsetInCU: 0x42C55, offset: 0x42C55, size: 0x8, addend: 0x0, symName: __ZNSt3__112basic_stringIcNS_11char_traitsIcEENS_9allocatorIcEEE5clearB8ue170006Ev, symObjAddr: 0x156F4, symBinAddr: 0x100016C6C, symSize: 0x78 }
  - { offsetInCU: 0x42C7D, offset: 0x42C7D, size: 0x8, addend: 0x0, symName: __ZNSt3__16vectorIcNS_9allocatorIcEEE5clearB8ue170006Ev, symObjAddr: 0x1576C, symBinAddr: 0x100016CE4, symSize: 0x44 }
  - { offsetInCU: 0x42CB2, offset: 0x42CB2, size: 0x8, addend: 0x0, symName: __ZNSt3__111char_traitsIcE6assignB8ue170006ERcRKc, symObjAddr: 0x157B0, symBinAddr: 0x100016D28, symSize: 0x24 }
  - { offsetInCU: 0x42CE3, offset: 0x42CE3, size: 0x8, addend: 0x0, symName: __ZNSt3__112basic_stringIcNS_11char_traitsIcEENS_9allocatorIcEEE15__set_long_sizeB8ue170006Em, symObjAddr: 0x157D4, symBinAddr: 0x100016D4C, symSize: 0x38 }
  - { offsetInCU: 0x42D18, offset: 0x42D18, size: 0x8, addend: 0x0, symName: __ZNSt3__112basic_stringIcNS_11char_traitsIcEENS_9allocatorIcEEE16__set_short_sizeB8ue170006Em, symObjAddr: 0x1580C, symBinAddr: 0x100016D84, symSize: 0x78 }
  - { offsetInCU: 0x42D4D, offset: 0x42D4D, size: 0x8, addend: 0x0, symName: __ZNSt3__16vectorIcNS_9allocatorIcEEE7__clearB8ue170006Ev, symObjAddr: 0x15884, symBinAddr: 0x100016DFC, symSize: 0x28 }
  - { offsetInCU: 0x42D8A, offset: 0x42D8A, size: 0x8, addend: 0x0, symName: __ZNKSt16initializer_listIjE5beginB8ue170006Ev, symObjAddr: 0x158AC, symBinAddr: 0x100016E24, symSize: 0x18 }
  - { offsetInCU: 0x42DB0, offset: 0x42DB0, size: 0x8, addend: 0x0, symName: __ZNKSt16initializer_listIjE3endB8ue170006Ev, symObjAddr: 0x158C4, symBinAddr: 0x100016E3C, symSize: 0x20 }
  - { offsetInCU: 0x42DD6, offset: 0x42DD6, size: 0x8, addend: 0x0, symName: __ZNKSt16initializer_listIiE4sizeB8ue170006Ev, symObjAddr: 0x158E4, symBinAddr: 0x100016E5C, symSize: 0x18 }
  - { offsetInCU: 0x42DFC, offset: 0x42DFC, size: 0x8, addend: 0x0, symName: __ZNKSt16initializer_listIiE5beginB8ue170006Ev, symObjAddr: 0x158FC, symBinAddr: 0x100016E74, symSize: 0x18 }
  - { offsetInCU: 0x42E22, offset: 0x42E22, size: 0x8, addend: 0x0, symName: __ZNKSt16initializer_listIiE3endB8ue170006Ev, symObjAddr: 0x15914, symBinAddr: 0x100016E8C, symSize: 0x20 }
  - { offsetInCU: 0x42E48, offset: 0x42E48, size: 0x8, addend: 0x0, symName: __ZN8nlohmann16json_abi_v3_11_36detail5lexerINS0_10basic_jsonINSt3__13mapENS4_6vectorENS4_12basic_stringIcNS4_11char_traitsIcEENS4_9allocatorIcEEEEbxydSA_NS0_14adl_serializerENS6_IhNSA_IhEEEEvEENS1_20input_stream_adapterEE6strtofERdPKcPPc, symObjAddr: 0x15934, symBinAddr: 0x100016EAC, symSize: 0x48 }
  - { offsetInCU: 0x42E8A, offset: 0x42E8A, size: 0x8, addend: 0x0, symName: __ZN8nlohmann16json_abi_v3_11_36detail5lexerINS0_10basic_jsonINSt3__13mapENS4_6vectorENS4_12basic_stringIcNS4_11char_traitsIcEENS4_9allocatorIcEEEEbxydSA_NS0_14adl_serializerENS6_IhNSA_IhEEEEvEENS1_20input_stream_adapterEED2Ev, symObjAddr: 0x1597C, symBinAddr: 0x100016EF4, symSize: 0x44 }
  - { offsetInCU: 0x42EB4, offset: 0x42EB4, size: 0x8, addend: 0x0, symName: __ZNSt3__16vectorIcNS_9allocatorIcEEED1B8ue170006Ev, symObjAddr: 0x159C0, symBinAddr: 0x100016F38, symSize: 0x2C }
  - { offsetInCU: 0x42EDE, offset: 0x42EDE, size: 0x8, addend: 0x0, symName: __ZNSt3__16vectorIcNS_9allocatorIcEEED2B8ue170006Ev, symObjAddr: 0x159EC, symBinAddr: 0x100016F64, symSize: 0x44 }
  - { offsetInCU: 0x42F08, offset: 0x42F08, size: 0x8, addend: 0x0, symName: __ZNSt3__16vectorIcNS_9allocatorIcEEE16__destroy_vectorC1B8ue170006ERS3_, symObjAddr: 0x15A30, symBinAddr: 0x100016FA8, symSize: 0x34 }
  - { offsetInCU: 0x42F41, offset: 0x42F41, size: 0x8, addend: 0x0, symName: __ZNSt3__16vectorIcNS_9allocatorIcEEE16__destroy_vectorclB8ue170006Ev, symObjAddr: 0x15A64, symBinAddr: 0x100016FDC, symSize: 0x90 }
  - { offsetInCU: 0x42F67, offset: 0x42F67, size: 0x8, addend: 0x0, symName: __ZNSt3__16vectorIcNS_9allocatorIcEEE16__destroy_vectorC2B8ue170006ERS3_, symObjAddr: 0x15AF4, symBinAddr: 0x10001706C, symSize: 0x20 }
  - { offsetInCU: 0x42FA0, offset: 0x42FA0, size: 0x8, addend: 0x0, symName: __ZN8nlohmann16json_abi_v3_11_36detail20input_stream_adapterC1ERNSt3__113basic_istreamIcNS3_11char_traitsIcEEEE, symObjAddr: 0x15B14, symBinAddr: 0x10001708C, symSize: 0x34 }
  - { offsetInCU: 0x42FD9, offset: 0x42FD9, size: 0x8, addend: 0x0, symName: __ZN8nlohmann16json_abi_v3_11_36detail20input_stream_adapterC2ERNSt3__113basic_istreamIcNS3_11char_traitsIcEEEE, symObjAddr: 0x15B48, symBinAddr: 0x1000170C0, symSize: 0x50 }
  - { offsetInCU: 0x43012, offset: 0x43012, size: 0x8, addend: 0x0, symName: __ZNSt3__18functionIFbiN8nlohmann16json_abi_v3_11_36detail13parse_event_tERNS2_10basic_jsonINS_3mapENS_6vectorENS_12basic_stringIcNS_11char_traitsIcEENS_9allocatorIcEEEEbxydSB_NS2_14adl_serializerENS7_IhNSB_IhEEEEvEEEEC2B8ue170006EDn, symObjAddr: 0x15B98, symBinAddr: 0x100017110, symSize: 0x30 }
  - { offsetInCU: 0x43047, offset: 0x43047, size: 0x8, addend: 0x0, symName: __ZNSt3__110__function12__value_funcIFbiN8nlohmann16json_abi_v3_11_36detail13parse_event_tERNS3_10basic_jsonINS_3mapENS_6vectorENS_12basic_stringIcNS_11char_traitsIcEENS_9allocatorIcEEEEbxydSC_NS3_14adl_serializerENS8_IhNSC_IhEEEEvEEEEC1B8ue170006Ev, symObjAddr: 0x15BC8, symBinAddr: 0x100017140, symSize: 0x2C }
  - { offsetInCU: 0x43071, offset: 0x43071, size: 0x8, addend: 0x0, symName: __ZNSt3__110__function12__value_funcIFbiN8nlohmann16json_abi_v3_11_36detail13parse_event_tERNS3_10basic_jsonINS_3mapENS_6vectorENS_12basic_stringIcNS_11char_traitsIcEENS_9allocatorIcEEEEbxydSC_NS3_14adl_serializerENS8_IhNSC_IhEEEEvEEEEC2B8ue170006Ev, symObjAddr: 0x15BF4, symBinAddr: 0x10001716C, symSize: 0x18 }
  - { offsetInCU: 0x4309B, offset: 0x4309B, size: 0x8, addend: 0x0, symName: __ZNKSt3__18functionIFbiN8nlohmann16json_abi_v3_11_36detail13parse_event_tERNS2_10basic_jsonINS_3mapENS_6vectorENS_12basic_stringIcNS_11char_traitsIcEENS_9allocatorIcEEEEbxydSB_NS2_14adl_serializerENS7_IhNSB_IhEEEEvEEEEcvbB8ue170006Ev, symObjAddr: 0x15C0C, symBinAddr: 0x100017184, symSize: 0x28 }
  - { offsetInCU: 0x43100, offset: 0x43100, size: 0x8, addend: 0x0, symName: __ZN8nlohmann16json_abi_v3_11_36detail28json_sax_dom_callback_parserINS0_10basic_jsonINSt3__13mapENS4_6vectorENS4_12basic_stringIcNS4_11char_traitsIcEENS4_9allocatorIcEEEEbxydSA_NS0_14adl_serializerENS6_IhNSA_IhEEEEvEEEC1ERSG_NS4_8functionIFbiNS1_13parse_event_tESI_EEEb, symObjAddr: 0x15C34, symBinAddr: 0x1000171AC, symSize: 0x50 }
  - { offsetInCU: 0x4315E, offset: 0x4315E, size: 0x8, addend: 0x0, symName: __ZN8nlohmann16json_abi_v3_11_36detail6parserINS0_10basic_jsonINSt3__13mapENS4_6vectorENS4_12basic_stringIcNS4_11char_traitsIcEENS4_9allocatorIcEEEEbxydSA_NS0_14adl_serializerENS6_IhNSA_IhEEEEvEENS1_20input_stream_adapterEE18sax_parse_internalINS1_28json_sax_dom_callback_parserISG_EEEEbPT_, symObjAddr: 0x15C84, symBinAddr: 0x1000171FC, symSize: 0x169C }
  - { offsetInCU: 0x431F1, offset: 0x431F1, size: 0x8, addend: 0x0, symName: __ZN8nlohmann16json_abi_v3_11_36detail28json_sax_dom_callback_parserINS0_10basic_jsonINSt3__13mapENS4_6vectorENS4_12basic_stringIcNS4_11char_traitsIcEENS4_9allocatorIcEEEEbxydSA_NS0_14adl_serializerENS6_IhNSA_IhEEEEvEEE11parse_errorINS1_11parse_errorEEEbmRKSC_RKT_, symObjAddr: 0x17364, symBinAddr: 0x1000188DC, symSize: 0x74 }
  - { offsetInCU: 0x43245, offset: 0x43245, size: 0x8, addend: 0x0, symName: __ZNK8nlohmann16json_abi_v3_11_36detail5lexerINS0_10basic_jsonINSt3__13mapENS4_6vectorENS4_12basic_stringIcNS4_11char_traitsIcEENS4_9allocatorIcEEEEbxydSA_NS0_14adl_serializerENS6_IhNSA_IhEEEEvEENS1_20input_stream_adapterEE12get_positionEv, symObjAddr: 0x173D8, symBinAddr: 0x100018950, symSize: 0x28 }
  - { offsetInCU: 0x4326B, offset: 0x4326B, size: 0x8, addend: 0x0, symName: __ZNK8nlohmann16json_abi_v3_11_36detail10position_tcvmEv, symObjAddr: 0x17400, symBinAddr: 0x100018978, symSize: 0x18 }
  - { offsetInCU: 0x43291, offset: 0x43291, size: 0x8, addend: 0x0, symName: __ZNK8nlohmann16json_abi_v3_11_36detail5lexerINS0_10basic_jsonINSt3__13mapENS4_6vectorENS4_12basic_stringIcNS4_11char_traitsIcEENS4_9allocatorIcEEEEbxydSA_NS0_14adl_serializerENS6_IhNSA_IhEEEEvEENS1_20input_stream_adapterEE16get_token_stringEv, symObjAddr: 0x17418, symBinAddr: 0x100018990, symSize: 0x1B8 }
  - { offsetInCU: 0x4332B, offset: 0x4332B, size: 0x8, addend: 0x0, symName: __ZN8nlohmann16json_abi_v3_11_36detail11parse_error6createIDnLi0EEES2_iRKNS1_10position_tERKNSt3__112basic_stringIcNS7_11char_traitsIcEENS7_9allocatorIcEEEET_, symObjAddr: 0x175D0, symBinAddr: 0x100018B48, symSize: 0x18C }
  - { offsetInCU: 0x4339A, offset: 0x4339A, size: 0x8, addend: 0x0, symName: __ZN8nlohmann16json_abi_v3_11_36detail6parserINS0_10basic_jsonINSt3__13mapENS4_6vectorENS4_12basic_stringIcNS4_11char_traitsIcEENS4_9allocatorIcEEEEbxydSA_NS0_14adl_serializerENS6_IhNSA_IhEEEEvEENS1_20input_stream_adapterEE17exception_messageENS1_10lexer_baseISG_E10token_typeERKSC_, symObjAddr: 0x1775C, symBinAddr: 0x100018CD4, symSize: 0x2B0 }
  - { offsetInCU: 0x433EE, offset: 0x433EE, size: 0x8, addend: 0x0, symName: __ZN8nlohmann16json_abi_v3_11_36detail11parse_errorD1Ev, symObjAddr: 0x17A0C, symBinAddr: 0x100018F84, symSize: 0x2C }
  - { offsetInCU: 0x4341B, offset: 0x4341B, size: 0x8, addend: 0x0, symName: __ZNK8nlohmann16json_abi_v3_11_36detail28json_sax_dom_callback_parserINS0_10basic_jsonINSt3__13mapENS4_6vectorENS4_12basic_stringIcNS4_11char_traitsIcEENS4_9allocatorIcEEEEbxydSA_NS0_14adl_serializerENS6_IhNSA_IhEEEEvEEE10is_erroredEv, symObjAddr: 0x17A38, symBinAddr: 0x100018FB0, symSize: 0x1C }
  - { offsetInCU: 0x43441, offset: 0x43441, size: 0x8, addend: 0x0, symName: __ZN8nlohmann16json_abi_v3_11_310basic_jsonINSt3__13mapENS2_6vectorENS2_12basic_stringIcNS2_11char_traitsIcEENS2_9allocatorIcEEEEbxydS8_NS0_14adl_serializerENS4_IhNS8_IhEEEEvEaSESE_, symObjAddr: 0x17A54, symBinAddr: 0x100018FCC, symSize: 0x80 }
  - { offsetInCU: 0x43477, offset: 0x43477, size: 0x8, addend: 0x0, symName: __ZNK8nlohmann16json_abi_v3_11_310basic_jsonINSt3__13mapENS2_6vectorENS2_12basic_stringIcNS2_11char_traitsIcEENS2_9allocatorIcEEEEbxydS8_NS0_14adl_serializerENS4_IhNS8_IhEEEEvE12is_discardedEv, symObjAddr: 0x17AD4, symBinAddr: 0x10001904C, symSize: 0x24 }
  - { offsetInCU: 0x4349D, offset: 0x4349D, size: 0x8, addend: 0x0, symName: __ZN8nlohmann16json_abi_v3_11_36detail28json_sax_dom_callback_parserINS0_10basic_jsonINSt3__13mapENS4_6vectorENS4_12basic_stringIcNS4_11char_traitsIcEENS4_9allocatorIcEEEEbxydSA_NS0_14adl_serializerENS6_IhNSA_IhEEEEvEEED1Ev, symObjAddr: 0x17AF8, symBinAddr: 0x100019070, symSize: 0x2C }
  - { offsetInCU: 0x43501, offset: 0x43501, size: 0x8, addend: 0x0, symName: __ZN8nlohmann16json_abi_v3_11_36detail19json_sax_dom_parserINS0_10basic_jsonINSt3__13mapENS4_6vectorENS4_12basic_stringIcNS4_11char_traitsIcEENS4_9allocatorIcEEEEbxydSA_NS0_14adl_serializerENS6_IhNSA_IhEEEEvEEEC1ERSG_b, symObjAddr: 0x17B24, symBinAddr: 0x10001909C, symSize: 0x48 }
  - { offsetInCU: 0x4354F, offset: 0x4354F, size: 0x8, addend: 0x0, symName: __ZN8nlohmann16json_abi_v3_11_36detail6parserINS0_10basic_jsonINSt3__13mapENS4_6vectorENS4_12basic_stringIcNS4_11char_traitsIcEENS4_9allocatorIcEEEEbxydSA_NS0_14adl_serializerENS6_IhNSA_IhEEEEvEENS1_20input_stream_adapterEE18sax_parse_internalINS1_19json_sax_dom_parserISG_EEEEbPT_, symObjAddr: 0x17B6C, symBinAddr: 0x1000190E4, symSize: 0x1648 }
  - { offsetInCU: 0x435CB, offset: 0x435CB, size: 0x8, addend: 0x0, symName: __ZN8nlohmann16json_abi_v3_11_36detail19json_sax_dom_parserINS0_10basic_jsonINSt3__13mapENS4_6vectorENS4_12basic_stringIcNS4_11char_traitsIcEENS4_9allocatorIcEEEEbxydSA_NS0_14adl_serializerENS6_IhNSA_IhEEEEvEEE11parse_errorINS1_11parse_errorEEEbmRKSC_RKT_, symObjAddr: 0x191F8, symBinAddr: 0x10001A770, symSize: 0x74 }
  - { offsetInCU: 0x4361F, offset: 0x4361F, size: 0x8, addend: 0x0, symName: __ZNK8nlohmann16json_abi_v3_11_36detail19json_sax_dom_parserINS0_10basic_jsonINSt3__13mapENS4_6vectorENS4_12basic_stringIcNS4_11char_traitsIcEENS4_9allocatorIcEEEEbxydSA_NS0_14adl_serializerENS6_IhNSA_IhEEEEvEEE10is_erroredEv, symObjAddr: 0x1926C, symBinAddr: 0x10001A7E4, symSize: 0x1C }
  - { offsetInCU: 0x43645, offset: 0x43645, size: 0x8, addend: 0x0, symName: __ZN8nlohmann16json_abi_v3_11_36detail19json_sax_dom_parserINS0_10basic_jsonINSt3__13mapENS4_6vectorENS4_12basic_stringIcNS4_11char_traitsIcEENS4_9allocatorIcEEEEbxydSA_NS0_14adl_serializerENS6_IhNSA_IhEEEEvEEED1Ev, symObjAddr: 0x19288, symBinAddr: 0x10001A800, symSize: 0x2C }
  - { offsetInCU: 0x4366F, offset: 0x4366F, size: 0x8, addend: 0x0, symName: __ZNKSt3__110__function12__value_funcIFbiN8nlohmann16json_abi_v3_11_36detail13parse_event_tERNS3_10basic_jsonINS_3mapENS_6vectorENS_12basic_stringIcNS_11char_traitsIcEENS_9allocatorIcEEEEbxydSC_NS3_14adl_serializerENS8_IhNSC_IhEEEEvEEEEcvbB8ue170006Ev, symObjAddr: 0x192B4, symBinAddr: 0x10001A82C, symSize: 0x24 }
  - { offsetInCU: 0x43695, offset: 0x43695, size: 0x8, addend: 0x0, symName: __ZN8nlohmann16json_abi_v3_11_36detail28json_sax_dom_callback_parserINS0_10basic_jsonINSt3__13mapENS4_6vectorENS4_12basic_stringIcNS4_11char_traitsIcEENS4_9allocatorIcEEEEbxydSA_NS0_14adl_serializerENS6_IhNSA_IhEEEEvEEEC2ERSG_NS4_8functionIFbiNS1_13parse_event_tESI_EEEb, symObjAddr: 0x192D8, symBinAddr: 0x10001A850, symSize: 0x13C }
  - { offsetInCU: 0x436ED, offset: 0x436ED, size: 0x8, addend: 0x0, symName: __ZNSt3__16vectorIPN8nlohmann16json_abi_v3_11_310basic_jsonINS_3mapES0_NS_12basic_stringIcNS_11char_traitsIcEENS_9allocatorIcEEEEbxydS8_NS2_14adl_serializerENS0_IhNS8_IhEEEEvEENS8_ISF_EEEC1B8ue170006Ev, symObjAddr: 0x19414, symBinAddr: 0x10001A98C, symSize: 0x2C }
  - { offsetInCU: 0x43717, offset: 0x43717, size: 0x8, addend: 0x0, symName: __ZNSt3__16vectorIbNS_9allocatorIbEEEC1B8ue170006Ev, symObjAddr: 0x19440, symBinAddr: 0x10001A9B8, symSize: 0x2C }
  - { offsetInCU: 0x43743, offset: 0x43743, size: 0x8, addend: 0x0, symName: __ZNSt3__16vectorIbNS_9allocatorIbEEE9push_backERKb, symObjAddr: 0x1946C, symBinAddr: 0x10001A9E4, symSize: 0xA4 }
  - { offsetInCU: 0x4377A, offset: 0x4377A, size: 0x8, addend: 0x0, symName: __ZNSt3__16vectorIbNS_9allocatorIbEEED1B8ue170006Ev, symObjAddr: 0x19510, symBinAddr: 0x10001AA88, symSize: 0x2C }
  - { offsetInCU: 0x437A4, offset: 0x437A4, size: 0x8, addend: 0x0, symName: __ZNSt3__16vectorIPN8nlohmann16json_abi_v3_11_310basic_jsonINS_3mapES0_NS_12basic_stringIcNS_11char_traitsIcEENS_9allocatorIcEEEEbxydS8_NS2_14adl_serializerENS0_IhNS8_IhEEEEvEENS8_ISF_EEED1B8ue170006Ev, symObjAddr: 0x1953C, symBinAddr: 0x10001AAB4, symSize: 0x2C }
  - { offsetInCU: 0x437CE, offset: 0x437CE, size: 0x8, addend: 0x0, symName: __ZNSt3__16vectorIPN8nlohmann16json_abi_v3_11_310basic_jsonINS_3mapES0_NS_12basic_stringIcNS_11char_traitsIcEENS_9allocatorIcEEEEbxydS8_NS2_14adl_serializerENS0_IhNS8_IhEEEEvEENS8_ISF_EEEC2B8ue170006Ev, symObjAddr: 0x19568, symBinAddr: 0x10001AAE0, symSize: 0x4C }
  - { offsetInCU: 0x437F8, offset: 0x437F8, size: 0x8, addend: 0x0, symName: __ZNSt3__117__compressed_pairIPPN8nlohmann16json_abi_v3_11_310basic_jsonINS_3mapENS_6vectorENS_12basic_stringIcNS_11char_traitsIcEENS_9allocatorIcEEEEbxydS9_NS2_14adl_serializerENS5_IhNS9_IhEEEEvEENS9_ISG_EEEC1B8ue170006IDnNS_18__default_init_tagEEEOT_OT0_, symObjAddr: 0x195B4, symBinAddr: 0x10001AB2C, symSize: 0x3C }
  - { offsetInCU: 0x43850, offset: 0x43850, size: 0x8, addend: 0x0, symName: __ZNSt3__117__compressed_pairIPPN8nlohmann16json_abi_v3_11_310basic_jsonINS_3mapENS_6vectorENS_12basic_stringIcNS_11char_traitsIcEENS_9allocatorIcEEEEbxydS9_NS2_14adl_serializerENS5_IhNS9_IhEEEEvEENS9_ISG_EEEC2B8ue170006IDnNS_18__default_init_tagEEEOT_OT0_, symObjAddr: 0x195F0, symBinAddr: 0x10001AB68, symSize: 0x40 }
  - { offsetInCU: 0x438A8, offset: 0x438A8, size: 0x8, addend: 0x0, symName: __ZNSt3__122__compressed_pair_elemIPPN8nlohmann16json_abi_v3_11_310basic_jsonINS_3mapENS_6vectorENS_12basic_stringIcNS_11char_traitsIcEENS_9allocatorIcEEEEbxydS9_NS2_14adl_serializerENS5_IhNS9_IhEEEEvEELi0ELb0EEC2B8ue170006IDnvEEOT_, symObjAddr: 0x19630, symBinAddr: 0x10001ABA8, symSize: 0x1C }
  - { offsetInCU: 0x438EA, offset: 0x438EA, size: 0x8, addend: 0x0, symName: __ZNSt3__122__compressed_pair_elemINS_9allocatorIPN8nlohmann16json_abi_v3_11_310basic_jsonINS_3mapENS_6vectorENS_12basic_stringIcNS_11char_traitsIcEENS1_IcEEEEbxydS1_NS3_14adl_serializerENS6_IhNS1_IhEEEEvEEEELi1ELb1EEC2B8ue170006ENS_18__default_init_tagE, symObjAddr: 0x1964C, symBinAddr: 0x10001ABC4, symSize: 0x2C }
  - { offsetInCU: 0x4391F, offset: 0x4391F, size: 0x8, addend: 0x0, symName: __ZNSt3__19allocatorIPN8nlohmann16json_abi_v3_11_310basic_jsonINS_3mapENS_6vectorENS_12basic_stringIcNS_11char_traitsIcEENS0_IcEEEEbxydS0_NS2_14adl_serializerENS5_IhNS0_IhEEEEvEEEC2B8ue170006Ev, symObjAddr: 0x19678, symBinAddr: 0x10001ABF0, symSize: 0x2C }
  - { offsetInCU: 0x43949, offset: 0x43949, size: 0x8, addend: 0x0, symName: __ZNSt3__116__non_trivial_ifILb1ENS_9allocatorIPN8nlohmann16json_abi_v3_11_310basic_jsonINS_3mapENS_6vectorENS_12basic_stringIcNS_11char_traitsIcEENS1_IcEEEEbxydS1_NS3_14adl_serializerENS6_IhNS1_IhEEEEvEEEEEC2B8ue170006Ev, symObjAddr: 0x196A4, symBinAddr: 0x10001AC1C, symSize: 0x14 }
  - { offsetInCU: 0x43973, offset: 0x43973, size: 0x8, addend: 0x0, symName: __ZNSt3__16vectorIbNS_9allocatorIbEEEC2B8ue170006Ev, symObjAddr: 0x196B8, symBinAddr: 0x10001AC30, symSize: 0x4C }
  - { offsetInCU: 0x4399F, offset: 0x4399F, size: 0x8, addend: 0x0, symName: __ZNSt3__117__compressed_pairImNS_9allocatorImEEEC1B8ue170006IiNS_18__default_init_tagEEEOT_OT0_, symObjAddr: 0x19704, symBinAddr: 0x10001AC7C, symSize: 0x3C }
  - { offsetInCU: 0x439F7, offset: 0x439F7, size: 0x8, addend: 0x0, symName: __ZNSt3__117__compressed_pairImNS_9allocatorImEEEC2B8ue170006IiNS_18__default_init_tagEEEOT_OT0_, symObjAddr: 0x19740, symBinAddr: 0x10001ACB8, symSize: 0x40 }
  - { offsetInCU: 0x43A4F, offset: 0x43A4F, size: 0x8, addend: 0x0, symName: __ZNSt3__122__compressed_pair_elemINS_9allocatorImEELi1ELb1EEC2B8ue170006ENS_18__default_init_tagE, symObjAddr: 0x19780, symBinAddr: 0x10001ACF8, symSize: 0x2C }
  - { offsetInCU: 0x43A84, offset: 0x43A84, size: 0x8, addend: 0x0, symName: __ZNSt3__19allocatorImEC2B8ue170006Ev, symObjAddr: 0x197AC, symBinAddr: 0x10001AD24, symSize: 0x2C }
  - { offsetInCU: 0x43AAE, offset: 0x43AAE, size: 0x8, addend: 0x0, symName: __ZNSt3__116__non_trivial_ifILb1ENS_9allocatorImEEEC2B8ue170006Ev, symObjAddr: 0x197D8, symBinAddr: 0x10001AD50, symSize: 0x14 }
  - { offsetInCU: 0x43AD8, offset: 0x43AD8, size: 0x8, addend: 0x0, symName: __ZNKSt3__16vectorIbNS_9allocatorIbEEE8capacityB8ue170006Ev, symObjAddr: 0x197EC, symBinAddr: 0x10001AD64, symSize: 0x2C }
  - { offsetInCU: 0x43AFE, offset: 0x43AFE, size: 0x8, addend: 0x0, symName: __ZNSt3__16vectorIbNS_9allocatorIbEEE7reserveEm, symObjAddr: 0x19818, symBinAddr: 0x10001AD90, symSize: 0x118 }
  - { offsetInCU: 0x43B4B, offset: 0x43B4B, size: 0x8, addend: 0x0, symName: __ZNKSt3__16vectorIbNS_9allocatorIbEEE11__recommendB8ue170006Em, symObjAddr: 0x19930, symBinAddr: 0x10001AEA8, symSize: 0xCC }
  - { offsetInCU: 0x43BA0, offset: 0x43BA0, size: 0x8, addend: 0x0, symName: __ZNSt3__16vectorIbNS_9allocatorIbEEE4backB8ue170006Ev, symObjAddr: 0x199FC, symBinAddr: 0x10001AF74, symSize: 0x3C }
  - { offsetInCU: 0x43BC6, offset: 0x43BC6, size: 0x8, addend: 0x0, symName: __ZNSt3__115__bit_referenceINS_6vectorIbNS_9allocatorIbEEEELb1EEaSB8ue170006Eb, symObjAddr: 0x19A38, symBinAddr: 0x10001AFB0, symSize: 0x6C }
  - { offsetInCU: 0x43BFA, offset: 0x43BFA, size: 0x8, addend: 0x0, symName: __ZNSt3__16vectorIbNS_9allocatorIbEEE26__internal_cap_to_externalB8ue170006Em, symObjAddr: 0x19AA4, symBinAddr: 0x10001B01C, symSize: 0x18 }
  - { offsetInCU: 0x43C1E, offset: 0x43C1E, size: 0x8, addend: 0x0, symName: __ZNKSt3__16vectorIbNS_9allocatorIbEEE5__capB8ue170006Ev, symObjAddr: 0x19ABC, symBinAddr: 0x10001B034, symSize: 0x28 }
  - { offsetInCU: 0x43C44, offset: 0x43C44, size: 0x8, addend: 0x0, symName: __ZNKSt3__117__compressed_pairImNS_9allocatorImEEE5firstB8ue170006Ev, symObjAddr: 0x19AE4, symBinAddr: 0x10001B05C, symSize: 0x24 }
  - { offsetInCU: 0x43C6A, offset: 0x43C6A, size: 0x8, addend: 0x0, symName: __ZNKSt3__16vectorIbNS_9allocatorIbEEE8max_sizeEv, symObjAddr: 0x19B08, symBinAddr: 0x10001B080, symSize: 0x7C }
  - { offsetInCU: 0x43CB0, offset: 0x43CB0, size: 0x8, addend: 0x0, symName: __ZNKSt3__16vectorIbNS_9allocatorIbEEE20__throw_length_errorB8ue170006Ev, symObjAddr: 0x19B84, symBinAddr: 0x10001B0FC, symSize: 0x1C }
  - { offsetInCU: 0x43CD6, offset: 0x43CD6, size: 0x8, addend: 0x0, symName: __ZNKSt3__16vectorIbNS_9allocatorIbEEE13get_allocatorB8ue170006Ev, symObjAddr: 0x19BA0, symBinAddr: 0x10001B118, symSize: 0x30 }
  - { offsetInCU: 0x43CFC, offset: 0x43CFC, size: 0x8, addend: 0x0, symName: __ZNSt3__16vectorIbNS_9allocatorIbEEEC1B8ue170006ERKS2_, symObjAddr: 0x19BD0, symBinAddr: 0x10001B148, symSize: 0x34 }
  - { offsetInCU: 0x43D37, offset: 0x43D37, size: 0x8, addend: 0x0, symName: __ZNSt3__16vectorIbNS_9allocatorIbEEE11__vallocateB8ue170006Em, symObjAddr: 0x19C04, symBinAddr: 0x10001B17C, symSize: 0xA0 }
  - { offsetInCU: 0x43D7B, offset: 0x43D7B, size: 0x8, addend: 0x0, symName: __ZNSt3__16vectorIbNS_9allocatorIbEEE18__construct_at_endINS_14__bit_iteratorIS3_Lb0ELm0EEES6_EEvT_T0_m, symObjAddr: 0x19CA4, symBinAddr: 0x10001B21C, symSize: 0x12C }
  - { offsetInCU: 0x43DF3, offset: 0x43DF3, size: 0x8, addend: 0x0, symName: __ZNSt3__16vectorIbNS_9allocatorIbEEE5beginB8ue170006Ev, symObjAddr: 0x19DD0, symBinAddr: 0x10001B348, symSize: 0x30 }
  - { offsetInCU: 0x43E19, offset: 0x43E19, size: 0x8, addend: 0x0, symName: __ZNSt3__16vectorIbNS_9allocatorIbEEE3endB8ue170006Ev, symObjAddr: 0x19E00, symBinAddr: 0x10001B378, symSize: 0x30 }
  - { offsetInCU: 0x43E3F, offset: 0x43E3F, size: 0x8, addend: 0x0, symName: __ZNKSt3__16vectorIbNS_9allocatorIbEEE4sizeB8ue170006Ev, symObjAddr: 0x19E30, symBinAddr: 0x10001B3A8, symSize: 0x18 }
  - { offsetInCU: 0x43E65, offset: 0x43E65, size: 0x8, addend: 0x0, symName: __ZNSt3__16vectorIbNS_9allocatorIbEEE4swapERS3_, symObjAddr: 0x19E48, symBinAddr: 0x10001B3C0, symSize: 0x84 }
  - { offsetInCU: 0x43EA7, offset: 0x43EA7, size: 0x8, addend: 0x0, symName: __ZNSt3__116allocator_traitsINS_9allocatorImEEE8max_sizeB8ue170006IS2_vvEEmRKS2_, symObjAddr: 0x19ECC, symBinAddr: 0x10001B444, symSize: 0x28 }
  - { offsetInCU: 0x43ED2, offset: 0x43ED2, size: 0x8, addend: 0x0, symName: __ZNKSt3__16vectorIbNS_9allocatorIbEEE7__allocB8ue170006Ev, symObjAddr: 0x19EF4, symBinAddr: 0x10001B46C, symSize: 0x28 }
  - { offsetInCU: 0x43EF8, offset: 0x43EF8, size: 0x8, addend: 0x0, symName: __ZNKSt3__117__compressed_pairImNS_9allocatorImEEE6secondB8ue170006Ev, symObjAddr: 0x19F1C, symBinAddr: 0x10001B494, symSize: 0x24 }
  - { offsetInCU: 0x43F1E, offset: 0x43F1E, size: 0x8, addend: 0x0, symName: __ZNKSt3__122__compressed_pair_elemINS_9allocatorImEELi1ELb1EE5__getB8ue170006Ev, symObjAddr: 0x19F40, symBinAddr: 0x10001B4B8, symSize: 0x14 }
  - { offsetInCU: 0x43F44, offset: 0x43F44, size: 0x8, addend: 0x0, symName: __ZNSt3__19allocatorIbEC1B8ue170006ImEERKNS0_IT_EE, symObjAddr: 0x19F54, symBinAddr: 0x10001B4CC, symSize: 0x34 }
  - { offsetInCU: 0x43F82, offset: 0x43F82, size: 0x8, addend: 0x0, symName: __ZNSt3__19allocatorIbEC2B8ue170006ImEERKNS0_IT_EE, symObjAddr: 0x19F88, symBinAddr: 0x10001B500, symSize: 0x30 }
  - { offsetInCU: 0x43FC0, offset: 0x43FC0, size: 0x8, addend: 0x0, symName: __ZNSt3__116__non_trivial_ifILb1ENS_9allocatorIbEEEC2B8ue170006Ev, symObjAddr: 0x19FB8, symBinAddr: 0x10001B530, symSize: 0x14 }
  - { offsetInCU: 0x43FEA, offset: 0x43FEA, size: 0x8, addend: 0x0, symName: __ZNSt3__16vectorIbNS_9allocatorIbEEEC2B8ue170006ERKS2_, symObjAddr: 0x19FCC, symBinAddr: 0x10001B544, symSize: 0x6C }
  - { offsetInCU: 0x44030, offset: 0x44030, size: 0x8, addend: 0x0, symName: __ZNSt3__19allocatorImEC1B8ue170006IbEERKNS0_IT_EE, symObjAddr: 0x1A038, symBinAddr: 0x10001B5B0, symSize: 0x34 }
  - { offsetInCU: 0x44074, offset: 0x44074, size: 0x8, addend: 0x0, symName: __ZNSt3__117__compressed_pairImNS_9allocatorImEEEC1B8ue170006IiS2_EEOT_OT0_, symObjAddr: 0x1A06C, symBinAddr: 0x10001B5E4, symSize: 0x3C }
  - { offsetInCU: 0x440CC, offset: 0x440CC, size: 0x8, addend: 0x0, symName: __ZNSt3__19allocatorImEC2B8ue170006IbEERKNS0_IT_EE, symObjAddr: 0x1A0A8, symBinAddr: 0x10001B620, symSize: 0x30 }
  - { offsetInCU: 0x4410A, offset: 0x4410A, size: 0x8, addend: 0x0, symName: __ZNSt3__117__compressed_pairImNS_9allocatorImEEEC2B8ue170006IiS2_EEOT_OT0_, symObjAddr: 0x1A0D8, symBinAddr: 0x10001B650, symSize: 0x44 }
  - { offsetInCU: 0x44162, offset: 0x44162, size: 0x8, addend: 0x0, symName: __ZNSt3__122__compressed_pair_elemINS_9allocatorImEELi1ELb1EEC2B8ue170006IS2_vEEOT_, symObjAddr: 0x1A11C, symBinAddr: 0x10001B694, symSize: 0x18 }
  - { offsetInCU: 0x441A4, offset: 0x441A4, size: 0x8, addend: 0x0, symName: __ZNSt3__16vectorIbNS_9allocatorIbEEE7__allocB8ue170006Ev, symObjAddr: 0x1A174, symBinAddr: 0x10001B6EC, symSize: 0x28 }
  - { offsetInCU: 0x441CA, offset: 0x441CA, size: 0x8, addend: 0x0, symName: __ZNSt3__16vectorIbNS_9allocatorIbEEE26__external_cap_to_internalB8ue170006Em, symObjAddr: 0x1A19C, symBinAddr: 0x10001B714, symSize: 0x24 }
  - { offsetInCU: 0x441EE, offset: 0x441EE, size: 0x8, addend: 0x0, symName: __ZNSt3__16vectorIbNS_9allocatorIbEEE5__capB8ue170006Ev, symObjAddr: 0x1A1C0, symBinAddr: 0x10001B738, symSize: 0x28 }
  - { offsetInCU: 0x44214, offset: 0x44214, size: 0x8, addend: 0x0, symName: __ZNSt3__19allocatorImE8allocateB8ue170006Em, symObjAddr: 0x1A1E8, symBinAddr: 0x10001B760, symSize: 0x58 }
  - { offsetInCU: 0x44248, offset: 0x44248, size: 0x8, addend: 0x0, symName: __ZNSt3__117__compressed_pairImNS_9allocatorImEEE6secondB8ue170006Ev, symObjAddr: 0x1A240, symBinAddr: 0x10001B7B8, symSize: 0x24 }
  - { offsetInCU: 0x4426E, offset: 0x4426E, size: 0x8, addend: 0x0, symName: __ZNSt3__122__compressed_pair_elemINS_9allocatorImEELi1ELb1EE5__getB8ue170006Ev, symObjAddr: 0x1A264, symBinAddr: 0x10001B7DC, symSize: 0x14 }
  - { offsetInCU: 0x44294, offset: 0x44294, size: 0x8, addend: 0x0, symName: __ZNSt3__117__compressed_pairImNS_9allocatorImEEE5firstB8ue170006Ev, symObjAddr: 0x1A278, symBinAddr: 0x10001B7F0, symSize: 0x24 }
  - { offsetInCU: 0x442BA, offset: 0x442BA, size: 0x8, addend: 0x0, symName: __ZNSt3__114__bit_iteratorINS_6vectorIbNS_9allocatorIbEEEELb0ELm0EEC1B8ue170006ERKS5_, symObjAddr: 0x1A324, symBinAddr: 0x10001B89C, symSize: 0x34 }
  - { offsetInCU: 0x442F3, offset: 0x442F3, size: 0x8, addend: 0x0, symName: __ZNSt3__16vectorIbNS_9allocatorIbEEE11__make_iterB8ue170006Em, symObjAddr: 0x1A358, symBinAddr: 0x10001B8D0, symSize: 0x64 }
  - { offsetInCU: 0x44350, offset: 0x44350, size: 0x8, addend: 0x0, symName: __ZNKSt3__111__copy_loopINS_17_ClassicAlgPolicyEEclB8ue170006INS_14__bit_iteratorINS_6vectorIbNS_9allocatorIbEEEELb0ELm0EEES9_S9_EENS_4pairIT_T1_EESB_T0_SC_, symObjAddr: 0x1A60C, symBinAddr: 0x10001BB84, symSize: 0xB8 }
  - { offsetInCU: 0x443BE, offset: 0x443BE, size: 0x8, addend: 0x0, symName: __ZNSt3__119__unwrap_range_implINS_14__bit_iteratorINS_6vectorIbNS_9allocatorIbEEEELb0ELm0EEES6_E8__unwrapB8ue170006ES6_S6_, symObjAddr: 0x1A828, symBinAddr: 0x10001BDA0, symSize: 0x8C }
  - { offsetInCU: 0x443F7, offset: 0x443F7, size: 0x8, addend: 0x0, symName: __ZNSt3__14pairINS_14__bit_iteratorINS_6vectorIbNS_9allocatorIbEEEELb0ELm0EEES6_EC1B8ue170006IS6_S6_LPv0EEEOT_OT0_, symObjAddr: 0x1A8B4, symBinAddr: 0x10001BE2C, symSize: 0x3C }
  - { offsetInCU: 0x44455, offset: 0x44455, size: 0x8, addend: 0x0, symName: __ZNSt3__14pairINS_14__bit_iteratorINS_6vectorIbNS_9allocatorIbEEEELb0ELm0EEES6_EC2B8ue170006IS6_S6_LPv0EEEOT_OT0_, symObjAddr: 0x1A8F0, symBinAddr: 0x10001BE68, symSize: 0x48 }
  - { offsetInCU: 0x444B3, offset: 0x444B3, size: 0x8, addend: 0x0, symName: __ZNKSt3__114__bit_iteratorINS_6vectorIbNS_9allocatorIbEEEELb0ELm0EEdeB8ue170006Ev, symObjAddr: 0x1A96C, symBinAddr: 0x10001BEE4, symSize: 0x44 }
  - { offsetInCU: 0x444D9, offset: 0x444D9, size: 0x8, addend: 0x0, symName: __ZNSt3__115__bit_referenceINS_6vectorIbNS_9allocatorIbEEEELb1EEaSB8ue170006ERKS5_, symObjAddr: 0x1A9B0, symBinAddr: 0x10001BF28, symSize: 0x40 }
  - { offsetInCU: 0x4450D, offset: 0x4450D, size: 0x8, addend: 0x0, symName: __ZNSt3__114__bit_iteratorINS_6vectorIbNS_9allocatorIbEEEELb0ELm0EEppB8ue170006Ev, symObjAddr: 0x1A9F0, symBinAddr: 0x10001BF68, symSize: 0x5C }
  - { offsetInCU: 0x44533, offset: 0x44533, size: 0x8, addend: 0x0, symName: __ZNSt3__115__bit_referenceINS_6vectorIbNS_9allocatorIbEEEELb1EEC1B8ue170006EPmm, symObjAddr: 0x1AAB0, symBinAddr: 0x10001C028, symSize: 0x3C }
  - { offsetInCU: 0x44579, offset: 0x44579, size: 0x8, addend: 0x0, symName: __ZNSt3__115__bit_referenceINS_6vectorIbNS_9allocatorIbEEEELb1EEC2B8ue170006EPmm, symObjAddr: 0x1AAEC, symBinAddr: 0x10001C064, symSize: 0x2C }
  - { offsetInCU: 0x445BF, offset: 0x445BF, size: 0x8, addend: 0x0, symName: __ZNKSt3__115__bit_referenceINS_6vectorIbNS_9allocatorIbEEEELb1EEcvbB8ue170006Ev, symObjAddr: 0x1AB18, symBinAddr: 0x10001C090, symSize: 0x2C }
  - { offsetInCU: 0x445E5, offset: 0x445E5, size: 0x8, addend: 0x0, symName: __ZNSt3__118__unwrap_iter_implINS_14__bit_iteratorINS_6vectorIbNS_9allocatorIbEEEELb0ELm0EEELb0EE8__unwrapB8ue170006ES6_, symObjAddr: 0x1AB44, symBinAddr: 0x10001C0BC, symSize: 0x38 }
  - { offsetInCU: 0x44609, offset: 0x44609, size: 0x8, addend: 0x0, symName: __ZNSt3__119__unwrap_range_implINS_14__bit_iteratorINS_6vectorIbNS_9allocatorIbEEEELb0ELm0EEES6_E8__rewrapB8ue170006ES6_S6_, symObjAddr: 0x1AB7C, symBinAddr: 0x10001C0F4, symSize: 0x6C }
  - { offsetInCU: 0x4463C, offset: 0x4463C, size: 0x8, addend: 0x0, symName: __ZNSt3__118__unwrap_iter_implINS_14__bit_iteratorINS_6vectorIbNS_9allocatorIbEEEELb0ELm0EEELb0EE8__rewrapB8ue170006ES6_S6_, symObjAddr: 0x1ABE8, symBinAddr: 0x10001C160, symSize: 0x3C }
  - { offsetInCU: 0x4466C, offset: 0x4466C, size: 0x8, addend: 0x0, symName: __ZNSt3__114__bit_iteratorINS_6vectorIbNS_9allocatorIbEEEELb0ELm0EEC2B8ue170006ERKS5_, symObjAddr: 0x1AC24, symBinAddr: 0x10001C19C, symSize: 0x30 }
  - { offsetInCU: 0x446A5, offset: 0x446A5, size: 0x8, addend: 0x0, symName: __ZNSt3__114__bit_iteratorINS_6vectorIbNS_9allocatorIbEEEELb0ELm0EEC1B8ue170006EPmj, symObjAddr: 0x1AC54, symBinAddr: 0x10001C1CC, symSize: 0x3C }
  - { offsetInCU: 0x446ED, offset: 0x446ED, size: 0x8, addend: 0x0, symName: __ZNSt3__114__bit_iteratorINS_6vectorIbNS_9allocatorIbEEEELb0ELm0EEC2B8ue170006EPmj, symObjAddr: 0x1AC90, symBinAddr: 0x10001C208, symSize: 0x2C }
  - { offsetInCU: 0x44735, offset: 0x44735, size: 0x8, addend: 0x0, symName: __ZNSt3__16vectorIbNS_9allocatorIbEEE10__align_itB8ue170006Em, symObjAddr: 0x1AD48, symBinAddr: 0x10001C2C0, symSize: 0x1C }
  - { offsetInCU: 0x44759, offset: 0x44759, size: 0x8, addend: 0x0, symName: __ZNSt3__16vectorIbNS_9allocatorIbEEE10__make_refB8ue170006Em, symObjAddr: 0x1AD64, symBinAddr: 0x10001C2DC, symSize: 0x60 }
  - { offsetInCU: 0x4478E, offset: 0x4478E, size: 0x8, addend: 0x0, symName: __ZNSt3__16vectorIbNS_9allocatorIbEEED2B8ue170006Ev, symObjAddr: 0x1ADC4, symBinAddr: 0x10001C33C, symSize: 0x44 }
  - { offsetInCU: 0x447B8, offset: 0x447B8, size: 0x8, addend: 0x0, symName: __ZNSt3__16vectorIbNS_9allocatorIbEEE16__destroy_vectorC1B8ue170006ERS3_, symObjAddr: 0x1AE08, symBinAddr: 0x10001C380, symSize: 0x34 }
  - { offsetInCU: 0x447F1, offset: 0x447F1, size: 0x8, addend: 0x0, symName: __ZNSt3__16vectorIbNS_9allocatorIbEEE16__destroy_vectorclB8ue170006Ev, symObjAddr: 0x1AE3C, symBinAddr: 0x10001C3B4, symSize: 0x7C }
  - { offsetInCU: 0x44817, offset: 0x44817, size: 0x8, addend: 0x0, symName: __ZNSt3__16vectorIbNS_9allocatorIbEEE16__destroy_vectorC2B8ue170006ERS3_, symObjAddr: 0x1AEB8, symBinAddr: 0x10001C430, symSize: 0x20 }
  - { offsetInCU: 0x44850, offset: 0x44850, size: 0x8, addend: 0x0, symName: __ZNSt3__116allocator_traitsINS_9allocatorImEEE10deallocateB8ue170006ERS2_Pmm, symObjAddr: 0x1AED8, symBinAddr: 0x10001C450, symSize: 0x34 }
  - { offsetInCU: 0x44892, offset: 0x44892, size: 0x8, addend: 0x0, symName: __ZNSt3__19allocatorImE10deallocateB8ue170006EPmm, symObjAddr: 0x1AF0C, symBinAddr: 0x10001C484, symSize: 0x40 }
  - { offsetInCU: 0x448D4, offset: 0x448D4, size: 0x8, addend: 0x0, symName: __ZNSt3__16vectorIPN8nlohmann16json_abi_v3_11_310basic_jsonINS_3mapES0_NS_12basic_stringIcNS_11char_traitsIcEENS_9allocatorIcEEEEbxydS8_NS2_14adl_serializerENS0_IhNS8_IhEEEEvEENS8_ISF_EEED2B8ue170006Ev, symObjAddr: 0x1AF4C, symBinAddr: 0x10001C4C4, symSize: 0x44 }
  - { offsetInCU: 0x448FE, offset: 0x448FE, size: 0x8, addend: 0x0, symName: __ZNSt3__16vectorIPN8nlohmann16json_abi_v3_11_310basic_jsonINS_3mapES0_NS_12basic_stringIcNS_11char_traitsIcEENS_9allocatorIcEEEEbxydS8_NS2_14adl_serializerENS0_IhNS8_IhEEEEvEENS8_ISF_EEE16__destroy_vectorC1B8ue170006ERSH_, symObjAddr: 0x1AF90, symBinAddr: 0x10001C508, symSize: 0x34 }
  - { offsetInCU: 0x44937, offset: 0x44937, size: 0x8, addend: 0x0, symName: __ZNSt3__16vectorIPN8nlohmann16json_abi_v3_11_310basic_jsonINS_3mapES0_NS_12basic_stringIcNS_11char_traitsIcEENS_9allocatorIcEEEEbxydS8_NS2_14adl_serializerENS0_IhNS8_IhEEEEvEENS8_ISF_EEE16__destroy_vectorclB8ue170006Ev, symObjAddr: 0x1AFC4, symBinAddr: 0x10001C53C, symSize: 0x90 }
  - { offsetInCU: 0x4495D, offset: 0x4495D, size: 0x8, addend: 0x0, symName: __ZNSt3__16vectorIPN8nlohmann16json_abi_v3_11_310basic_jsonINS_3mapES0_NS_12basic_stringIcNS_11char_traitsIcEENS_9allocatorIcEEEEbxydS8_NS2_14adl_serializerENS0_IhNS8_IhEEEEvEENS8_ISF_EEE16__destroy_vectorC2B8ue170006ERSH_, symObjAddr: 0x1B054, symBinAddr: 0x10001C5CC, symSize: 0x20 }
  - { offsetInCU: 0x44996, offset: 0x44996, size: 0x8, addend: 0x0, symName: __ZNSt3__16vectorIPN8nlohmann16json_abi_v3_11_310basic_jsonINS_3mapES0_NS_12basic_stringIcNS_11char_traitsIcEENS_9allocatorIcEEEEbxydS8_NS2_14adl_serializerENS0_IhNS8_IhEEEEvEENS8_ISF_EEE7__clearB8ue170006Ev, symObjAddr: 0x1B074, symBinAddr: 0x10001C5EC, symSize: 0x28 }
  - { offsetInCU: 0x449BC, offset: 0x449BC, size: 0x8, addend: 0x0, symName: __ZNKSt3__16vectorIPN8nlohmann16json_abi_v3_11_310basic_jsonINS_3mapES0_NS_12basic_stringIcNS_11char_traitsIcEENS_9allocatorIcEEEEbxydS8_NS2_14adl_serializerENS0_IhNS8_IhEEEEvEENS8_ISF_EEE17__annotate_deleteB8ue170006Ev, symObjAddr: 0x1B09C, symBinAddr: 0x10001C614, symSize: 0xB8 }
  - { offsetInCU: 0x449E2, offset: 0x449E2, size: 0x8, addend: 0x0, symName: __ZNSt3__116allocator_traitsINS_9allocatorIPN8nlohmann16json_abi_v3_11_310basic_jsonINS_3mapENS_6vectorENS_12basic_stringIcNS_11char_traitsIcEENS1_IcEEEEbxydS1_NS3_14adl_serializerENS6_IhNS1_IhEEEEvEEEEE10deallocateB8ue170006ERSH_PSG_m, symObjAddr: 0x1B154, symBinAddr: 0x10001C6CC, symSize: 0x34 }
  - { offsetInCU: 0x44A24, offset: 0x44A24, size: 0x8, addend: 0x0, symName: __ZNSt3__16vectorIPN8nlohmann16json_abi_v3_11_310basic_jsonINS_3mapES0_NS_12basic_stringIcNS_11char_traitsIcEENS_9allocatorIcEEEEbxydS8_NS2_14adl_serializerENS0_IhNS8_IhEEEEvEENS8_ISF_EEE7__allocB8ue170006Ev, symObjAddr: 0x1B188, symBinAddr: 0x10001C700, symSize: 0x28 }
  - { offsetInCU: 0x44A4A, offset: 0x44A4A, size: 0x8, addend: 0x0, symName: __ZNKSt3__16vectorIPN8nlohmann16json_abi_v3_11_310basic_jsonINS_3mapES0_NS_12basic_stringIcNS_11char_traitsIcEENS_9allocatorIcEEEEbxydS8_NS2_14adl_serializerENS0_IhNS8_IhEEEEvEENS8_ISF_EEE8capacityB8ue170006Ev, symObjAddr: 0x1B1B0, symBinAddr: 0x10001C728, symSize: 0x40 }
  - { offsetInCU: 0x44A70, offset: 0x44A70, size: 0x8, addend: 0x0, symName: __ZNSt3__16vectorIPN8nlohmann16json_abi_v3_11_310basic_jsonINS_3mapES0_NS_12basic_stringIcNS_11char_traitsIcEENS_9allocatorIcEEEEbxydS8_NS2_14adl_serializerENS0_IhNS8_IhEEEEvEENS8_ISF_EEE22__base_destruct_at_endB8ue170006EPSF_, symObjAddr: 0x1B1F0, symBinAddr: 0x10001C768, symSize: 0x8C }
  - { offsetInCU: 0x44AB4, offset: 0x44AB4, size: 0x8, addend: 0x0, symName: __ZNSt3__116allocator_traitsINS_9allocatorIPN8nlohmann16json_abi_v3_11_310basic_jsonINS_3mapENS_6vectorENS_12basic_stringIcNS_11char_traitsIcEENS1_IcEEEEbxydS1_NS3_14adl_serializerENS6_IhNS1_IhEEEEvEEEEE7destroyB8ue170006ISG_vvEEvRSH_PT_, symObjAddr: 0x1B27C, symBinAddr: 0x10001C7F4, symSize: 0x28 }
  - { offsetInCU: 0x44AEE, offset: 0x44AEE, size: 0x8, addend: 0x0, symName: __ZNKSt3__16vectorIPN8nlohmann16json_abi_v3_11_310basic_jsonINS_3mapES0_NS_12basic_stringIcNS_11char_traitsIcEENS_9allocatorIcEEEEbxydS8_NS2_14adl_serializerENS0_IhNS8_IhEEEEvEENS8_ISF_EEE31__annotate_contiguous_containerB8ue170006EPKvSJ_SJ_SJ_, symObjAddr: 0x1B2EC, symBinAddr: 0x10001C864, symSize: 0x20 }
  - { offsetInCU: 0x44B40, offset: 0x44B40, size: 0x8, addend: 0x0, symName: __ZNKSt3__16vectorIPN8nlohmann16json_abi_v3_11_310basic_jsonINS_3mapES0_NS_12basic_stringIcNS_11char_traitsIcEENS_9allocatorIcEEEEbxydS8_NS2_14adl_serializerENS0_IhNS8_IhEEEEvEENS8_ISF_EEE4dataB8ue170006Ev, symObjAddr: 0x1B30C, symBinAddr: 0x10001C884, symSize: 0x28 }
  - { offsetInCU: 0x44B66, offset: 0x44B66, size: 0x8, addend: 0x0, symName: __ZNKSt3__16vectorIPN8nlohmann16json_abi_v3_11_310basic_jsonINS_3mapES0_NS_12basic_stringIcNS_11char_traitsIcEENS_9allocatorIcEEEEbxydS8_NS2_14adl_serializerENS0_IhNS8_IhEEEEvEENS8_ISF_EEE4sizeB8ue170006Ev, symObjAddr: 0x1B334, symBinAddr: 0x10001C8AC, symSize: 0x28 }
  - { offsetInCU: 0x44B8C, offset: 0x44B8C, size: 0x8, addend: 0x0, symName: __ZNSt3__19allocatorIPN8nlohmann16json_abi_v3_11_310basic_jsonINS_3mapENS_6vectorENS_12basic_stringIcNS_11char_traitsIcEENS0_IcEEEEbxydS0_NS2_14adl_serializerENS5_IhNS0_IhEEEEvEEE10deallocateB8ue170006EPSF_m, symObjAddr: 0x1B35C, symBinAddr: 0x10001C8D4, symSize: 0x40 }
  - { offsetInCU: 0x44BCE, offset: 0x44BCE, size: 0x8, addend: 0x0, symName: __ZNSt3__117__compressed_pairIPPN8nlohmann16json_abi_v3_11_310basic_jsonINS_3mapENS_6vectorENS_12basic_stringIcNS_11char_traitsIcEENS_9allocatorIcEEEEbxydS9_NS2_14adl_serializerENS5_IhNS9_IhEEEEvEENS9_ISG_EEE6secondB8ue170006Ev, symObjAddr: 0x1B39C, symBinAddr: 0x10001C914, symSize: 0x24 }
  - { offsetInCU: 0x44BF4, offset: 0x44BF4, size: 0x8, addend: 0x0, symName: __ZNSt3__122__compressed_pair_elemINS_9allocatorIPN8nlohmann16json_abi_v3_11_310basic_jsonINS_3mapENS_6vectorENS_12basic_stringIcNS_11char_traitsIcEENS1_IcEEEEbxydS1_NS3_14adl_serializerENS6_IhNS1_IhEEEEvEEEELi1ELb1EE5__getB8ue170006Ev, symObjAddr: 0x1B3C0, symBinAddr: 0x10001C938, symSize: 0x14 }
  - { offsetInCU: 0x44C1A, offset: 0x44C1A, size: 0x8, addend: 0x0, symName: __ZNKSt3__16vectorIPN8nlohmann16json_abi_v3_11_310basic_jsonINS_3mapES0_NS_12basic_stringIcNS_11char_traitsIcEENS_9allocatorIcEEEEbxydS8_NS2_14adl_serializerENS0_IhNS8_IhEEEEvEENS8_ISF_EEE9__end_capB8ue170006Ev, symObjAddr: 0x1B3D4, symBinAddr: 0x10001C94C, symSize: 0x28 }
  - { offsetInCU: 0x44C40, offset: 0x44C40, size: 0x8, addend: 0x0, symName: __ZNKSt3__117__compressed_pairIPPN8nlohmann16json_abi_v3_11_310basic_jsonINS_3mapENS_6vectorENS_12basic_stringIcNS_11char_traitsIcEENS_9allocatorIcEEEEbxydS9_NS2_14adl_serializerENS5_IhNS9_IhEEEEvEENS9_ISG_EEE5firstB8ue170006Ev, symObjAddr: 0x1B3FC, symBinAddr: 0x10001C974, symSize: 0x24 }
  - { offsetInCU: 0x44C66, offset: 0x44C66, size: 0x8, addend: 0x0, symName: __ZNKSt3__122__compressed_pair_elemIPPN8nlohmann16json_abi_v3_11_310basic_jsonINS_3mapENS_6vectorENS_12basic_stringIcNS_11char_traitsIcEENS_9allocatorIcEEEEbxydS9_NS2_14adl_serializerENS5_IhNS9_IhEEEEvEELi0ELb0EE5__getB8ue170006Ev, symObjAddr: 0x1B420, symBinAddr: 0x10001C998, symSize: 0x14 }
  - { offsetInCU: 0x44C8C, offset: 0x44C8C, size: 0x8, addend: 0x0, symName: __ZN8nlohmann16json_abi_v3_11_36detail28json_sax_dom_callback_parserINS0_10basic_jsonINSt3__13mapENS4_6vectorENS4_12basic_stringIcNS4_11char_traitsIcEENS4_9allocatorIcEEEEbxydSA_NS0_14adl_serializerENS6_IhNSA_IhEEEEvEEE12start_objectEm, symObjAddr: 0x1B434, symBinAddr: 0x10001C9AC, symSize: 0x224 }
  - { offsetInCU: 0x44CDF, offset: 0x44CDF, size: 0x8, addend: 0x0, symName: __ZN8nlohmann16json_abi_v3_11_36detail28json_sax_dom_callback_parserINS0_10basic_jsonINSt3__13mapENS4_6vectorENS4_12basic_stringIcNS4_11char_traitsIcEENS4_9allocatorIcEEEEbxydSA_NS0_14adl_serializerENS6_IhNSA_IhEEEEvEEE10end_objectEv, symObjAddr: 0x1B658, symBinAddr: 0x10001CBD0, symSize: 0x270 }
  - { offsetInCU: 0x44D23, offset: 0x44D23, size: 0x8, addend: 0x0, symName: __ZN8nlohmann16json_abi_v3_11_36detail28json_sax_dom_callback_parserINS0_10basic_jsonINSt3__13mapENS4_6vectorENS4_12basic_stringIcNS4_11char_traitsIcEENS4_9allocatorIcEEEEbxydSA_NS0_14adl_serializerENS6_IhNSA_IhEEEEvEEE3keyERSC_, symObjAddr: 0x1B8C8, symBinAddr: 0x10001CE40, symSize: 0x15C }
  - { offsetInCU: 0x44D76, offset: 0x44D76, size: 0x8, addend: 0x0, symName: __ZN8nlohmann16json_abi_v3_11_36detail5lexerINS0_10basic_jsonINSt3__13mapENS4_6vectorENS4_12basic_stringIcNS4_11char_traitsIcEENS4_9allocatorIcEEEEbxydSA_NS0_14adl_serializerENS6_IhNSA_IhEEEEvEENS1_20input_stream_adapterEE10get_stringEv, symObjAddr: 0x1BA24, symBinAddr: 0x10001CF9C, symSize: 0x18 }
  - { offsetInCU: 0x44D9C, offset: 0x44D9C, size: 0x8, addend: 0x0, symName: __ZN8nlohmann16json_abi_v3_11_36detail28json_sax_dom_callback_parserINS0_10basic_jsonINSt3__13mapENS4_6vectorENS4_12basic_stringIcNS4_11char_traitsIcEENS4_9allocatorIcEEEEbxydSA_NS0_14adl_serializerENS6_IhNSA_IhEEEEvEEE11start_arrayEm, symObjAddr: 0x1BA3C, symBinAddr: 0x10001CFB4, symSize: 0x224 }
  - { offsetInCU: 0x44DEF, offset: 0x44DEF, size: 0x8, addend: 0x0, symName: __ZN8nlohmann16json_abi_v3_11_36detail28json_sax_dom_callback_parserINS0_10basic_jsonINSt3__13mapENS4_6vectorENS4_12basic_stringIcNS4_11char_traitsIcEENS4_9allocatorIcEEEEbxydSA_NS0_14adl_serializerENS6_IhNSA_IhEEEEvEEE9end_arrayEv, symObjAddr: 0x1BC60, symBinAddr: 0x10001D1D8, symSize: 0x1E4 }
  - { offsetInCU: 0x44E24, offset: 0x44E24, size: 0x8, addend: 0x0, symName: __ZNK8nlohmann16json_abi_v3_11_36detail5lexerINS0_10basic_jsonINSt3__13mapENS4_6vectorENS4_12basic_stringIcNS4_11char_traitsIcEENS4_9allocatorIcEEEEbxydSA_NS0_14adl_serializerENS6_IhNSA_IhEEEEvEENS1_20input_stream_adapterEE16get_number_floatEv, symObjAddr: 0x1BE44, symBinAddr: 0x10001D3BC, symSize: 0x18 }
  - { offsetInCU: 0x44E49, offset: 0x44E49, size: 0x8, addend: 0x0, symName: __Z8isfiniteB8ue170006IdLi0EEbT_, symObjAddr: 0x1BE5C, symBinAddr: 0x10001D3D4, symSize: 0x34 }
  - { offsetInCU: 0x44E98, offset: 0x44E98, size: 0x8, addend: 0x0, symName: __ZN8nlohmann16json_abi_v3_11_36detail28json_sax_dom_callback_parserINS0_10basic_jsonINSt3__13mapENS4_6vectorENS4_12basic_stringIcNS4_11char_traitsIcEENS4_9allocatorIcEEEEbxydSA_NS0_14adl_serializerENS6_IhNSA_IhEEEEvEEE11parse_errorINS1_12out_of_rangeEEEbmRKSC_RKT_, symObjAddr: 0x1BE90, symBinAddr: 0x10001D408, symSize: 0x74 }
  - { offsetInCU: 0x44EEC, offset: 0x44EEC, size: 0x8, addend: 0x0, symName: __ZN8nlohmann16json_abi_v3_11_36detail12out_of_range6createIDnLi0EEES2_iRKNSt3__112basic_stringIcNS4_11char_traitsIcEENS4_9allocatorIcEEEET_, symObjAddr: 0x1BF04, symBinAddr: 0x10001D47C, symSize: 0x130 }
  - { offsetInCU: 0x44F4C, offset: 0x44F4C, size: 0x8, addend: 0x0, symName: __ZN8nlohmann16json_abi_v3_11_36detail12out_of_rangeD1Ev, symObjAddr: 0x1C10C, symBinAddr: 0x10001D684, symSize: 0x2C }
  - { offsetInCU: 0x44F79, offset: 0x44F79, size: 0x8, addend: 0x0, symName: __ZN8nlohmann16json_abi_v3_11_36detail28json_sax_dom_callback_parserINS0_10basic_jsonINSt3__13mapENS4_6vectorENS4_12basic_stringIcNS4_11char_traitsIcEENS4_9allocatorIcEEEEbxydSA_NS0_14adl_serializerENS6_IhNSA_IhEEEEvEEE12number_floatEdRKSC_, symObjAddr: 0x1C138, symBinAddr: 0x10001D6B0, symSize: 0x54 }
  - { offsetInCU: 0x44FB9, offset: 0x44FB9, size: 0x8, addend: 0x0, symName: __ZN8nlohmann16json_abi_v3_11_36detail28json_sax_dom_callback_parserINS0_10basic_jsonINSt3__13mapENS4_6vectorENS4_12basic_stringIcNS4_11char_traitsIcEENS4_9allocatorIcEEEEbxydSA_NS0_14adl_serializerENS6_IhNSA_IhEEEEvEEE7booleanEb, symObjAddr: 0x1C18C, symBinAddr: 0x10001D704, symSize: 0x50 }
  - { offsetInCU: 0x44FEE, offset: 0x44FEE, size: 0x8, addend: 0x0, symName: __ZN8nlohmann16json_abi_v3_11_36detail28json_sax_dom_callback_parserINS0_10basic_jsonINSt3__13mapENS4_6vectorENS4_12basic_stringIcNS4_11char_traitsIcEENS4_9allocatorIcEEEEbxydSA_NS0_14adl_serializerENS6_IhNSA_IhEEEEvEEE4nullEv, symObjAddr: 0x1C1DC, symBinAddr: 0x10001D754, symSize: 0x4C }
  - { offsetInCU: 0x45014, offset: 0x45014, size: 0x8, addend: 0x0, symName: __ZN8nlohmann16json_abi_v3_11_36detail28json_sax_dom_callback_parserINS0_10basic_jsonINSt3__13mapENS4_6vectorENS4_12basic_stringIcNS4_11char_traitsIcEENS4_9allocatorIcEEEEbxydSA_NS0_14adl_serializerENS6_IhNSA_IhEEEEvEEE14number_integerEx, symObjAddr: 0x1C228, symBinAddr: 0x10001D7A0, symSize: 0x50 }
  - { offsetInCU: 0x45049, offset: 0x45049, size: 0x8, addend: 0x0, symName: __ZNK8nlohmann16json_abi_v3_11_36detail5lexerINS0_10basic_jsonINSt3__13mapENS4_6vectorENS4_12basic_stringIcNS4_11char_traitsIcEENS4_9allocatorIcEEEEbxydSA_NS0_14adl_serializerENS6_IhNSA_IhEEEEvEENS1_20input_stream_adapterEE18get_number_integerEv, symObjAddr: 0x1C278, symBinAddr: 0x10001D7F0, symSize: 0x18 }
  - { offsetInCU: 0x4506F, offset: 0x4506F, size: 0x8, addend: 0x0, symName: __ZN8nlohmann16json_abi_v3_11_36detail28json_sax_dom_callback_parserINS0_10basic_jsonINSt3__13mapENS4_6vectorENS4_12basic_stringIcNS4_11char_traitsIcEENS4_9allocatorIcEEEEbxydSA_NS0_14adl_serializerENS6_IhNSA_IhEEEEvEEE6stringERSC_, symObjAddr: 0x1C290, symBinAddr: 0x10001D808, symSize: 0x4C }
  - { offsetInCU: 0x450A4, offset: 0x450A4, size: 0x8, addend: 0x0, symName: __ZN8nlohmann16json_abi_v3_11_36detail28json_sax_dom_callback_parserINS0_10basic_jsonINSt3__13mapENS4_6vectorENS4_12basic_stringIcNS4_11char_traitsIcEENS4_9allocatorIcEEEEbxydSA_NS0_14adl_serializerENS6_IhNSA_IhEEEEvEEE15number_unsignedEy, symObjAddr: 0x1C2DC, symBinAddr: 0x10001D854, symSize: 0x50 }
  - { offsetInCU: 0x450D9, offset: 0x450D9, size: 0x8, addend: 0x0, symName: __ZNK8nlohmann16json_abi_v3_11_36detail5lexerINS0_10basic_jsonINSt3__13mapENS4_6vectorENS4_12basic_stringIcNS4_11char_traitsIcEENS4_9allocatorIcEEEEbxydSA_NS0_14adl_serializerENS6_IhNSA_IhEEEEvEENS1_20input_stream_adapterEE19get_number_unsignedEv, symObjAddr: 0x1C32C, symBinAddr: 0x10001D8A4, symSize: 0x18 }
  - { offsetInCU: 0x450FF, offset: 0x450FF, size: 0x8, addend: 0x0, symName: __ZNKSt3__16vectorIbNS_9allocatorIbEEE5emptyB8ue170006Ev, symObjAddr: 0x1C344, symBinAddr: 0x10001D8BC, symSize: 0x24 }
  - { offsetInCU: 0x45125, offset: 0x45125, size: 0x8, addend: 0x0, symName: __ZNSt3__16vectorIbNS_9allocatorIbEEE8pop_backB8ue170006Ev, symObjAddr: 0x1C368, symBinAddr: 0x10001D8E0, symSize: 0x20 }
  - { offsetInCU: 0x4514B, offset: 0x4514B, size: 0x8, addend: 0x0, symName: __ZNKSt3__18functionIFbiN8nlohmann16json_abi_v3_11_36detail13parse_event_tERNS2_10basic_jsonINS_3mapENS_6vectorENS_12basic_stringIcNS_11char_traitsIcEENS_9allocatorIcEEEEbxydSB_NS2_14adl_serializerENS7_IhNSB_IhEEEEvEEEEclEiS4_SI_, symObjAddr: 0x1C388, symBinAddr: 0x10001D900, symSize: 0x48 }
  - { offsetInCU: 0x451C3, offset: 0x451C3, size: 0x8, addend: 0x0, symName: __ZN8nlohmann16json_abi_v3_11_36detail28json_sax_dom_callback_parserINS0_10basic_jsonINSt3__13mapENS4_6vectorENS4_12basic_stringIcNS4_11char_traitsIcEENS4_9allocatorIcEEEEbxydSA_NS0_14adl_serializerENS6_IhNSA_IhEEEEvEEE12handle_valueINS1_7value_tEEENS4_4pairIbPSG_EEOT_b, symObjAddr: 0x1C3D0, symBinAddr: 0x10001D948, symSize: 0x4E0 }
  - { offsetInCU: 0x45240, offset: 0x45240, size: 0x8, addend: 0x0, symName: __ZNSt3__16vectorIPN8nlohmann16json_abi_v3_11_310basic_jsonINS_3mapES0_NS_12basic_stringIcNS_11char_traitsIcEENS_9allocatorIcEEEEbxydS8_NS2_14adl_serializerENS0_IhNS8_IhEEEEvEENS8_ISF_EEE9push_backB8ue170006ERKSF_, symObjAddr: 0x1C8B0, symBinAddr: 0x10001DE28, symSize: 0x6C }
  - { offsetInCU: 0x45277, offset: 0x45277, size: 0x8, addend: 0x0, symName: __ZNSt3__16vectorIPN8nlohmann16json_abi_v3_11_310basic_jsonINS_3mapES0_NS_12basic_stringIcNS_11char_traitsIcEENS_9allocatorIcEEEEbxydS8_NS2_14adl_serializerENS0_IhNS8_IhEEEEvEENS8_ISF_EEE4backB8ue170006Ev, symObjAddr: 0x1C91C, symBinAddr: 0x10001DE94, symSize: 0x1C }
  - { offsetInCU: 0x4529D, offset: 0x4529D, size: 0x8, addend: 0x0, symName: __ZNK8nlohmann16json_abi_v3_11_310basic_jsonINSt3__13mapENS2_6vectorENS2_12basic_stringIcNS2_11char_traitsIcEENS2_9allocatorIcEEEEbxydS8_NS0_14adl_serializerENS4_IhNS8_IhEEEEvE8max_sizeEv, symObjAddr: 0x1C938, symBinAddr: 0x10001DEB0, symSize: 0xA0 }
  - { offsetInCU: 0x452C3, offset: 0x452C3, size: 0x8, addend: 0x0, symName: __ZN8nlohmann16json_abi_v3_11_36detail12out_of_range6createIPNS0_10basic_jsonINSt3__13mapENS5_6vectorENS5_12basic_stringIcNS5_11char_traitsIcEENS5_9allocatorIcEEEEbxydSB_NS0_14adl_serializerENS7_IhNSB_IhEEEEvEELi0EEES2_iRKSD_T_, symObjAddr: 0x1CA00, symBinAddr: 0x10001DF78, symSize: 0x130 }
  - { offsetInCU: 0x45323, offset: 0x45323, size: 0x8, addend: 0x0, symName: __ZNKSt3__110__function12__value_funcIFbiN8nlohmann16json_abi_v3_11_36detail13parse_event_tERNS3_10basic_jsonINS_3mapENS_6vectorENS_12basic_stringIcNS_11char_traitsIcEENS_9allocatorIcEEEEbxydSC_NS3_14adl_serializerENS8_IhNSC_IhEEEEvEEEEclB8ue170006EOiOS5_SJ_, symObjAddr: 0x1CBFC, symBinAddr: 0x10001E174, symSize: 0x6C }
  - { offsetInCU: 0x4537C, offset: 0x4537C, size: 0x8, addend: 0x0, symName: __ZNSt3__117bad_function_callC1Ev, symObjAddr: 0x1CCA0, symBinAddr: 0x10001E218, symSize: 0x2C }
  - { offsetInCU: 0x453A8, offset: 0x453A8, size: 0x8, addend: 0x0, symName: __ZNSt3__117bad_function_callD1Ev, symObjAddr: 0x1CCCC, symBinAddr: 0x10001E244, symSize: 0x2C }
  - { offsetInCU: 0x453D2, offset: 0x453D2, size: 0x8, addend: 0x0, symName: __ZNSt3__117bad_function_callC2Ev, symObjAddr: 0x1CCF8, symBinAddr: 0x10001E270, symSize: 0x44 }
  - { offsetInCU: 0x453FE, offset: 0x453FE, size: 0x8, addend: 0x0, symName: __ZNSt3__117bad_function_callD0Ev, symObjAddr: 0x1CD3C, symBinAddr: 0x10001E2B4, symSize: 0x30 }
  - { offsetInCU: 0x45428, offset: 0x45428, size: 0x8, addend: 0x0, symName: __ZNSt3__117bad_function_callD2Ev, symObjAddr: 0x1CD6C, symBinAddr: 0x10001E2E4, symSize: 0x2C }
  - { offsetInCU: 0x45458, offset: 0x45458, size: 0x8, addend: 0x0, symName: __ZNSt3__14pairIbPN8nlohmann16json_abi_v3_11_310basic_jsonINS_3mapENS_6vectorENS_12basic_stringIcNS_11char_traitsIcEENS_9allocatorIcEEEEbxydS9_NS2_14adl_serializerENS5_IhNS9_IhEEEEvEEEC1B8ue170006IbDnLPv0EEEOT_OT0_, symObjAddr: 0x1CD98, symBinAddr: 0x10001E310, symSize: 0x3C }
  - { offsetInCU: 0x454B6, offset: 0x454B6, size: 0x8, addend: 0x0, symName: __ZNKSt3__16vectorIPN8nlohmann16json_abi_v3_11_310basic_jsonINS_3mapES0_NS_12basic_stringIcNS_11char_traitsIcEENS_9allocatorIcEEEEbxydS8_NS2_14adl_serializerENS0_IhNS8_IhEEEEvEENS8_ISF_EEE5emptyB8ue170006Ev, symObjAddr: 0x1CDD4, symBinAddr: 0x10001E34C, symSize: 0x28 }
  - { offsetInCU: 0x454DC, offset: 0x454DC, size: 0x8, addend: 0x0, symName: __ZNSt3__14pairIbPN8nlohmann16json_abi_v3_11_310basic_jsonINS_3mapENS_6vectorENS_12basic_stringIcNS_11char_traitsIcEENS_9allocatorIcEEEEbxydS9_NS2_14adl_serializerENS5_IhNS9_IhEEEEvEEEC1B8ue170006IbSG_LPv0EEEOT_OT0_, symObjAddr: 0x1CDFC, symBinAddr: 0x10001E374, symSize: 0x3C }
  - { offsetInCU: 0x4553A, offset: 0x4553A, size: 0x8, addend: 0x0, symName: __ZNSt3__16vectorIN8nlohmann16json_abi_v3_11_310basic_jsonINS_3mapES0_NS_12basic_stringIcNS_11char_traitsIcEENS_9allocatorIcEEEEbxydS8_NS2_14adl_serializerENS0_IhNS8_IhEEEEvEENS8_ISE_EEE12emplace_backIJSE_EEERSE_DpOT_, symObjAddr: 0x1CE38, symBinAddr: 0x10001E3B0, symSize: 0x74 }
  - { offsetInCU: 0x4557C, offset: 0x4557C, size: 0x8, addend: 0x0, symName: __ZNSt3__14pairIbPN8nlohmann16json_abi_v3_11_310basic_jsonINS_3mapENS_6vectorENS_12basic_stringIcNS_11char_traitsIcEENS_9allocatorIcEEEEbxydS9_NS2_14adl_serializerENS5_IhNS9_IhEEEEvEEEC1B8ue170006IbRSG_LPv0EEEOT_OT0_, symObjAddr: 0x1CEAC, symBinAddr: 0x10001E424, symSize: 0x3C }
  - { offsetInCU: 0x455DA, offset: 0x455DA, size: 0x8, addend: 0x0, symName: __ZNSt3__14pairIbPN8nlohmann16json_abi_v3_11_310basic_jsonINS_3mapENS_6vectorENS_12basic_stringIcNS_11char_traitsIcEENS_9allocatorIcEEEEbxydS9_NS2_14adl_serializerENS5_IhNS9_IhEEEEvEEEC2B8ue170006IbDnLPv0EEEOT_OT0_, symObjAddr: 0x1CEE8, symBinAddr: 0x10001E460, symSize: 0x30 }
  - { offsetInCU: 0x45638, offset: 0x45638, size: 0x8, addend: 0x0, symName: __ZNSt3__14pairIbPN8nlohmann16json_abi_v3_11_310basic_jsonINS_3mapENS_6vectorENS_12basic_stringIcNS_11char_traitsIcEENS_9allocatorIcEEEEbxydS9_NS2_14adl_serializerENS5_IhNS9_IhEEEEvEEEC2B8ue170006IbSG_LPv0EEEOT_OT0_, symObjAddr: 0x1CF18, symBinAddr: 0x10001E490, symSize: 0x38 }
  - { offsetInCU: 0x45696, offset: 0x45696, size: 0x8, addend: 0x0, symName: __ZNSt3__16vectorIN8nlohmann16json_abi_v3_11_310basic_jsonINS_3mapES0_NS_12basic_stringIcNS_11char_traitsIcEENS_9allocatorIcEEEEbxydS8_NS2_14adl_serializerENS0_IhNS8_IhEEEEvEENS8_ISE_EEE24__emplace_back_slow_pathIJSE_EEEvDpOT_, symObjAddr: 0x1CF50, symBinAddr: 0x10001E4C8, symSize: 0xD8 }
  - { offsetInCU: 0x456F6, offset: 0x456F6, size: 0x8, addend: 0x0, symName: __ZNSt3__14pairIbPN8nlohmann16json_abi_v3_11_310basic_jsonINS_3mapENS_6vectorENS_12basic_stringIcNS_11char_traitsIcEENS_9allocatorIcEEEEbxydS9_NS2_14adl_serializerENS5_IhNS9_IhEEEEvEEEC2B8ue170006IbRSG_LPv0EEEOT_OT0_, symObjAddr: 0x1D028, symBinAddr: 0x10001E5A0, symSize: 0x38 }
  - { offsetInCU: 0x45754, offset: 0x45754, size: 0x8, addend: 0x0, symName: __ZNSt3__16vectorIPN8nlohmann16json_abi_v3_11_310basic_jsonINS_3mapES0_NS_12basic_stringIcNS_11char_traitsIcEENS_9allocatorIcEEEEbxydS8_NS2_14adl_serializerENS0_IhNS8_IhEEEEvEENS8_ISF_EEE9__end_capB8ue170006Ev, symObjAddr: 0x1D060, symBinAddr: 0x10001E5D8, symSize: 0x28 }
  - { offsetInCU: 0x4577A, offset: 0x4577A, size: 0x8, addend: 0x0, symName: __ZNSt3__16vectorIPN8nlohmann16json_abi_v3_11_310basic_jsonINS_3mapES0_NS_12basic_stringIcNS_11char_traitsIcEENS_9allocatorIcEEEEbxydS8_NS2_14adl_serializerENS0_IhNS8_IhEEEEvEENS8_ISF_EEE22__construct_one_at_endB8ue170006IJRKSF_EEEvDpOT_, symObjAddr: 0x1D088, symBinAddr: 0x10001E600, symSize: 0x90 }
  - { offsetInCU: 0x457C9, offset: 0x457C9, size: 0x8, addend: 0x0, symName: __ZNSt3__16vectorIPN8nlohmann16json_abi_v3_11_310basic_jsonINS_3mapES0_NS_12basic_stringIcNS_11char_traitsIcEENS_9allocatorIcEEEEbxydS8_NS2_14adl_serializerENS0_IhNS8_IhEEEEvEENS8_ISF_EEE21__push_back_slow_pathIRKSF_EEvOT_, symObjAddr: 0x1D118, symBinAddr: 0x10001E690, symSize: 0xD8 }
  - { offsetInCU: 0x45827, offset: 0x45827, size: 0x8, addend: 0x0, symName: __ZNSt3__117__compressed_pairIPPN8nlohmann16json_abi_v3_11_310basic_jsonINS_3mapENS_6vectorENS_12basic_stringIcNS_11char_traitsIcEENS_9allocatorIcEEEEbxydS9_NS2_14adl_serializerENS5_IhNS9_IhEEEEvEENS9_ISG_EEE5firstB8ue170006Ev, symObjAddr: 0x1D1F0, symBinAddr: 0x10001E768, symSize: 0x24 }
  - { offsetInCU: 0x4584D, offset: 0x4584D, size: 0x8, addend: 0x0, symName: __ZNSt3__122__compressed_pair_elemIPPN8nlohmann16json_abi_v3_11_310basic_jsonINS_3mapENS_6vectorENS_12basic_stringIcNS_11char_traitsIcEENS_9allocatorIcEEEEbxydS9_NS2_14adl_serializerENS5_IhNS9_IhEEEEvEELi0ELb0EE5__getB8ue170006Ev, symObjAddr: 0x1D214, symBinAddr: 0x10001E78C, symSize: 0x14 }
  - { offsetInCU: 0x4588F, offset: 0x4588F, size: 0x8, addend: 0x0, symName: __ZNSt3__16vectorIPN8nlohmann16json_abi_v3_11_310basic_jsonINS_3mapES0_NS_12basic_stringIcNS_11char_traitsIcEENS_9allocatorIcEEEEbxydS8_NS2_14adl_serializerENS0_IhNS8_IhEEEEvEENS8_ISF_EEE21_ConstructTransactionC1B8ue170006ERSH_m, symObjAddr: 0x1D228, symBinAddr: 0x10001E7A0, symSize: 0x3C }
  - { offsetInCU: 0x458D7, offset: 0x458D7, size: 0x8, addend: 0x0, symName: __ZNSt3__116allocator_traitsINS_9allocatorIPN8nlohmann16json_abi_v3_11_310basic_jsonINS_3mapENS_6vectorENS_12basic_stringIcNS_11char_traitsIcEENS1_IcEEEEbxydS1_NS3_14adl_serializerENS6_IhNS1_IhEEEEvEEEEE9constructB8ue170006ISG_JRKSG_EvvEEvRSH_PT_DpOT0_, symObjAddr: 0x1D264, symBinAddr: 0x10001E7DC, symSize: 0x30 }
  - { offsetInCU: 0x4592B, offset: 0x4592B, size: 0x8, addend: 0x0, symName: __ZNSt3__16vectorIPN8nlohmann16json_abi_v3_11_310basic_jsonINS_3mapES0_NS_12basic_stringIcNS_11char_traitsIcEENS_9allocatorIcEEEEbxydS8_NS2_14adl_serializerENS0_IhNS8_IhEEEEvEENS8_ISF_EEE21_ConstructTransactionD1B8ue170006Ev, symObjAddr: 0x1D294, symBinAddr: 0x10001E80C, symSize: 0x2C }
  - { offsetInCU: 0x45955, offset: 0x45955, size: 0x8, addend: 0x0, symName: __ZNSt3__16vectorIPN8nlohmann16json_abi_v3_11_310basic_jsonINS_3mapES0_NS_12basic_stringIcNS_11char_traitsIcEENS_9allocatorIcEEEEbxydS8_NS2_14adl_serializerENS0_IhNS8_IhEEEEvEENS8_ISF_EEE21_ConstructTransactionC2B8ue170006ERSH_m, symObjAddr: 0x1D2C0, symBinAddr: 0x10001E838, symSize: 0x44 }
  - { offsetInCU: 0x4599D, offset: 0x4599D, size: 0x8, addend: 0x0, symName: __ZNSt3__16vectorIPN8nlohmann16json_abi_v3_11_310basic_jsonINS_3mapES0_NS_12basic_stringIcNS_11char_traitsIcEENS_9allocatorIcEEEEbxydS8_NS2_14adl_serializerENS0_IhNS8_IhEEEEvEENS8_ISF_EEE21_ConstructTransactionD2B8ue170006Ev, symObjAddr: 0x1D330, symBinAddr: 0x10001E8A8, symSize: 0x20 }
  - { offsetInCU: 0x459C7, offset: 0x459C7, size: 0x8, addend: 0x0, symName: __ZNKSt3__16vectorIPN8nlohmann16json_abi_v3_11_310basic_jsonINS_3mapES0_NS_12basic_stringIcNS_11char_traitsIcEENS_9allocatorIcEEEEbxydS8_NS2_14adl_serializerENS0_IhNS8_IhEEEEvEENS8_ISF_EEE11__recommendB8ue170006Em, symObjAddr: 0x1D350, symBinAddr: 0x10001E8C8, symSize: 0xB4 }
  - { offsetInCU: 0x45A1C, offset: 0x45A1C, size: 0x8, addend: 0x0, symName: __ZNSt3__114__split_bufferIPN8nlohmann16json_abi_v3_11_310basic_jsonINS_3mapENS_6vectorENS_12basic_stringIcNS_11char_traitsIcEENS_9allocatorIcEEEEbxydS9_NS2_14adl_serializerENS5_IhNS9_IhEEEEvEERNS9_ISG_EEEC1EmmSI_, symObjAddr: 0x1D404, symBinAddr: 0x10001E97C, symSize: 0x44 }
  - { offsetInCU: 0x45A72, offset: 0x45A72, size: 0x8, addend: 0x0, symName: __ZNSt3__114__split_bufferIPN8nlohmann16json_abi_v3_11_310basic_jsonINS_3mapENS_6vectorENS_12basic_stringIcNS_11char_traitsIcEENS_9allocatorIcEEEEbxydS9_NS2_14adl_serializerENS5_IhNS9_IhEEEEvEERNS9_ISG_EEED1Ev, symObjAddr: 0x1D558, symBinAddr: 0x10001EAD0, symSize: 0x2C }
  - { offsetInCU: 0x45A9E, offset: 0x45A9E, size: 0x8, addend: 0x0, symName: __ZNKSt3__16vectorIPN8nlohmann16json_abi_v3_11_310basic_jsonINS_3mapES0_NS_12basic_stringIcNS_11char_traitsIcEENS_9allocatorIcEEEEbxydS8_NS2_14adl_serializerENS0_IhNS8_IhEEEEvEENS8_ISF_EEE8max_sizeEv, symObjAddr: 0x1D584, symBinAddr: 0x10001EAFC, symSize: 0x60 }
  - { offsetInCU: 0x45AC6, offset: 0x45AC6, size: 0x8, addend: 0x0, symName: __ZNKSt3__16vectorIPN8nlohmann16json_abi_v3_11_310basic_jsonINS_3mapES0_NS_12basic_stringIcNS_11char_traitsIcEENS_9allocatorIcEEEEbxydS8_NS2_14adl_serializerENS0_IhNS8_IhEEEEvEENS8_ISF_EEE20__throw_length_errorB8ue170006Ev, symObjAddr: 0x1D5E4, symBinAddr: 0x10001EB5C, symSize: 0x1C }
  - { offsetInCU: 0x45AF7, offset: 0x45AF7, size: 0x8, addend: 0x0, symName: __ZNSt3__116allocator_traitsINS_9allocatorIPN8nlohmann16json_abi_v3_11_310basic_jsonINS_3mapENS_6vectorENS_12basic_stringIcNS_11char_traitsIcEENS1_IcEEEEbxydS1_NS3_14adl_serializerENS6_IhNS1_IhEEEEvEEEEE8max_sizeB8ue170006ISH_vvEEmRKSH_, symObjAddr: 0x1D600, symBinAddr: 0x10001EB78, symSize: 0x28 }
  - { offsetInCU: 0x45B22, offset: 0x45B22, size: 0x8, addend: 0x0, symName: __ZNKSt3__16vectorIPN8nlohmann16json_abi_v3_11_310basic_jsonINS_3mapES0_NS_12basic_stringIcNS_11char_traitsIcEENS_9allocatorIcEEEEbxydS8_NS2_14adl_serializerENS0_IhNS8_IhEEEEvEENS8_ISF_EEE7__allocB8ue170006Ev, symObjAddr: 0x1D628, symBinAddr: 0x10001EBA0, symSize: 0x28 }
  - { offsetInCU: 0x45B48, offset: 0x45B48, size: 0x8, addend: 0x0, symName: __ZNKSt3__117__compressed_pairIPPN8nlohmann16json_abi_v3_11_310basic_jsonINS_3mapENS_6vectorENS_12basic_stringIcNS_11char_traitsIcEENS_9allocatorIcEEEEbxydS9_NS2_14adl_serializerENS5_IhNS9_IhEEEEvEENS9_ISG_EEE6secondB8ue170006Ev, symObjAddr: 0x1D650, symBinAddr: 0x10001EBC8, symSize: 0x24 }
  - { offsetInCU: 0x45B6E, offset: 0x45B6E, size: 0x8, addend: 0x0, symName: __ZNKSt3__122__compressed_pair_elemINS_9allocatorIPN8nlohmann16json_abi_v3_11_310basic_jsonINS_3mapENS_6vectorENS_12basic_stringIcNS_11char_traitsIcEENS1_IcEEEEbxydS1_NS3_14adl_serializerENS6_IhNS1_IhEEEEvEEEELi1ELb1EE5__getB8ue170006Ev, symObjAddr: 0x1D674, symBinAddr: 0x10001EBEC, symSize: 0x14 }
  - { offsetInCU: 0x45B94, offset: 0x45B94, size: 0x8, addend: 0x0, symName: __ZNSt3__114__split_bufferIPN8nlohmann16json_abi_v3_11_310basic_jsonINS_3mapENS_6vectorENS_12basic_stringIcNS_11char_traitsIcEENS_9allocatorIcEEEEbxydS9_NS2_14adl_serializerENS5_IhNS9_IhEEEEvEERNS9_ISG_EEEC2EmmSI_, symObjAddr: 0x1D688, symBinAddr: 0x10001EC00, symSize: 0xD4 }
  - { offsetInCU: 0x45C08, offset: 0x45C08, size: 0x8, addend: 0x0, symName: __ZNSt3__117__compressed_pairIPPN8nlohmann16json_abi_v3_11_310basic_jsonINS_3mapENS_6vectorENS_12basic_stringIcNS_11char_traitsIcEENS_9allocatorIcEEEEbxydS9_NS2_14adl_serializerENS5_IhNS9_IhEEEEvEERNS9_ISG_EEEC1B8ue170006IDnSJ_EEOT_OT0_, symObjAddr: 0x1D75C, symBinAddr: 0x10001ECD4, symSize: 0x3C }
  - { offsetInCU: 0x45C60, offset: 0x45C60, size: 0x8, addend: 0x0, symName: __ZNSt3__114__split_bufferIPN8nlohmann16json_abi_v3_11_310basic_jsonINS_3mapENS_6vectorENS_12basic_stringIcNS_11char_traitsIcEENS_9allocatorIcEEEEbxydS9_NS2_14adl_serializerENS5_IhNS9_IhEEEEvEERNS9_ISG_EEE7__allocB8ue170006Ev, symObjAddr: 0x1D7D8, symBinAddr: 0x10001ED50, symSize: 0x28 }
  - { offsetInCU: 0x45C86, offset: 0x45C86, size: 0x8, addend: 0x0, symName: __ZNSt3__114__split_bufferIPN8nlohmann16json_abi_v3_11_310basic_jsonINS_3mapENS_6vectorENS_12basic_stringIcNS_11char_traitsIcEENS_9allocatorIcEEEEbxydS9_NS2_14adl_serializerENS5_IhNS9_IhEEEEvEERNS9_ISG_EEE9__end_capB8ue170006Ev, symObjAddr: 0x1D800, symBinAddr: 0x10001ED78, symSize: 0x28 }
  - { offsetInCU: 0x45CAC, offset: 0x45CAC, size: 0x8, addend: 0x0, symName: __ZNSt3__117__compressed_pairIPPN8nlohmann16json_abi_v3_11_310basic_jsonINS_3mapENS_6vectorENS_12basic_stringIcNS_11char_traitsIcEENS_9allocatorIcEEEEbxydS9_NS2_14adl_serializerENS5_IhNS9_IhEEEEvEERNS9_ISG_EEEC2B8ue170006IDnSJ_EEOT_OT0_, symObjAddr: 0x1D828, symBinAddr: 0x10001EDA0, symSize: 0x48 }
  - { offsetInCU: 0x45D04, offset: 0x45D04, size: 0x8, addend: 0x0, symName: __ZNSt3__122__compressed_pair_elemIRNS_9allocatorIPN8nlohmann16json_abi_v3_11_310basic_jsonINS_3mapENS_6vectorENS_12basic_stringIcNS_11char_traitsIcEENS1_IcEEEEbxydS1_NS3_14adl_serializerENS6_IhNS1_IhEEEEvEEEELi1ELb0EEC2B8ue170006ISI_vEEOT_, symObjAddr: 0x1D870, symBinAddr: 0x10001EDE8, symSize: 0x20 }
  - { offsetInCU: 0x45D46, offset: 0x45D46, size: 0x8, addend: 0x0, symName: __ZNSt3__19allocatorIPN8nlohmann16json_abi_v3_11_310basic_jsonINS_3mapENS_6vectorENS_12basic_stringIcNS_11char_traitsIcEENS0_IcEEEEbxydS0_NS2_14adl_serializerENS5_IhNS0_IhEEEEvEEE8allocateB8ue170006Em, symObjAddr: 0x1D890, symBinAddr: 0x10001EE08, symSize: 0x58 }
  - { offsetInCU: 0x45D7A, offset: 0x45D7A, size: 0x8, addend: 0x0, symName: __ZNSt3__117__compressed_pairIPPN8nlohmann16json_abi_v3_11_310basic_jsonINS_3mapENS_6vectorENS_12basic_stringIcNS_11char_traitsIcEENS_9allocatorIcEEEEbxydS9_NS2_14adl_serializerENS5_IhNS9_IhEEEEvEERNS9_ISG_EEE6secondB8ue170006Ev, symObjAddr: 0x1D8E8, symBinAddr: 0x10001EE60, symSize: 0x28 }
  - { offsetInCU: 0x45DA0, offset: 0x45DA0, size: 0x8, addend: 0x0, symName: __ZNSt3__122__compressed_pair_elemIRNS_9allocatorIPN8nlohmann16json_abi_v3_11_310basic_jsonINS_3mapENS_6vectorENS_12basic_stringIcNS_11char_traitsIcEENS1_IcEEEEbxydS1_NS3_14adl_serializerENS6_IhNS1_IhEEEEvEEEELi1ELb0EE5__getB8ue170006Ev, symObjAddr: 0x1D910, symBinAddr: 0x10001EE88, symSize: 0x18 }
  - { offsetInCU: 0x45DC6, offset: 0x45DC6, size: 0x8, addend: 0x0, symName: __ZNSt3__117__compressed_pairIPPN8nlohmann16json_abi_v3_11_310basic_jsonINS_3mapENS_6vectorENS_12basic_stringIcNS_11char_traitsIcEENS_9allocatorIcEEEEbxydS9_NS2_14adl_serializerENS5_IhNS9_IhEEEEvEERNS9_ISG_EEE5firstB8ue170006Ev, symObjAddr: 0x1D928, symBinAddr: 0x10001EEA0, symSize: 0x24 }
  - { offsetInCU: 0x45DEC, offset: 0x45DEC, size: 0x8, addend: 0x0, symName: __ZNSt3__116reverse_iteratorIPPN8nlohmann16json_abi_v3_11_310basic_jsonINS_3mapENS_6vectorENS_12basic_stringIcNS_11char_traitsIcEENS_9allocatorIcEEEEbxydS9_NS2_14adl_serializerENS5_IhNS9_IhEEEEvEEEC1B8ue170006ESH_, symObjAddr: 0x1D9C4, symBinAddr: 0x10001EF3C, symSize: 0x34 }
  - { offsetInCU: 0x45E24, offset: 0x45E24, size: 0x8, addend: 0x0, symName: __ZNKSt3__116reverse_iteratorIPPN8nlohmann16json_abi_v3_11_310basic_jsonINS_3mapENS_6vectorENS_12basic_stringIcNS_11char_traitsIcEENS_9allocatorIcEEEEbxydS9_NS2_14adl_serializerENS5_IhNS9_IhEEEEvEEE4baseB8ue170006Ev, symObjAddr: 0x1D9F8, symBinAddr: 0x10001EF70, symSize: 0x18 }
  - { offsetInCU: 0x45E4A, offset: 0x45E4A, size: 0x8, addend: 0x0, symName: __ZNKSt3__16vectorIPN8nlohmann16json_abi_v3_11_310basic_jsonINS_3mapES0_NS_12basic_stringIcNS_11char_traitsIcEENS_9allocatorIcEEEEbxydS8_NS2_14adl_serializerENS0_IhNS8_IhEEEEvEENS8_ISF_EEE14__annotate_newB8ue170006Em, symObjAddr: 0x1DA4C, symBinAddr: 0x10001EFC4, symSize: 0xAC }
  - { offsetInCU: 0x45E9C, offset: 0x45E9C, size: 0x8, addend: 0x0, symName: __ZNKSt3__111__move_loopINS_17_ClassicAlgPolicyEEclB8ue170006INS_16reverse_iteratorIPPN8nlohmann16json_abi_v3_11_310basic_jsonINS_3mapENS_6vectorENS_12basic_stringIcNS_11char_traitsIcEENS_9allocatorIcEEEEbxydSD_NS6_14adl_serializerENS9_IhNSD_IhEEEEvEEEESM_SM_EENS_4pairIT_T1_EESO_T0_SP_, symObjAddr: 0x1DDB0, symBinAddr: 0x10001F328, symSize: 0xA0 }
  - { offsetInCU: 0x45F07, offset: 0x45F07, size: 0x8, addend: 0x0, symName: __ZNSt3__119__unwrap_range_implINS_16reverse_iteratorIPPN8nlohmann16json_abi_v3_11_310basic_jsonINS_3mapENS_6vectorENS_12basic_stringIcNS_11char_traitsIcEENS_9allocatorIcEEEEbxydSA_NS3_14adl_serializerENS6_IhNSA_IhEEEEvEEEESJ_E8__unwrapB8ue170006ESJ_SJ_, symObjAddr: 0x1DF9C, symBinAddr: 0x10001F514, symSize: 0x84 }
  - { offsetInCU: 0x45F3E, offset: 0x45F3E, size: 0x8, addend: 0x0, symName: __ZNSt3__14pairINS_16reverse_iteratorIPPN8nlohmann16json_abi_v3_11_310basic_jsonINS_3mapENS_6vectorENS_12basic_stringIcNS_11char_traitsIcEENS_9allocatorIcEEEEbxydSA_NS3_14adl_serializerENS6_IhNSA_IhEEEEvEEEESJ_EC1B8ue170006ISJ_SJ_LPv0EEEOT_OT0_, symObjAddr: 0x1E020, symBinAddr: 0x10001F598, symSize: 0x3C }
  - { offsetInCU: 0x45F9C, offset: 0x45F9C, size: 0x8, addend: 0x0, symName: __ZNSt3__14pairINS_16reverse_iteratorIPPN8nlohmann16json_abi_v3_11_310basic_jsonINS_3mapENS_6vectorENS_12basic_stringIcNS_11char_traitsIcEENS_9allocatorIcEEEEbxydSA_NS3_14adl_serializerENS6_IhNSA_IhEEEEvEEEESJ_EC2B8ue170006ISJ_SJ_LPv0EEEOT_OT0_, symObjAddr: 0x1E05C, symBinAddr: 0x10001F5D4, symSize: 0x34 }
  - { offsetInCU: 0x45FFA, offset: 0x45FFA, size: 0x8, addend: 0x0, symName: __ZNSt3__18_IterOpsINS_17_ClassicAlgPolicyEE11__iter_moveB8ue170006IRNS_16reverse_iteratorIPPN8nlohmann16json_abi_v3_11_310basic_jsonINS_3mapENS_6vectorENS_12basic_stringIcNS_11char_traitsIcEENS_9allocatorIcEEEEbxydSD_NS6_14adl_serializerENS9_IhNSD_IhEEEEvEEEEEENS_9enable_ifIXsr12is_referenceIDTdeclsr3stdE7declvalIRT_EEEEE5valueEDTclsr3stdE4movedeclsr3stdE7declvalISQ_EEEEE4typeEOSP_, symObjAddr: 0x1E0D8, symBinAddr: 0x10001F650, symSize: 0x28 }
  - { offsetInCU: 0x46026, offset: 0x46026, size: 0x8, addend: 0x0, symName: __ZNKSt3__116reverse_iteratorIPPN8nlohmann16json_abi_v3_11_310basic_jsonINS_3mapENS_6vectorENS_12basic_stringIcNS_11char_traitsIcEENS_9allocatorIcEEEEbxydS9_NS2_14adl_serializerENS5_IhNS9_IhEEEEvEEEdeB8ue170006Ev, symObjAddr: 0x1E100, symBinAddr: 0x10001F678, symSize: 0x28 }
  - { offsetInCU: 0x4605A, offset: 0x4605A, size: 0x8, addend: 0x0, symName: __ZNSt3__116reverse_iteratorIPPN8nlohmann16json_abi_v3_11_310basic_jsonINS_3mapENS_6vectorENS_12basic_stringIcNS_11char_traitsIcEENS_9allocatorIcEEEEbxydS9_NS2_14adl_serializerENS5_IhNS9_IhEEEEvEEEppB8ue170006Ev, symObjAddr: 0x1E128, symBinAddr: 0x10001F6A0, symSize: 0x20 }
  - { offsetInCU: 0x46080, offset: 0x46080, size: 0x8, addend: 0x0, symName: __ZNSt3__18_IterOpsINS_17_ClassicAlgPolicyEE25__validate_iter_referenceB8ue170006IRNS_16reverse_iteratorIPPN8nlohmann16json_abi_v3_11_310basic_jsonINS_3mapENS_6vectorENS_12basic_stringIcNS_11char_traitsIcEENS_9allocatorIcEEEEbxydSD_NS6_14adl_serializerENS9_IhNSD_IhEEEEvEEEEEEvv, symObjAddr: 0x1E148, symBinAddr: 0x10001F6C0, symSize: 0x4 }
  - { offsetInCU: 0x4609E, offset: 0x4609E, size: 0x8, addend: 0x0, symName: __ZNSt3__118__unwrap_iter_implINS_16reverse_iteratorIPPN8nlohmann16json_abi_v3_11_310basic_jsonINS_3mapENS_6vectorENS_12basic_stringIcNS_11char_traitsIcEENS_9allocatorIcEEEEbxydSA_NS3_14adl_serializerENS6_IhNSA_IhEEEEvEEEELb0EE8__unwrapB8ue170006ESJ_, symObjAddr: 0x1E14C, symBinAddr: 0x10001F6C4, symSize: 0x24 }
  - { offsetInCU: 0x460C1, offset: 0x460C1, size: 0x8, addend: 0x0, symName: __ZNSt3__119__unwrap_range_implINS_16reverse_iteratorIPPN8nlohmann16json_abi_v3_11_310basic_jsonINS_3mapENS_6vectorENS_12basic_stringIcNS_11char_traitsIcEENS_9allocatorIcEEEEbxydSA_NS3_14adl_serializerENS6_IhNSA_IhEEEEvEEEESJ_E8__rewrapB8ue170006ESJ_SJ_, symObjAddr: 0x1E170, symBinAddr: 0x10001F6E8, symSize: 0x5C }
  - { offsetInCU: 0x460F2, offset: 0x460F2, size: 0x8, addend: 0x0, symName: __ZNSt3__118__unwrap_iter_implINS_16reverse_iteratorIPPN8nlohmann16json_abi_v3_11_310basic_jsonINS_3mapENS_6vectorENS_12basic_stringIcNS_11char_traitsIcEENS_9allocatorIcEEEEbxydSA_NS3_14adl_serializerENS6_IhNSA_IhEEEEvEEEELb0EE8__rewrapB8ue170006ESJ_SJ_, symObjAddr: 0x1E1CC, symBinAddr: 0x10001F744, symSize: 0x2C }
  - { offsetInCU: 0x46120, offset: 0x46120, size: 0x8, addend: 0x0, symName: __ZNSt3__116reverse_iteratorIPPN8nlohmann16json_abi_v3_11_310basic_jsonINS_3mapENS_6vectorENS_12basic_stringIcNS_11char_traitsIcEENS_9allocatorIcEEEEbxydS9_NS2_14adl_serializerENS5_IhNS9_IhEEEEvEEEC2B8ue170006ESH_, symObjAddr: 0x1E1F8, symBinAddr: 0x10001F770, symSize: 0x28 }
  - { offsetInCU: 0x46158, offset: 0x46158, size: 0x8, addend: 0x0, symName: __ZNSt3__114__split_bufferIPN8nlohmann16json_abi_v3_11_310basic_jsonINS_3mapENS_6vectorENS_12basic_stringIcNS_11char_traitsIcEENS_9allocatorIcEEEEbxydS9_NS2_14adl_serializerENS5_IhNS9_IhEEEEvEERNS9_ISG_EEED2Ev, symObjAddr: 0x1E220, symBinAddr: 0x10001F798, symSize: 0x8C }
  - { offsetInCU: 0x46184, offset: 0x46184, size: 0x8, addend: 0x0, symName: __ZNSt3__114__split_bufferIPN8nlohmann16json_abi_v3_11_310basic_jsonINS_3mapENS_6vectorENS_12basic_stringIcNS_11char_traitsIcEENS_9allocatorIcEEEEbxydS9_NS2_14adl_serializerENS5_IhNS9_IhEEEEvEERNS9_ISG_EEE5clearB8ue170006Ev, symObjAddr: 0x1E2AC, symBinAddr: 0x10001F824, symSize: 0x28 }
  - { offsetInCU: 0x461AA, offset: 0x461AA, size: 0x8, addend: 0x0, symName: __ZNKSt3__114__split_bufferIPN8nlohmann16json_abi_v3_11_310basic_jsonINS_3mapENS_6vectorENS_12basic_stringIcNS_11char_traitsIcEENS_9allocatorIcEEEEbxydS9_NS2_14adl_serializerENS5_IhNS9_IhEEEEvEERNS9_ISG_EEE8capacityB8ue170006Ev, symObjAddr: 0x1E2D4, symBinAddr: 0x10001F84C, symSize: 0x40 }
  - { offsetInCU: 0x461D0, offset: 0x461D0, size: 0x8, addend: 0x0, symName: __ZNSt3__114__split_bufferIPN8nlohmann16json_abi_v3_11_310basic_jsonINS_3mapENS_6vectorENS_12basic_stringIcNS_11char_traitsIcEENS_9allocatorIcEEEEbxydS9_NS2_14adl_serializerENS5_IhNS9_IhEEEEvEERNS9_ISG_EEE17__destruct_at_endB8ue170006EPSG_, symObjAddr: 0x1E314, symBinAddr: 0x10001F88C, symSize: 0x2C }
  - { offsetInCU: 0x46204, offset: 0x46204, size: 0x8, addend: 0x0, symName: __ZNSt3__114__split_bufferIPN8nlohmann16json_abi_v3_11_310basic_jsonINS_3mapENS_6vectorENS_12basic_stringIcNS_11char_traitsIcEENS_9allocatorIcEEEEbxydS9_NS2_14adl_serializerENS5_IhNS9_IhEEEEvEERNS9_ISG_EEE17__destruct_at_endB8ue170006EPSG_NS_17integral_constantIbLb0EEE, symObjAddr: 0x1E340, symBinAddr: 0x10001F8B8, symSize: 0x80 }
  - { offsetInCU: 0x46245, offset: 0x46245, size: 0x8, addend: 0x0, symName: __ZNKSt3__114__split_bufferIPN8nlohmann16json_abi_v3_11_310basic_jsonINS_3mapENS_6vectorENS_12basic_stringIcNS_11char_traitsIcEENS_9allocatorIcEEEEbxydS9_NS2_14adl_serializerENS5_IhNS9_IhEEEEvEERNS9_ISG_EEE9__end_capB8ue170006Ev, symObjAddr: 0x1E3C0, symBinAddr: 0x10001F938, symSize: 0x28 }
  - { offsetInCU: 0x4626B, offset: 0x4626B, size: 0x8, addend: 0x0, symName: __ZNKSt3__117__compressed_pairIPPN8nlohmann16json_abi_v3_11_310basic_jsonINS_3mapENS_6vectorENS_12basic_stringIcNS_11char_traitsIcEENS_9allocatorIcEEEEbxydS9_NS2_14adl_serializerENS5_IhNS9_IhEEEEvEERNS9_ISG_EEE5firstB8ue170006Ev, symObjAddr: 0x1E3E8, symBinAddr: 0x10001F960, symSize: 0x24 }
  - { offsetInCU: 0x46291, offset: 0x46291, size: 0x8, addend: 0x0, symName: __ZNKSt3__13mapINS_12basic_stringIcNS_11char_traitsIcEENS_9allocatorIcEEEEN8nlohmann16json_abi_v3_11_310basic_jsonIS0_NS_6vectorES6_bxydS4_NS8_14adl_serializerENSA_IhNS4_IhEEEEvEENS_4lessIvEENS4_INS_4pairIKS6_SE_EEEEE8max_sizeB8ue170006Ev, symObjAddr: 0x1E40C, symBinAddr: 0x10001F984, symSize: 0x24 }
  - { offsetInCU: 0x462B7, offset: 0x462B7, size: 0x8, addend: 0x0, symName: __ZNK8nlohmann16json_abi_v3_11_310basic_jsonINSt3__13mapENS2_6vectorENS2_12basic_stringIcNS2_11char_traitsIcEENS2_9allocatorIcEEEEbxydS8_NS0_14adl_serializerENS4_IhNS8_IhEEEEvE4sizeEv, symObjAddr: 0x1E430, symBinAddr: 0x10001F9A8, symSize: 0xA4 }
  - { offsetInCU: 0x462DD, offset: 0x462DD, size: 0x8, addend: 0x0, symName: __ZNKSt3__16__treeINS_12__value_typeINS_12basic_stringIcNS_11char_traitsIcEENS_9allocatorIcEEEEN8nlohmann16json_abi_v3_11_310basic_jsonINS_3mapENS_6vectorES7_bxydS5_NS9_14adl_serializerENSC_IhNS5_IhEEEEvEEEENS_19__map_value_compareIS7_SH_NS_4lessIvEELb1EEENS5_ISH_EEE8max_sizeB8ue170006Ev, symObjAddr: 0x1E4FC, symBinAddr: 0x10001FA74, symSize: 0x60 }
  - { offsetInCU: 0x4630E, offset: 0x4630E, size: 0x8, addend: 0x0, symName: __ZNSt3__116allocator_traitsINS_9allocatorINS_11__tree_nodeINS_12__value_typeINS_12basic_stringIcNS_11char_traitsIcEENS1_IcEEEEN8nlohmann16json_abi_v3_11_310basic_jsonINS_3mapENS_6vectorES8_bxydS1_NSA_14adl_serializerENSD_IhNS1_IhEEEEvEEEEPvEEEEE8max_sizeB8ue170006ISL_vvEEmRKSL_, symObjAddr: 0x1E55C, symBinAddr: 0x10001FAD4, symSize: 0x28 }
  - { offsetInCU: 0x46339, offset: 0x46339, size: 0x8, addend: 0x0, symName: __ZNKSt3__16__treeINS_12__value_typeINS_12basic_stringIcNS_11char_traitsIcEENS_9allocatorIcEEEEN8nlohmann16json_abi_v3_11_310basic_jsonINS_3mapENS_6vectorES7_bxydS5_NS9_14adl_serializerENSC_IhNS5_IhEEEEvEEEENS_19__map_value_compareIS7_SH_NS_4lessIvEELb1EEENS5_ISH_EEE12__node_allocB8ue170006Ev, symObjAddr: 0x1E584, symBinAddr: 0x10001FAFC, symSize: 0x28 }
  - { offsetInCU: 0x4635F, offset: 0x4635F, size: 0x8, addend: 0x0, symName: __ZNKSt3__117__compressed_pairINS_15__tree_end_nodeIPNS_16__tree_node_baseIPvEEEENS_9allocatorINS_11__tree_nodeINS_12__value_typeINS_12basic_stringIcNS_11char_traitsIcEENS7_IcEEEEN8nlohmann16json_abi_v3_11_310basic_jsonINS_3mapENS_6vectorESE_bxydS7_NSG_14adl_serializerENSJ_IhNS7_IhEEEEvEEEES3_EEEEE6secondB8ue170006Ev, symObjAddr: 0x1E5AC, symBinAddr: 0x10001FB24, symSize: 0x24 }
  - { offsetInCU: 0x46385, offset: 0x46385, size: 0x8, addend: 0x0, symName: __ZNKSt3__122__compressed_pair_elemINS_9allocatorINS_11__tree_nodeINS_12__value_typeINS_12basic_stringIcNS_11char_traitsIcEENS1_IcEEEEN8nlohmann16json_abi_v3_11_310basic_jsonINS_3mapENS_6vectorES8_bxydS1_NSA_14adl_serializerENSD_IhNS1_IhEEEEvEEEEPvEEEELi1ELb1EE5__getB8ue170006Ev, symObjAddr: 0x1E5D0, symBinAddr: 0x10001FB48, symSize: 0x14 }
  - { offsetInCU: 0x463AB, offset: 0x463AB, size: 0x8, addend: 0x0, symName: __ZN8nlohmann16json_abi_v3_11_36detail9exception11diagnosticsINS0_10basic_jsonINSt3__13mapENS5_6vectorENS5_12basic_stringIcNS5_11char_traitsIcEENS5_9allocatorIcEEEEbxydSB_NS0_14adl_serializerENS7_IhNSB_IhEEEEvEEEESD_PKT_, symObjAddr: 0x1E5E4, symBinAddr: 0x10001FB5C, symSize: 0x3C }
  - { offsetInCU: 0x463D8, offset: 0x463D8, size: 0x8, addend: 0x0, symName: __ZN8nlohmann16json_abi_v3_11_36detail12out_of_rangeC1EiPKc, symObjAddr: 0x1E620, symBinAddr: 0x10001FB98, symSize: 0x3C }
  - { offsetInCU: 0x46420, offset: 0x46420, size: 0x8, addend: 0x0, symName: __ZN8nlohmann16json_abi_v3_11_36detail12out_of_rangeC2EiPKc, symObjAddr: 0x1E65C, symBinAddr: 0x10001FBD4, symSize: 0x54 }
  - { offsetInCU: 0x46468, offset: 0x46468, size: 0x8, addend: 0x0, symName: __ZN8nlohmann16json_abi_v3_11_36detail12out_of_rangeD0Ev, symObjAddr: 0x1E6B0, symBinAddr: 0x10001FC28, symSize: 0x30 }
  - { offsetInCU: 0x46495, offset: 0x46495, size: 0x8, addend: 0x0, symName: __ZN8nlohmann16json_abi_v3_11_310basic_jsonINSt3__13mapENS2_6vectorENS2_12basic_stringIcNS2_11char_traitsIcEENS2_9allocatorIcEEEEbxydS8_NS0_14adl_serializerENS4_IhNS8_IhEEEEvEC1ERKSE_, symObjAddr: 0x1E790, symBinAddr: 0x10001FD08, symSize: 0x34 }
  - { offsetInCU: 0x464CE, offset: 0x464CE, size: 0x8, addend: 0x0, symName: __ZNSt3__16vectorIPN8nlohmann16json_abi_v3_11_310basic_jsonINS_3mapES0_NS_12basic_stringIcNS_11char_traitsIcEENS_9allocatorIcEEEEbxydS8_NS2_14adl_serializerENS0_IhNS8_IhEEEEvEENS8_ISF_EEE8pop_backEv, symObjAddr: 0x1E7C4, symBinAddr: 0x10001FD3C, symSize: 0x2C }
  - { offsetInCU: 0x464F6, offset: 0x464F6, size: 0x8, addend: 0x0, symName: __ZNK8nlohmann16json_abi_v3_11_310basic_jsonINSt3__13mapENS2_6vectorENS2_12basic_stringIcNS2_11char_traitsIcEENS2_9allocatorIcEEEEbxydS8_NS0_14adl_serializerENS4_IhNS8_IhEEEEvE13is_structuredEv, symObjAddr: 0x1E7F0, symBinAddr: 0x10001FD68, symSize: 0x50 }
  - { offsetInCU: 0x4651C, offset: 0x4651C, size: 0x8, addend: 0x0, symName: __ZNK8nlohmann16json_abi_v3_11_36detail9iter_implINS0_10basic_jsonINSt3__13mapENS4_6vectorENS4_12basic_stringIcNS4_11char_traitsIcEENS4_9allocatorIcEEEEbxydSA_NS0_14adl_serializerENS6_IhNSA_IhEEEEvEEEptEv, symObjAddr: 0x1E840, symBinAddr: 0x10001FDB8, symSize: 0x270 }
  - { offsetInCU: 0x46542, offset: 0x46542, size: 0x8, addend: 0x0, symName: __ZN8nlohmann16json_abi_v3_11_310basic_jsonINSt3__13mapENS2_6vectorENS2_12basic_stringIcNS2_11char_traitsIcEENS2_9allocatorIcEEEEbxydS8_NS0_14adl_serializerENS4_IhNS8_IhEEEEvE5eraseINS0_6detail9iter_implISE_EELi0EEET_SJ_, symObjAddr: 0x1EAD8, symBinAddr: 0x100020050, symSize: 0x434 }
  - { offsetInCU: 0x465D5, offset: 0x465D5, size: 0x8, addend: 0x0, symName: __ZN8nlohmann16json_abi_v3_11_36detail9iter_implINS0_10basic_jsonINSt3__13mapENS4_6vectorENS4_12basic_stringIcNS4_11char_traitsIcEENS4_9allocatorIcEEEEbxydSA_NS0_14adl_serializerENS6_IhNSA_IhEEEEvEEEC1ERKSH_, symObjAddr: 0x1EF34, symBinAddr: 0x1000204AC, symSize: 0x34 }
  - { offsetInCU: 0x4660E, offset: 0x4660E, size: 0x8, addend: 0x0, symName: __ZN8nlohmann16json_abi_v3_11_310basic_jsonINSt3__13mapENS2_6vectorENS2_12basic_stringIcNS2_11char_traitsIcEENS2_9allocatorIcEEEEbxydS8_NS0_14adl_serializerENS4_IhNS8_IhEEEEvEC2ERKSE_, symObjAddr: 0x1EF68, symBinAddr: 0x1000204E0, symSize: 0x1F8 }
  - { offsetInCU: 0x46647, offset: 0x46647, size: 0x8, addend: 0x0, symName: __ZN8nlohmann16json_abi_v3_11_310basic_jsonINSt3__13mapENS2_6vectorENS2_12basic_stringIcNS2_11char_traitsIcEENS2_9allocatorIcEEEEbxydS8_NS0_14adl_serializerENS4_IhNS8_IhEEEEvE4dataC1Ev, symObjAddr: 0x1F188, symBinAddr: 0x100020700, symSize: 0x2C }
  - { offsetInCU: 0x46671, offset: 0x46671, size: 0x8, addend: 0x0, symName: __ZN8nlohmann16json_abi_v3_11_310basic_jsonINSt3__13mapENS2_6vectorENS2_12basic_stringIcNS2_11char_traitsIcEENS2_9allocatorIcEEEEbxydS8_NS0_14adl_serializerENS4_IhNS8_IhEEEEvE10json_valueC1ERKNS3_ISA_SE_NS2_4lessIvEENS8_INS2_4pairIKSA_SE_EEEEEE, symObjAddr: 0x1F1B4, symBinAddr: 0x10002072C, symSize: 0x34 }
  - { offsetInCU: 0x466AA, offset: 0x466AA, size: 0x8, addend: 0x0, symName: __ZN8nlohmann16json_abi_v3_11_310basic_jsonINSt3__13mapENS2_6vectorENS2_12basic_stringIcNS2_11char_traitsIcEENS2_9allocatorIcEEEEbxydS8_NS0_14adl_serializerENS4_IhNS8_IhEEEEvE10json_valueC1ERKNS4_ISE_NS8_ISE_EEEE, symObjAddr: 0x1F1E8, symBinAddr: 0x100020760, symSize: 0x34 }
  - { offsetInCU: 0x466E3, offset: 0x466E3, size: 0x8, addend: 0x0, symName: __ZN8nlohmann16json_abi_v3_11_310basic_jsonINSt3__13mapENS2_6vectorENS2_12basic_stringIcNS2_11char_traitsIcEENS2_9allocatorIcEEEEbxydS8_NS0_14adl_serializerENS4_IhNS8_IhEEEEvE10json_valueC1ERKSA_, symObjAddr: 0x1F21C, symBinAddr: 0x100020794, symSize: 0x34 }
  - { offsetInCU: 0x4671C, offset: 0x4671C, size: 0x8, addend: 0x0, symName: __ZN8nlohmann16json_abi_v3_11_310basic_jsonINSt3__13mapENS2_6vectorENS2_12basic_stringIcNS2_11char_traitsIcEENS2_9allocatorIcEEEEbxydS8_NS0_14adl_serializerENS4_IhNS8_IhEEEEvE10json_valueC1Eb, symObjAddr: 0x1F250, symBinAddr: 0x1000207C8, symSize: 0x40 }
  - { offsetInCU: 0x46755, offset: 0x46755, size: 0x8, addend: 0x0, symName: __ZN8nlohmann16json_abi_v3_11_310basic_jsonINSt3__13mapENS2_6vectorENS2_12basic_stringIcNS2_11char_traitsIcEENS2_9allocatorIcEEEEbxydS8_NS0_14adl_serializerENS4_IhNS8_IhEEEEvE10json_valueC1Ex, symObjAddr: 0x1F290, symBinAddr: 0x100020808, symSize: 0x34 }
  - { offsetInCU: 0x4678E, offset: 0x4678E, size: 0x8, addend: 0x0, symName: __ZN8nlohmann16json_abi_v3_11_310basic_jsonINSt3__13mapENS2_6vectorENS2_12basic_stringIcNS2_11char_traitsIcEENS2_9allocatorIcEEEEbxydS8_NS0_14adl_serializerENS4_IhNS8_IhEEEEvE10json_valueC1Ey, symObjAddr: 0x1F2C4, symBinAddr: 0x10002083C, symSize: 0x34 }
  - { offsetInCU: 0x467C7, offset: 0x467C7, size: 0x8, addend: 0x0, symName: __ZN8nlohmann16json_abi_v3_11_310basic_jsonINSt3__13mapENS2_6vectorENS2_12basic_stringIcNS2_11char_traitsIcEENS2_9allocatorIcEEEEbxydS8_NS0_14adl_serializerENS4_IhNS8_IhEEEEvE10json_valueC1Ed, symObjAddr: 0x1F2F8, symBinAddr: 0x100020870, symSize: 0x34 }
  - { offsetInCU: 0x46800, offset: 0x46800, size: 0x8, addend: 0x0, symName: __ZN8nlohmann16json_abi_v3_11_310basic_jsonINSt3__13mapENS2_6vectorENS2_12basic_stringIcNS2_11char_traitsIcEENS2_9allocatorIcEEEEbxydS8_NS0_14adl_serializerENS4_IhNS8_IhEEEEvE10json_valueC1ERKNS0_27byte_container_with_subtypeISD_EE, symObjAddr: 0x1F32C, symBinAddr: 0x1000208A4, symSize: 0x34 }
  - { offsetInCU: 0x46839, offset: 0x46839, size: 0x8, addend: 0x0, symName: __ZN8nlohmann16json_abi_v3_11_310basic_jsonINSt3__13mapENS2_6vectorENS2_12basic_stringIcNS2_11char_traitsIcEENS2_9allocatorIcEEEEbxydS8_NS0_14adl_serializerENS4_IhNS8_IhEEEEvE4dataC2Ev, symObjAddr: 0x1F360, symBinAddr: 0x1000208D8, symSize: 0x1C }
  - { offsetInCU: 0x46863, offset: 0x46863, size: 0x8, addend: 0x0, symName: __ZN8nlohmann16json_abi_v3_11_310basic_jsonINSt3__13mapENS2_6vectorENS2_12basic_stringIcNS2_11char_traitsIcEENS2_9allocatorIcEEEEbxydS8_NS0_14adl_serializerENS4_IhNS8_IhEEEEvE10json_valueC2ERKNS3_ISA_SE_NS2_4lessIvEENS8_INS2_4pairIKSA_SE_EEEEEE, symObjAddr: 0x1F37C, symBinAddr: 0x1000208F4, symSize: 0x3C }
  - { offsetInCU: 0x4689C, offset: 0x4689C, size: 0x8, addend: 0x0, symName: __ZN8nlohmann16json_abi_v3_11_310basic_jsonINSt3__13mapENS2_6vectorENS2_12basic_stringIcNS2_11char_traitsIcEENS2_9allocatorIcEEEEbxydS8_NS0_14adl_serializerENS4_IhNS8_IhEEEEvE6createINS3_ISA_SE_NS2_4lessIvEENS8_INS2_4pairIKSA_SE_EEEEEEJRKSM_EEEPT_DpOT0_, symObjAddr: 0x1F3B8, symBinAddr: 0x100020930, symSize: 0xF4 }
  - { offsetInCU: 0x4699D, offset: 0x4699D, size: 0x8, addend: 0x0, symName: __ZNSt3__110unique_ptrINS_3mapINS_12basic_stringIcNS_11char_traitsIcEENS_9allocatorIcEEEEN8nlohmann16json_abi_v3_11_310basic_jsonIS1_NS_6vectorES7_bxydS5_NS9_14adl_serializerENSB_IhNS5_IhEEEEvEENS_4lessIvEENS5_INS_4pairIKS7_SF_EEEEEEZNSF_6createISM_JRKSM_EEEPT_DpOT0_EUlPSM_E_EC1B8ue170006ILb1EvEESV_NS_16__dependent_typeINS_27__unique_ptr_deleter_sfinaeISW_EEXT_EE15__lval_ref_typeE, symObjAddr: 0x1F4AC, symBinAddr: 0x100020A24, symSize: 0x3C }
  - { offsetInCU: 0x469EE, offset: 0x469EE, size: 0x8, addend: 0x0, symName: __ZNSt3__116allocator_traitsINS_9allocatorINS_3mapINS_12basic_stringIcNS_11char_traitsIcEENS1_IcEEEEN8nlohmann16json_abi_v3_11_310basic_jsonIS2_NS_6vectorES7_bxydS1_NS9_14adl_serializerENSB_IhNS1_IhEEEEvEENS_4lessIvEENS1_INS_4pairIKS7_SF_EEEEEEEEE9constructB8ue170006ISM_JRKSM_EvvEEvRSN_PT_DpOT0_, symObjAddr: 0x1F4E8, symBinAddr: 0x100020A60, symSize: 0x30 }
  - { offsetInCU: 0x46A42, offset: 0x46A42, size: 0x8, addend: 0x0, symName: __ZNKSt3__110unique_ptrINS_3mapINS_12basic_stringIcNS_11char_traitsIcEENS_9allocatorIcEEEEN8nlohmann16json_abi_v3_11_310basic_jsonIS1_NS_6vectorES7_bxydS5_NS9_14adl_serializerENSB_IhNS5_IhEEEEvEENS_4lessIvEENS5_INS_4pairIKS7_SF_EEEEEEZNSF_6createISM_JRKSM_EEEPT_DpOT0_EUlPSM_E_E3getB8ue170006Ev, symObjAddr: 0x1F518, symBinAddr: 0x100020A90, symSize: 0x28 }
  - { offsetInCU: 0x46A68, offset: 0x46A68, size: 0x8, addend: 0x0, symName: __ZNSt3__110unique_ptrINS_3mapINS_12basic_stringIcNS_11char_traitsIcEENS_9allocatorIcEEEEN8nlohmann16json_abi_v3_11_310basic_jsonIS1_NS_6vectorES7_bxydS5_NS9_14adl_serializerENSB_IhNS5_IhEEEEvEENS_4lessIvEENS5_INS_4pairIKS7_SF_EEEEEEZNSF_6createISM_JRKSM_EEEPT_DpOT0_EUlPSM_E_E7releaseB8ue170006Ev, symObjAddr: 0x1F570, symBinAddr: 0x100020AE8, symSize: 0x44 }
  - { offsetInCU: 0x46A9D, offset: 0x46A9D, size: 0x8, addend: 0x0, symName: __ZNSt3__110unique_ptrINS_3mapINS_12basic_stringIcNS_11char_traitsIcEENS_9allocatorIcEEEEN8nlohmann16json_abi_v3_11_310basic_jsonIS1_NS_6vectorES7_bxydS5_NS9_14adl_serializerENSB_IhNS5_IhEEEEvEENS_4lessIvEENS5_INS_4pairIKS7_SF_EEEEEEZNSF_6createISM_JRKSM_EEEPT_DpOT0_EUlPSM_E_ED1B8ue170006Ev, symObjAddr: 0x1F5B4, symBinAddr: 0x100020B2C, symSize: 0x2C }
  - { offsetInCU: 0x46AC7, offset: 0x46AC7, size: 0x8, addend: 0x0, symName: __ZNSt3__110unique_ptrINS_3mapINS_12basic_stringIcNS_11char_traitsIcEENS_9allocatorIcEEEEN8nlohmann16json_abi_v3_11_310basic_jsonIS1_NS_6vectorES7_bxydS5_NS9_14adl_serializerENSB_IhNS5_IhEEEEvEENS_4lessIvEENS5_INS_4pairIKS7_SF_EEEEEEZNSF_6createISM_JRKSM_EEEPT_DpOT0_EUlPSM_E_EC2B8ue170006ILb1EvEESV_NS_16__dependent_typeINS_27__unique_ptr_deleter_sfinaeISW_EEXT_EE15__lval_ref_typeE, symObjAddr: 0x1F5E0, symBinAddr: 0x100020B58, symSize: 0x48 }
  - { offsetInCU: 0x46B18, offset: 0x46B18, size: 0x8, addend: 0x0, symName: __ZNSt3__117__compressed_pairIPNS_3mapINS_12basic_stringIcNS_11char_traitsIcEENS_9allocatorIcEEEEN8nlohmann16json_abi_v3_11_310basic_jsonIS1_NS_6vectorES7_bxydS5_NS9_14adl_serializerENSB_IhNS5_IhEEEEvEENS_4lessIvEENS5_INS_4pairIKS7_SF_EEEEEEZNSF_6createISM_JRKSM_EEEPT_DpOT0_EUlSN_E_EC1B8ue170006IRSN_RKSW_EEOSR_OT0_, symObjAddr: 0x1F628, symBinAddr: 0x100020BA0, symSize: 0x3C }
  - { offsetInCU: 0x46B70, offset: 0x46B70, size: 0x8, addend: 0x0, symName: __ZNSt3__117__compressed_pairIPNS_3mapINS_12basic_stringIcNS_11char_traitsIcEENS_9allocatorIcEEEEN8nlohmann16json_abi_v3_11_310basic_jsonIS1_NS_6vectorES7_bxydS5_NS9_14adl_serializerENSB_IhNS5_IhEEEEvEENS_4lessIvEENS5_INS_4pairIKS7_SF_EEEEEEZNSF_6createISM_JRKSM_EEEPT_DpOT0_EUlSN_E_EC2B8ue170006IRSN_RKSW_EEOSR_OT0_, symObjAddr: 0x1F664, symBinAddr: 0x100020BDC, symSize: 0x48 }
  - { offsetInCU: 0x46BC8, offset: 0x46BC8, size: 0x8, addend: 0x0, symName: __ZNSt3__122__compressed_pair_elemIZN8nlohmann16json_abi_v3_11_310basic_jsonINS_3mapENS_6vectorENS_12basic_stringIcNS_11char_traitsIcEENS_9allocatorIcEEEEbxydS9_NS2_14adl_serializerENS5_IhNS9_IhEEEEvE6createINS4_ISB_SF_NS_4lessIvEENS9_INS_4pairIKSB_SF_EEEEEEJRKSN_EEEPT_DpOT0_EUlPSN_E_Li1ELb0EEC2B8ue170006IRKSW_vEEOSQ_, symObjAddr: 0x1F6AC, symBinAddr: 0x100020C24, symSize: 0x24 }
  - { offsetInCU: 0x46C0A, offset: 0x46C0A, size: 0x8, addend: 0x0, symName: __ZNSt3__13mapINS_12basic_stringIcNS_11char_traitsIcEENS_9allocatorIcEEEEN8nlohmann16json_abi_v3_11_310basic_jsonIS0_NS_6vectorES6_bxydS4_NS8_14adl_serializerENSA_IhNS4_IhEEEEvEENS_4lessIvEENS4_INS_4pairIKS6_SE_EEEEEC1B8ue170006ERKSL_, symObjAddr: 0x1F70C, symBinAddr: 0x100020C84, symSize: 0x34 }
  - { offsetInCU: 0x46C43, offset: 0x46C43, size: 0x8, addend: 0x0, symName: __ZNSt3__13mapINS_12basic_stringIcNS_11char_traitsIcEENS_9allocatorIcEEEEN8nlohmann16json_abi_v3_11_310basic_jsonIS0_NS_6vectorES6_bxydS4_NS8_14adl_serializerENSA_IhNS4_IhEEEEvEENS_4lessIvEENS4_INS_4pairIKS6_SE_EEEEEC2B8ue170006ERKSL_, symObjAddr: 0x1F740, symBinAddr: 0x100020CB8, symSize: 0x88 }
  - { offsetInCU: 0x46C7C, offset: 0x46C7C, size: 0x8, addend: 0x0, symName: __ZNSt3__16__treeINS_12__value_typeINS_12basic_stringIcNS_11char_traitsIcEENS_9allocatorIcEEEEN8nlohmann16json_abi_v3_11_310basic_jsonINS_3mapENS_6vectorES7_bxydS5_NS9_14adl_serializerENSC_IhNS5_IhEEEEvEEEENS_19__map_value_compareIS7_SH_NS_4lessIvEELb1EEENS5_ISH_EEEC1ERKSN_, symObjAddr: 0x1F7C8, symBinAddr: 0x100020D40, symSize: 0x34 }
  - { offsetInCU: 0x46CB7, offset: 0x46CB7, size: 0x8, addend: 0x0, symName: __ZNSt3__13mapINS_12basic_stringIcNS_11char_traitsIcEENS_9allocatorIcEEEEN8nlohmann16json_abi_v3_11_310basic_jsonIS0_NS_6vectorES6_bxydS4_NS8_14adl_serializerENSA_IhNS4_IhEEEEvEENS_4lessIvEENS4_INS_4pairIKS6_SE_EEEEE6insertB8ue170006INS_20__map_const_iteratorINS_21__tree_const_iteratorINS_12__value_typeIS6_SE_EEPNS_11__tree_nodeISQ_PvEElEEEEEEvT_SX_, symObjAddr: 0x1F7FC, symBinAddr: 0x100020D74, symSize: 0x8C }
  - { offsetInCU: 0x46D22, offset: 0x46D22, size: 0x8, addend: 0x0, symName: __ZNKSt3__13mapINS_12basic_stringIcNS_11char_traitsIcEENS_9allocatorIcEEEEN8nlohmann16json_abi_v3_11_310basic_jsonIS0_NS_6vectorES6_bxydS4_NS8_14adl_serializerENSA_IhNS4_IhEEEEvEENS_4lessIvEENS4_INS_4pairIKS6_SE_EEEEE5beginB8ue170006Ev, symObjAddr: 0x1F888, symBinAddr: 0x100020E00, symSize: 0x38 }
  - { offsetInCU: 0x46D48, offset: 0x46D48, size: 0x8, addend: 0x0, symName: __ZNKSt3__13mapINS_12basic_stringIcNS_11char_traitsIcEENS_9allocatorIcEEEEN8nlohmann16json_abi_v3_11_310basic_jsonIS0_NS_6vectorES6_bxydS4_NS8_14adl_serializerENSA_IhNS4_IhEEEEvEENS_4lessIvEENS4_INS_4pairIKS6_SE_EEEEE3endB8ue170006Ev, symObjAddr: 0x1F8C0, symBinAddr: 0x100020E38, symSize: 0x38 }
  - { offsetInCU: 0x46D6E, offset: 0x46D6E, size: 0x8, addend: 0x0, symName: __ZNSt3__16__treeINS_12__value_typeINS_12basic_stringIcNS_11char_traitsIcEENS_9allocatorIcEEEEN8nlohmann16json_abi_v3_11_310basic_jsonINS_3mapENS_6vectorES7_bxydS5_NS9_14adl_serializerENSC_IhNS5_IhEEEEvEEEENS_19__map_value_compareIS7_SH_NS_4lessIvEELb1EEENS5_ISH_EEEC2ERKSN_, symObjAddr: 0x1F8F8, symBinAddr: 0x100020E70, symSize: 0x9C }
  - { offsetInCU: 0x46DA9, offset: 0x46DA9, size: 0x8, addend: 0x0, symName: __ZNSt3__116allocator_traitsINS_9allocatorINS_11__tree_nodeINS_12__value_typeINS_12basic_stringIcNS_11char_traitsIcEENS1_IcEEEEN8nlohmann16json_abi_v3_11_310basic_jsonINS_3mapENS_6vectorES8_bxydS1_NSA_14adl_serializerENSD_IhNS1_IhEEEEvEEEEPvEEEEE37select_on_container_copy_constructionB8ue170006ISL_vvEESL_RKSL_, symObjAddr: 0x1F994, symBinAddr: 0x100020F0C, symSize: 0x10 }
  - { offsetInCU: 0x46DDE, offset: 0x46DDE, size: 0x8, addend: 0x0, symName: __ZNSt3__117__compressed_pairINS_15__tree_end_nodeIPNS_16__tree_node_baseIPvEEEENS_9allocatorINS_11__tree_nodeINS_12__value_typeINS_12basic_stringIcNS_11char_traitsIcEENS7_IcEEEEN8nlohmann16json_abi_v3_11_310basic_jsonINS_3mapENS_6vectorESE_bxydS7_NSG_14adl_serializerENSJ_IhNS7_IhEEEEvEEEES3_EEEEEC1B8ue170006INS_18__default_init_tagESQ_EEOT_OT0_, symObjAddr: 0x1F9A4, symBinAddr: 0x100020F1C, symSize: 0x3C }
  - { offsetInCU: 0x46E36, offset: 0x46E36, size: 0x8, addend: 0x0, symName: __ZNKSt3__16__treeINS_12__value_typeINS_12basic_stringIcNS_11char_traitsIcEENS_9allocatorIcEEEEN8nlohmann16json_abi_v3_11_310basic_jsonINS_3mapENS_6vectorES7_bxydS5_NS9_14adl_serializerENSC_IhNS5_IhEEEEvEEEENS_19__map_value_compareIS7_SH_NS_4lessIvEELb1EEENS5_ISH_EEE10value_compB8ue170006Ev, symObjAddr: 0x1F9E0, symBinAddr: 0x100020F58, symSize: 0x28 }
  - { offsetInCU: 0x46E5C, offset: 0x46E5C, size: 0x8, addend: 0x0, symName: __ZNSt3__117__compressed_pairINS_15__tree_end_nodeIPNS_16__tree_node_baseIPvEEEENS_9allocatorINS_11__tree_nodeINS_12__value_typeINS_12basic_stringIcNS_11char_traitsIcEENS7_IcEEEEN8nlohmann16json_abi_v3_11_310basic_jsonINS_3mapENS_6vectorESE_bxydS7_NSG_14adl_serializerENSJ_IhNS7_IhEEEEvEEEES3_EEEEEC2B8ue170006INS_18__default_init_tagESQ_EEOT_OT0_, symObjAddr: 0x1FA08, symBinAddr: 0x100020F80, symSize: 0x40 }
  - { offsetInCU: 0x46EB4, offset: 0x46EB4, size: 0x8, addend: 0x0, symName: __ZNSt3__122__compressed_pair_elemINS_15__tree_end_nodeIPNS_16__tree_node_baseIPvEEEELi0ELb0EEC2B8ue170006ENS_18__default_init_tagE, symObjAddr: 0x1FA48, symBinAddr: 0x100020FC0, symSize: 0x2C }
  - { offsetInCU: 0x46EE9, offset: 0x46EE9, size: 0x8, addend: 0x0, symName: __ZNSt3__122__compressed_pair_elemINS_9allocatorINS_11__tree_nodeINS_12__value_typeINS_12basic_stringIcNS_11char_traitsIcEENS1_IcEEEEN8nlohmann16json_abi_v3_11_310basic_jsonINS_3mapENS_6vectorES8_bxydS1_NSA_14adl_serializerENSD_IhNS1_IhEEEEvEEEEPvEEEELi1ELb1EEC2B8ue170006ISL_vEEOT_, symObjAddr: 0x1FA74, symBinAddr: 0x100020FEC, symSize: 0x18 }
  - { offsetInCU: 0x46F2B, offset: 0x46F2B, size: 0x8, addend: 0x0, symName: __ZNKSt3__117__compressed_pairImNS_19__map_value_compareINS_12basic_stringIcNS_11char_traitsIcEENS_9allocatorIcEEEENS_12__value_typeIS7_N8nlohmann16json_abi_v3_11_310basic_jsonINS_3mapENS_6vectorES7_bxydS5_NSA_14adl_serializerENSD_IhNS5_IhEEEEvEEEENS_4lessIvEELb1EEEE6secondB8ue170006Ev, symObjAddr: 0x1FA8C, symBinAddr: 0x100021004, symSize: 0x24 }
  - { offsetInCU: 0x46F51, offset: 0x46F51, size: 0x8, addend: 0x0, symName: __ZNKSt3__122__compressed_pair_elemINS_19__map_value_compareINS_12basic_stringIcNS_11char_traitsIcEENS_9allocatorIcEEEENS_12__value_typeIS7_N8nlohmann16json_abi_v3_11_310basic_jsonINS_3mapENS_6vectorES7_bxydS5_NSA_14adl_serializerENSD_IhNS5_IhEEEEvEEEENS_4lessIvEELb1EEELi1ELb1EE5__getB8ue170006Ev, symObjAddr: 0x1FAB0, symBinAddr: 0x100021028, symSize: 0x14 }
  - { offsetInCU: 0x46F77, offset: 0x46F77, size: 0x8, addend: 0x0, symName: __ZNKSt3__13mapINS_12basic_stringIcNS_11char_traitsIcEENS_9allocatorIcEEEEN8nlohmann16json_abi_v3_11_310basic_jsonIS0_NS_6vectorES6_bxydS4_NS8_14adl_serializerENSA_IhNS4_IhEEEEvEENS_4lessIvEENS4_INS_4pairIKS6_SE_EEEEE4cendB8ue170006Ev, symObjAddr: 0x1FAC4, symBinAddr: 0x10002103C, symSize: 0x2C }
  - { offsetInCU: 0x46F9D, offset: 0x46F9D, size: 0x8, addend: 0x0, symName: __ZNSt3__13mapINS_12basic_stringIcNS_11char_traitsIcEENS_9allocatorIcEEEEN8nlohmann16json_abi_v3_11_310basic_jsonIS0_NS_6vectorES6_bxydS4_NS8_14adl_serializerENSA_IhNS4_IhEEEEvEENS_4lessIvEENS4_INS_4pairIKS6_SE_EEEEE6insertB8ue170006ENS_20__map_const_iteratorINS_21__tree_const_iteratorINS_12__value_typeIS6_SE_EEPNS_11__tree_nodeISP_PvEElEEEERKSJ_, symObjAddr: 0x1FB20, symBinAddr: 0x100021098, symSize: 0x50 }
  - { offsetInCU: 0x46FE1, offset: 0x46FE1, size: 0x8, addend: 0x0, symName: __ZNSt3__120__map_const_iteratorINS_21__tree_const_iteratorINS_12__value_typeINS_12basic_stringIcNS_11char_traitsIcEENS_9allocatorIcEEEEN8nlohmann16json_abi_v3_11_310basic_jsonINS_3mapENS_6vectorES8_bxydS6_NSA_14adl_serializerENSD_IhNS6_IhEEEEvEEEEPNS_11__tree_nodeISI_PvEElEEEC1B8ue170006ESN_, symObjAddr: 0x1FB70, symBinAddr: 0x1000210E8, symSize: 0x34 }
  - { offsetInCU: 0x4701A, offset: 0x4701A, size: 0x8, addend: 0x0, symName: __ZNKSt3__120__map_const_iteratorINS_21__tree_const_iteratorINS_12__value_typeINS_12basic_stringIcNS_11char_traitsIcEENS_9allocatorIcEEEEN8nlohmann16json_abi_v3_11_310basic_jsonINS_3mapENS_6vectorES8_bxydS6_NSA_14adl_serializerENSD_IhNS6_IhEEEEvEEEEPNS_11__tree_nodeISI_PvEElEEEdeB8ue170006Ev, symObjAddr: 0x1FBA4, symBinAddr: 0x10002111C, symSize: 0x28 }
  - { offsetInCU: 0x47040, offset: 0x47040, size: 0x8, addend: 0x0, symName: __ZNSt3__120__map_const_iteratorINS_21__tree_const_iteratorINS_12__value_typeINS_12basic_stringIcNS_11char_traitsIcEENS_9allocatorIcEEEEN8nlohmann16json_abi_v3_11_310basic_jsonINS_3mapENS_6vectorES8_bxydS6_NSA_14adl_serializerENSD_IhNS6_IhEEEEvEEEEPNS_11__tree_nodeISI_PvEElEEEppB8ue170006Ev, symObjAddr: 0x1FBCC, symBinAddr: 0x100021144, symSize: 0x2C }
  - { offsetInCU: 0x47066, offset: 0x47066, size: 0x8, addend: 0x0, symName: __ZNSt3__16__treeINS_12__value_typeINS_12basic_stringIcNS_11char_traitsIcEENS_9allocatorIcEEEEN8nlohmann16json_abi_v3_11_310basic_jsonINS_3mapENS_6vectorES7_bxydS5_NS9_14adl_serializerENSC_IhNS5_IhEEEEvEEEENS_19__map_value_compareIS7_SH_NS_4lessIvEELb1EEENS5_ISH_EEE15__insert_uniqueB8ue170006ENS_21__tree_const_iteratorISH_PNS_11__tree_nodeISH_PvEElEERKNS_4pairIKS7_SG_EE, symObjAddr: 0x1FC5C, symBinAddr: 0x1000211D4, symSize: 0x64 }
  - { offsetInCU: 0x470AA, offset: 0x470AA, size: 0x8, addend: 0x0, symName: __ZNSt3__16__treeINS_12__value_typeINS_12basic_stringIcNS_11char_traitsIcEENS_9allocatorIcEEEEN8nlohmann16json_abi_v3_11_310basic_jsonINS_3mapENS_6vectorES7_bxydS5_NS9_14adl_serializerENSC_IhNS5_IhEEEEvEEEENS_19__map_value_compareIS7_SH_NS_4lessIvEELb1EEENS5_ISH_EEE30__emplace_hint_unique_key_argsIS7_JRKNS_4pairIKS7_SG_EEEEENSP_INS_15__tree_iteratorISH_PNS_11__tree_nodeISH_PvEElEEbEENS_21__tree_const_iteratorISH_SY_lEERKT_DpOT0_, symObjAddr: 0x1FCC0, symBinAddr: 0x100021238, symSize: 0x104 }
  - { offsetInCU: 0x47177, offset: 0x47177, size: 0x8, addend: 0x0, symName: __ZNSt3__122__tree_key_value_typesINS_12__value_typeINS_12basic_stringIcNS_11char_traitsIcEENS_9allocatorIcEEEEN8nlohmann16json_abi_v3_11_310basic_jsonINS_3mapENS_6vectorES7_bxydS5_NS9_14adl_serializerENSC_IhNS5_IhEEEEvEEEEE9__get_keyB8ue170006IKNS_4pairIKS7_SG_EEEENS_9enable_ifIXsr17__is_same_uncvrefIT_SM_EE5valueERSL_E4typeERSP_, symObjAddr: 0x1FDC4, symBinAddr: 0x10002133C, symSize: 0x14 }
  - { offsetInCU: 0x471A4, offset: 0x471A4, size: 0x8, addend: 0x0, symName: __ZNSt3__16__treeINS_12__value_typeINS_12basic_stringIcNS_11char_traitsIcEENS_9allocatorIcEEEEN8nlohmann16json_abi_v3_11_310basic_jsonINS_3mapENS_6vectorES7_bxydS5_NS9_14adl_serializerENSC_IhNS5_IhEEEEvEEEENS_19__map_value_compareIS7_SH_NS_4lessIvEELb1EEENS5_ISH_EEE12__find_equalIS7_EERPNS_16__tree_node_baseIPvEENS_21__tree_const_iteratorISH_PNS_11__tree_nodeISH_SQ_EElEERPNS_15__tree_end_nodeISS_EEST_RKT_, symObjAddr: 0x1FDD8, symBinAddr: 0x100021350, symSize: 0x304 }
  - { offsetInCU: 0x4724F, offset: 0x4724F, size: 0x8, addend: 0x0, symName: __ZNSt3__16__treeINS_12__value_typeINS_12basic_stringIcNS_11char_traitsIcEENS_9allocatorIcEEEEN8nlohmann16json_abi_v3_11_310basic_jsonINS_3mapENS_6vectorES7_bxydS5_NS9_14adl_serializerENSC_IhNS5_IhEEEEvEEEENS_19__map_value_compareIS7_SH_NS_4lessIvEELb1EEENS5_ISH_EEE16__construct_nodeIJRKNS_4pairIKS7_SG_EEEEENS_10unique_ptrINS_11__tree_nodeISH_PvEENS_22__tree_node_destructorINS5_ISX_EEEEEEDpOT_, symObjAddr: 0x200DC, symBinAddr: 0x100021654, symSize: 0x108 }
  - { offsetInCU: 0x472B0, offset: 0x472B0, size: 0x8, addend: 0x0, symName: __ZNSt3__16__treeINS_12__value_typeINS_12basic_stringIcNS_11char_traitsIcEENS_9allocatorIcEEEEN8nlohmann16json_abi_v3_11_310basic_jsonINS_3mapENS_6vectorES7_bxydS5_NS9_14adl_serializerENSC_IhNS5_IhEEEEvEEEENS_19__map_value_compareIS7_SH_NS_4lessIvEELb1EEENS5_ISH_EEE16__insert_node_atEPNS_15__tree_end_nodeIPNS_16__tree_node_baseIPvEEEERSS_SS_, symObjAddr: 0x201E4, symBinAddr: 0x10002175C, symSize: 0xCC }
  - { offsetInCU: 0x47305, offset: 0x47305, size: 0x8, addend: 0x0, symName: __ZNKSt3__110unique_ptrINS_11__tree_nodeINS_12__value_typeINS_12basic_stringIcNS_11char_traitsIcEENS_9allocatorIcEEEEN8nlohmann16json_abi_v3_11_310basic_jsonINS_3mapENS_6vectorES8_bxydS6_NSA_14adl_serializerENSD_IhNS6_IhEEEEvEEEEPvEENS_22__tree_node_destructorINS6_ISK_EEEEE3getB8ue170006Ev, symObjAddr: 0x202B0, symBinAddr: 0x100021828, symSize: 0x28 }
  - { offsetInCU: 0x4732B, offset: 0x4732B, size: 0x8, addend: 0x0, symName: __ZNSt3__110unique_ptrINS_11__tree_nodeINS_12__value_typeINS_12basic_stringIcNS_11char_traitsIcEENS_9allocatorIcEEEEN8nlohmann16json_abi_v3_11_310basic_jsonINS_3mapENS_6vectorES8_bxydS6_NSA_14adl_serializerENSD_IhNS6_IhEEEEvEEEEPvEENS_22__tree_node_destructorINS6_ISK_EEEEE7releaseB8ue170006Ev, symObjAddr: 0x202D8, symBinAddr: 0x100021850, symSize: 0x44 }
  - { offsetInCU: 0x47360, offset: 0x47360, size: 0x8, addend: 0x0, symName: __ZNSt3__110unique_ptrINS_11__tree_nodeINS_12__value_typeINS_12basic_stringIcNS_11char_traitsIcEENS_9allocatorIcEEEEN8nlohmann16json_abi_v3_11_310basic_jsonINS_3mapENS_6vectorES8_bxydS6_NSA_14adl_serializerENSD_IhNS6_IhEEEEvEEEEPvEENS_22__tree_node_destructorINS6_ISK_EEEEED1B8ue170006Ev, symObjAddr: 0x2031C, symBinAddr: 0x100021894, symSize: 0x2C }
  - { offsetInCU: 0x4738A, offset: 0x4738A, size: 0x8, addend: 0x0, symName: __ZNSt3__115__tree_iteratorINS_12__value_typeINS_12basic_stringIcNS_11char_traitsIcEENS_9allocatorIcEEEEN8nlohmann16json_abi_v3_11_310basic_jsonINS_3mapENS_6vectorES7_bxydS5_NS9_14adl_serializerENSC_IhNS5_IhEEEEvEEEEPNS_11__tree_nodeISH_PvEElEC1B8ue170006ESL_, symObjAddr: 0x20348, symBinAddr: 0x1000218C0, symSize: 0x34 }
  - { offsetInCU: 0x473C9, offset: 0x473C9, size: 0x8, addend: 0x0, symName: __ZNSt3__14pairINS_15__tree_iteratorINS_12__value_typeINS_12basic_stringIcNS_11char_traitsIcEENS_9allocatorIcEEEEN8nlohmann16json_abi_v3_11_310basic_jsonINS_3mapENS_6vectorES8_bxydS6_NSA_14adl_serializerENSD_IhNS6_IhEEEEvEEEEPNS_11__tree_nodeISI_PvEElEEbEC1B8ue170006ISN_RbLSK_0EEEOT_OT0_, symObjAddr: 0x2037C, symBinAddr: 0x1000218F4, symSize: 0x3C }
  - { offsetInCU: 0x47427, offset: 0x47427, size: 0x8, addend: 0x0, symName: __ZNSt3__121__tree_const_iteratorINS_12__value_typeINS_12basic_stringIcNS_11char_traitsIcEENS_9allocatorIcEEEEN8nlohmann16json_abi_v3_11_310basic_jsonINS_3mapENS_6vectorES7_bxydS5_NS9_14adl_serializerENSC_IhNS5_IhEEEEvEEEEPNS_11__tree_nodeISH_PvEElEC1B8ue170006ENS_15__tree_iteratorISH_SL_lEE, symObjAddr: 0x203B8, symBinAddr: 0x100021930, symSize: 0x34 }
  - { offsetInCU: 0x47460, offset: 0x47460, size: 0x8, addend: 0x0, symName: __ZNSt3__16__treeINS_12__value_typeINS_12basic_stringIcNS_11char_traitsIcEENS_9allocatorIcEEEEN8nlohmann16json_abi_v3_11_310basic_jsonINS_3mapENS_6vectorES7_bxydS5_NS9_14adl_serializerENSC_IhNS5_IhEEEEvEEEENS_19__map_value_compareIS7_SH_NS_4lessIvEELb1EEENS5_ISH_EEE10value_compB8ue170006Ev, symObjAddr: 0x203EC, symBinAddr: 0x100021964, symSize: 0x28 }
  - { offsetInCU: 0x47486, offset: 0x47486, size: 0x8, addend: 0x0, symName: __ZNKSt3__119__map_value_compareINS_12basic_stringIcNS_11char_traitsIcEENS_9allocatorIcEEEENS_12__value_typeIS6_N8nlohmann16json_abi_v3_11_310basic_jsonINS_3mapENS_6vectorES6_bxydS4_NS9_14adl_serializerENSC_IhNS4_IhEEEEvEEEENS_4lessIvEELb1EEclB8ue170006ERKS6_RKSH_, symObjAddr: 0x20414, symBinAddr: 0x10002198C, symSize: 0x50 }
  - { offsetInCU: 0x474CA, offset: 0x474CA, size: 0x8, addend: 0x0, symName: __ZNKSt3__121__tree_const_iteratorINS_12__value_typeINS_12basic_stringIcNS_11char_traitsIcEENS_9allocatorIcEEEEN8nlohmann16json_abi_v3_11_310basic_jsonINS_3mapENS_6vectorES7_bxydS5_NS9_14adl_serializerENSC_IhNS5_IhEEEEvEEEEPNS_11__tree_nodeISH_PvEElEdeB8ue170006Ev, symObjAddr: 0x20464, symBinAddr: 0x1000219DC, symSize: 0x28 }
  - { offsetInCU: 0x474F0, offset: 0x474F0, size: 0x8, addend: 0x0, symName: __ZNKSt3__119__map_value_compareINS_12basic_stringIcNS_11char_traitsIcEENS_9allocatorIcEEEENS_12__value_typeIS6_N8nlohmann16json_abi_v3_11_310basic_jsonINS_3mapENS_6vectorES6_bxydS4_NS9_14adl_serializerENSC_IhNS4_IhEEEEvEEEENS_4lessIvEELb1EEclB8ue170006ERKSH_RKS6_, symObjAddr: 0x2048C, symBinAddr: 0x100021A04, symSize: 0x48 }
  - { offsetInCU: 0x47534, offset: 0x47534, size: 0x8, addend: 0x0, symName: __ZNSt3__121__tree_const_iteratorINS_12__value_typeINS_12basic_stringIcNS_11char_traitsIcEENS_9allocatorIcEEEEN8nlohmann16json_abi_v3_11_310basic_jsonINS_3mapENS_6vectorES7_bxydS5_NS9_14adl_serializerENSC_IhNS5_IhEEEEvEEEEPNS_11__tree_nodeISH_PvEElEmmB8ue170006Ev, symObjAddr: 0x204D4, symBinAddr: 0x100021A4C, symSize: 0x38 }
  - { offsetInCU: 0x4755A, offset: 0x4755A, size: 0x8, addend: 0x0, symName: __ZNSt3__16__treeINS_12__value_typeINS_12basic_stringIcNS_11char_traitsIcEENS_9allocatorIcEEEEN8nlohmann16json_abi_v3_11_310basic_jsonINS_3mapENS_6vectorES7_bxydS5_NS9_14adl_serializerENSC_IhNS5_IhEEEEvEEEENS_19__map_value_compareIS7_SH_NS_4lessIvEELb1EEENS5_ISH_EEE12__find_equalIS7_EERPNS_16__tree_node_baseIPvEERPNS_15__tree_end_nodeISS_EERKT_, symObjAddr: 0x2050C, symBinAddr: 0x100021A84, symSize: 0x184 }
  - { offsetInCU: 0x475C7, offset: 0x475C7, size: 0x8, addend: 0x0, symName: __ZNKSt3__121__tree_const_iteratorINS_12__value_typeINS_12basic_stringIcNS_11char_traitsIcEENS_9allocatorIcEEEEN8nlohmann16json_abi_v3_11_310basic_jsonINS_3mapENS_6vectorES7_bxydS5_NS9_14adl_serializerENSC_IhNS5_IhEEEEvEEEEPNS_11__tree_nodeISH_PvEElE8__get_npB8ue170006Ev, symObjAddr: 0x206CC, symBinAddr: 0x100021C44, symSize: 0x18 }
  - { offsetInCU: 0x475ED, offset: 0x475ED, size: 0x8, addend: 0x0, symName: __ZNSt3__121__tree_const_iteratorINS_12__value_typeINS_12basic_stringIcNS_11char_traitsIcEENS_9allocatorIcEEEEN8nlohmann16json_abi_v3_11_310basic_jsonINS_3mapENS_6vectorES7_bxydS5_NS9_14adl_serializerENSC_IhNS5_IhEEEEvEEEEPNS_11__tree_nodeISH_PvEElEC2B8ue170006ENS_15__tree_iteratorISH_SL_lEE, symObjAddr: 0x206E4, symBinAddr: 0x100021C5C, symSize: 0x20 }
  - { offsetInCU: 0x47626, offset: 0x47626, size: 0x8, addend: 0x0, symName: __ZNSt3__117__compressed_pairImNS_19__map_value_compareINS_12basic_stringIcNS_11char_traitsIcEENS_9allocatorIcEEEENS_12__value_typeIS7_N8nlohmann16json_abi_v3_11_310basic_jsonINS_3mapENS_6vectorES7_bxydS5_NSA_14adl_serializerENSD_IhNS5_IhEEEEvEEEENS_4lessIvEELb1EEEE6secondB8ue170006Ev, symObjAddr: 0x20704, symBinAddr: 0x100021C7C, symSize: 0x24 }
  - { offsetInCU: 0x4764C, offset: 0x4764C, size: 0x8, addend: 0x0, symName: __ZNSt3__122__compressed_pair_elemINS_19__map_value_compareINS_12basic_stringIcNS_11char_traitsIcEENS_9allocatorIcEEEENS_12__value_typeIS7_N8nlohmann16json_abi_v3_11_310basic_jsonINS_3mapENS_6vectorES7_bxydS5_NSA_14adl_serializerENSD_IhNS5_IhEEEEvEEEENS_4lessIvEELb1EEELi1ELb1EE5__getB8ue170006Ev, symObjAddr: 0x20728, symBinAddr: 0x100021CA0, symSize: 0x14 }
  - { offsetInCU: 0x47678, offset: 0x47678, size: 0x8, addend: 0x0, symName: __ZNKSt3__14lessIvEclB8ue170006IRKNS_12basic_stringIcNS_11char_traitsIcEENS_9allocatorIcEEEESA_EEDTltclsr3stdE7forwardIT_Efp_Eclsr3stdE7forwardIT0_Efp0_EEOSB_OSC_, symObjAddr: 0x2073C, symBinAddr: 0x100021CB4, symSize: 0x50 }
  - { offsetInCU: 0x476CE, offset: 0x476CE, size: 0x8, addend: 0x0, symName: __ZNKSt3__112__value_typeINS_12basic_stringIcNS_11char_traitsIcEENS_9allocatorIcEEEEN8nlohmann16json_abi_v3_11_310basic_jsonINS_3mapENS_6vectorES6_bxydS4_NS8_14adl_serializerENSB_IhNS4_IhEEEEvEEE11__get_valueB8ue170006Ev, symObjAddr: 0x2078C, symBinAddr: 0x100021D04, symSize: 0x24 }
  - { offsetInCU: 0x47704, offset: 0x47704, size: 0x8, addend: 0x0, symName: __ZNSt3__120_CmpUnspecifiedParamC1B8ue170006EMS0_i, symObjAddr: 0x20830, symBinAddr: 0x100021DA8, symSize: 0x34 }
  - { offsetInCU: 0x47739, offset: 0x47739, size: 0x8, addend: 0x0, symName: __ZNKSt3__117basic_string_viewIcNS_11char_traitsIcEEE7compareES3_, symObjAddr: 0x208E0, symBinAddr: 0x100021E58, symSize: 0x13C }
  - { offsetInCU: 0x4778C, offset: 0x4778C, size: 0x8, addend: 0x0, symName: __ZNSt3__120_CmpUnspecifiedParamC2B8ue170006EMS0_i, symObjAddr: 0x20A1C, symBinAddr: 0x100021F94, symSize: 0x18 }
  - { offsetInCU: 0x477C1, offset: 0x477C1, size: 0x8, addend: 0x0, symName: __ZNKSt3__16__treeINS_12__value_typeINS_12basic_stringIcNS_11char_traitsIcEENS_9allocatorIcEEEEN8nlohmann16json_abi_v3_11_310basic_jsonINS_3mapENS_6vectorES7_bxydS5_NS9_14adl_serializerENSC_IhNS5_IhEEEEvEEEENS_19__map_value_compareIS7_SH_NS_4lessIvEELb1EEENS5_ISH_EEE10__root_ptrB8ue170006Ev, symObjAddr: 0x20B34, symBinAddr: 0x1000220AC, symSize: 0x24 }
  - { offsetInCU: 0x477E7, offset: 0x477E7, size: 0x8, addend: 0x0, symName: __ZNSt3__121__tree_const_iteratorINS_12__value_typeINS_12basic_stringIcNS_11char_traitsIcEENS_9allocatorIcEEEEN8nlohmann16json_abi_v3_11_310basic_jsonINS_3mapENS_6vectorES7_bxydS5_NS9_14adl_serializerENSC_IhNS5_IhEEEEvEEEEPNS_11__tree_nodeISH_PvEElEppB8ue170006Ev, symObjAddr: 0x20C34, symBinAddr: 0x1000221AC, symSize: 0x38 }
  - { offsetInCU: 0x4780D, offset: 0x4780D, size: 0x8, addend: 0x0, symName: __ZNSt3__116allocator_traitsINS_9allocatorINS_11__tree_nodeINS_12__value_typeINS_12basic_stringIcNS_11char_traitsIcEENS1_IcEEEEN8nlohmann16json_abi_v3_11_310basic_jsonINS_3mapENS_6vectorES8_bxydS1_NSA_14adl_serializerENSD_IhNS1_IhEEEEvEEEEPvEEEEE8allocateB8ue170006ERSL_m, symObjAddr: 0x20C6C, symBinAddr: 0x1000221E4, symSize: 0x2C }
  - { offsetInCU: 0x47840, offset: 0x47840, size: 0x8, addend: 0x0, symName: __ZNSt3__122__tree_node_destructorINS_9allocatorINS_11__tree_nodeINS_12__value_typeINS_12basic_stringIcNS_11char_traitsIcEENS1_IcEEEEN8nlohmann16json_abi_v3_11_310basic_jsonINS_3mapENS_6vectorES8_bxydS1_NSA_14adl_serializerENSD_IhNS1_IhEEEEvEEEEPvEEEEEC1B8ue170006ERSL_b, symObjAddr: 0x20C98, symBinAddr: 0x100022210, symSize: 0x48 }
  - { offsetInCU: 0x4788E, offset: 0x4788E, size: 0x8, addend: 0x0, symName: __ZNSt3__110unique_ptrINS_11__tree_nodeINS_12__value_typeINS_12basic_stringIcNS_11char_traitsIcEENS_9allocatorIcEEEEN8nlohmann16json_abi_v3_11_310basic_jsonINS_3mapENS_6vectorES8_bxydS6_NSA_14adl_serializerENSD_IhNS6_IhEEEEvEEEEPvEENS_22__tree_node_destructorINS6_ISK_EEEEEC1B8ue170006ILb1EvEEPSK_NS_16__dependent_typeINS_27__unique_ptr_deleter_sfinaeISN_EEXT_EE20__good_rval_ref_typeE, symObjAddr: 0x20CE0, symBinAddr: 0x100022258, symSize: 0x3C }
  - { offsetInCU: 0x478DF, offset: 0x478DF, size: 0x8, addend: 0x0, symName: __ZNSt3__116allocator_traitsINS_9allocatorINS_11__tree_nodeINS_12__value_typeINS_12basic_stringIcNS_11char_traitsIcEENS1_IcEEEEN8nlohmann16json_abi_v3_11_310basic_jsonINS_3mapENS_6vectorES8_bxydS1_NSA_14adl_serializerENSD_IhNS1_IhEEEEvEEEEPvEEEEE9constructB8ue170006INS_4pairIKS8_SH_EEJRKSQ_EvvEEvRSL_PT_DpOT0_, symObjAddr: 0x20D1C, symBinAddr: 0x100022294, symSize: 0x30 }
  - { offsetInCU: 0x47933, offset: 0x47933, size: 0x8, addend: 0x0, symName: __ZNKSt3__110unique_ptrINS_11__tree_nodeINS_12__value_typeINS_12basic_stringIcNS_11char_traitsIcEENS_9allocatorIcEEEEN8nlohmann16json_abi_v3_11_310basic_jsonINS_3mapENS_6vectorES8_bxydS6_NSA_14adl_serializerENSD_IhNS6_IhEEEEvEEEEPvEENS_22__tree_node_destructorINS6_ISK_EEEEEptB8ue170006Ev, symObjAddr: 0x20D4C, symBinAddr: 0x1000222C4, symSize: 0x28 }
  - { offsetInCU: 0x47959, offset: 0x47959, size: 0x8, addend: 0x0, symName: __ZNSt3__110unique_ptrINS_11__tree_nodeINS_12__value_typeINS_12basic_stringIcNS_11char_traitsIcEENS_9allocatorIcEEEEN8nlohmann16json_abi_v3_11_310basic_jsonINS_3mapENS_6vectorES8_bxydS6_NSA_14adl_serializerENSD_IhNS6_IhEEEEvEEEEPvEENS_22__tree_node_destructorINS6_ISK_EEEEE11get_deleterB8ue170006Ev, symObjAddr: 0x20D74, symBinAddr: 0x1000222EC, symSize: 0x24 }
  - { offsetInCU: 0x4797F, offset: 0x4797F, size: 0x8, addend: 0x0, symName: __ZNSt3__19allocatorINS_11__tree_nodeINS_12__value_typeINS_12basic_stringIcNS_11char_traitsIcEENS0_IcEEEEN8nlohmann16json_abi_v3_11_310basic_jsonINS_3mapENS_6vectorES7_bxydS0_NS9_14adl_serializerENSC_IhNS0_IhEEEEvEEEEPvEEE8allocateB8ue170006Em, symObjAddr: 0x20D98, symBinAddr: 0x100022310, symSize: 0x5C }
  - { offsetInCU: 0x479B3, offset: 0x479B3, size: 0x8, addend: 0x0, symName: __ZNSt3__122__tree_node_destructorINS_9allocatorINS_11__tree_nodeINS_12__value_typeINS_12basic_stringIcNS_11char_traitsIcEENS1_IcEEEEN8nlohmann16json_abi_v3_11_310basic_jsonINS_3mapENS_6vectorES8_bxydS1_NSA_14adl_serializerENSD_IhNS1_IhEEEEvEEEEPvEEEEEC2B8ue170006ERSL_b, symObjAddr: 0x20DF4, symBinAddr: 0x10002236C, symSize: 0x38 }
  - { offsetInCU: 0x479FB, offset: 0x479FB, size: 0x8, addend: 0x0, symName: __ZNSt3__110unique_ptrINS_11__tree_nodeINS_12__value_typeINS_12basic_stringIcNS_11char_traitsIcEENS_9allocatorIcEEEEN8nlohmann16json_abi_v3_11_310basic_jsonINS_3mapENS_6vectorES8_bxydS6_NSA_14adl_serializerENSD_IhNS6_IhEEEEvEEEEPvEENS_22__tree_node_destructorINS6_ISK_EEEEEC2B8ue170006ILb1EvEEPSK_NS_16__dependent_typeINS_27__unique_ptr_deleter_sfinaeISN_EEXT_EE20__good_rval_ref_typeE, symObjAddr: 0x20E2C, symBinAddr: 0x1000223A4, symSize: 0x48 }
  - { offsetInCU: 0x47A4C, offset: 0x47A4C, size: 0x8, addend: 0x0, symName: __ZNSt3__117__compressed_pairIPNS_11__tree_nodeINS_12__value_typeINS_12basic_stringIcNS_11char_traitsIcEENS_9allocatorIcEEEEN8nlohmann16json_abi_v3_11_310basic_jsonINS_3mapENS_6vectorES8_bxydS6_NSA_14adl_serializerENSD_IhNS6_IhEEEEvEEEEPvEENS_22__tree_node_destructorINS6_ISK_EEEEEC1B8ue170006IRSL_SO_EEOT_OT0_, symObjAddr: 0x20E74, symBinAddr: 0x1000223EC, symSize: 0x3C }
  - { offsetInCU: 0x47AA4, offset: 0x47AA4, size: 0x8, addend: 0x0, symName: __ZNSt3__117__compressed_pairIPNS_11__tree_nodeINS_12__value_typeINS_12basic_stringIcNS_11char_traitsIcEENS_9allocatorIcEEEEN8nlohmann16json_abi_v3_11_310basic_jsonINS_3mapENS_6vectorES8_bxydS6_NSA_14adl_serializerENSD_IhNS6_IhEEEEvEEEEPvEENS_22__tree_node_destructorINS6_ISK_EEEEEC2B8ue170006IRSL_SO_EEOT_OT0_, symObjAddr: 0x20EB0, symBinAddr: 0x100022428, symSize: 0x48 }
  - { offsetInCU: 0x47AFC, offset: 0x47AFC, size: 0x8, addend: 0x0, symName: __ZNSt3__122__compressed_pair_elemIPNS_11__tree_nodeINS_12__value_typeINS_12basic_stringIcNS_11char_traitsIcEENS_9allocatorIcEEEEN8nlohmann16json_abi_v3_11_310basic_jsonINS_3mapENS_6vectorES8_bxydS6_NSA_14adl_serializerENSD_IhNS6_IhEEEEvEEEEPvEELi0ELb0EEC2B8ue170006IRSL_vEEOT_, symObjAddr: 0x20EF8, symBinAddr: 0x100022470, symSize: 0x24 }
  - { offsetInCU: 0x47B3E, offset: 0x47B3E, size: 0x8, addend: 0x0, symName: __ZNSt3__122__compressed_pair_elemINS_22__tree_node_destructorINS_9allocatorINS_11__tree_nodeINS_12__value_typeINS_12basic_stringIcNS_11char_traitsIcEENS2_IcEEEEN8nlohmann16json_abi_v3_11_310basic_jsonINS_3mapENS_6vectorES9_bxydS2_NSB_14adl_serializerENSE_IhNS2_IhEEEEvEEEEPvEEEEEELi1ELb0EEC2B8ue170006ISN_vEEOT_, symObjAddr: 0x20F1C, symBinAddr: 0x100022494, symSize: 0x24 }
  - { offsetInCU: 0x47B80, offset: 0x47B80, size: 0x8, addend: 0x0, symName: __ZNSt3__14pairIKNS_12basic_stringIcNS_11char_traitsIcEENS_9allocatorIcEEEEN8nlohmann16json_abi_v3_11_310basic_jsonINS_3mapENS_6vectorES6_bxydS4_NS9_14adl_serializerENSC_IhNS4_IhEEEEvEEEC1B8ue170006ERKSH_, symObjAddr: 0x20F7C, symBinAddr: 0x1000224F4, symSize: 0x34 }
  - { offsetInCU: 0x47BB5, offset: 0x47BB5, size: 0x8, addend: 0x0, symName: __ZNSt3__14pairIKNS_12basic_stringIcNS_11char_traitsIcEENS_9allocatorIcEEEEN8nlohmann16json_abi_v3_11_310basic_jsonINS_3mapENS_6vectorES6_bxydS4_NS9_14adl_serializerENSC_IhNS4_IhEEEEvEEEC2B8ue170006ERKSH_, symObjAddr: 0x20FB0, symBinAddr: 0x100022528, symSize: 0x70 }
  - { offsetInCU: 0x47BEA, offset: 0x47BEA, size: 0x8, addend: 0x0, symName: __ZNKSt3__117__compressed_pairIPNS_11__tree_nodeINS_12__value_typeINS_12basic_stringIcNS_11char_traitsIcEENS_9allocatorIcEEEEN8nlohmann16json_abi_v3_11_310basic_jsonINS_3mapENS_6vectorES8_bxydS6_NSA_14adl_serializerENSD_IhNS6_IhEEEEvEEEEPvEENS_22__tree_node_destructorINS6_ISK_EEEEE5firstB8ue170006Ev, symObjAddr: 0x21020, symBinAddr: 0x100022598, symSize: 0x24 }
  - { offsetInCU: 0x47C10, offset: 0x47C10, size: 0x8, addend: 0x0, symName: __ZNKSt3__122__compressed_pair_elemIPNS_11__tree_nodeINS_12__value_typeINS_12basic_stringIcNS_11char_traitsIcEENS_9allocatorIcEEEEN8nlohmann16json_abi_v3_11_310basic_jsonINS_3mapENS_6vectorES8_bxydS6_NSA_14adl_serializerENSD_IhNS6_IhEEEEvEEEEPvEELi0ELb0EE5__getB8ue170006Ev, symObjAddr: 0x21044, symBinAddr: 0x1000225BC, symSize: 0x14 }
  - { offsetInCU: 0x47C36, offset: 0x47C36, size: 0x8, addend: 0x0, symName: __ZNSt3__117__compressed_pairIPNS_11__tree_nodeINS_12__value_typeINS_12basic_stringIcNS_11char_traitsIcEENS_9allocatorIcEEEEN8nlohmann16json_abi_v3_11_310basic_jsonINS_3mapENS_6vectorES8_bxydS6_NSA_14adl_serializerENSD_IhNS6_IhEEEEvEEEEPvEENS_22__tree_node_destructorINS6_ISK_EEEEE6secondB8ue170006Ev, symObjAddr: 0x21058, symBinAddr: 0x1000225D0, symSize: 0x28 }
  - { offsetInCU: 0x47C5C, offset: 0x47C5C, size: 0x8, addend: 0x0, symName: __ZNSt3__122__compressed_pair_elemINS_22__tree_node_destructorINS_9allocatorINS_11__tree_nodeINS_12__value_typeINS_12basic_stringIcNS_11char_traitsIcEENS2_IcEEEEN8nlohmann16json_abi_v3_11_310basic_jsonINS_3mapENS_6vectorES9_bxydS2_NSB_14adl_serializerENSE_IhNS2_IhEEEEvEEEEPvEEEEEELi1ELb0EE5__getB8ue170006Ev, symObjAddr: 0x21080, symBinAddr: 0x1000225F8, symSize: 0x14 }
  - { offsetInCU: 0x47C82, offset: 0x47C82, size: 0x8, addend: 0x0, symName: __ZNSt3__116__tree_node_baseIPvE12__set_parentB8ue170006EPS2_, symObjAddr: 0x214B4, symBinAddr: 0x100022A2C, symSize: 0x20 }
  - { offsetInCU: 0x47CB7, offset: 0x47CB7, size: 0x8, addend: 0x0, symName: __ZNSt3__117__compressed_pairIPNS_11__tree_nodeINS_12__value_typeINS_12basic_stringIcNS_11char_traitsIcEENS_9allocatorIcEEEEN8nlohmann16json_abi_v3_11_310basic_jsonINS_3mapENS_6vectorES8_bxydS6_NSA_14adl_serializerENSD_IhNS6_IhEEEEvEEEEPvEENS_22__tree_node_destructorINS6_ISK_EEEEE5firstB8ue170006Ev, symObjAddr: 0x214D4, symBinAddr: 0x100022A4C, symSize: 0x24 }
  - { offsetInCU: 0x47CDD, offset: 0x47CDD, size: 0x8, addend: 0x0, symName: __ZNSt3__122__compressed_pair_elemIPNS_11__tree_nodeINS_12__value_typeINS_12basic_stringIcNS_11char_traitsIcEENS_9allocatorIcEEEEN8nlohmann16json_abi_v3_11_310basic_jsonINS_3mapENS_6vectorES8_bxydS6_NSA_14adl_serializerENSD_IhNS6_IhEEEEvEEEEPvEELi0ELb0EE5__getB8ue170006Ev, symObjAddr: 0x214F8, symBinAddr: 0x100022A70, symSize: 0x14 }
  - { offsetInCU: 0x47D03, offset: 0x47D03, size: 0x8, addend: 0x0, symName: __ZNSt3__110unique_ptrINS_11__tree_nodeINS_12__value_typeINS_12basic_stringIcNS_11char_traitsIcEENS_9allocatorIcEEEEN8nlohmann16json_abi_v3_11_310basic_jsonINS_3mapENS_6vectorES8_bxydS6_NSA_14adl_serializerENSD_IhNS6_IhEEEEvEEEEPvEENS_22__tree_node_destructorINS6_ISK_EEEEED2B8ue170006Ev, symObjAddr: 0x2150C, symBinAddr: 0x100022A84, symSize: 0x30 }
  - { offsetInCU: 0x47D2D, offset: 0x47D2D, size: 0x8, addend: 0x0, symName: __ZNSt3__110unique_ptrINS_11__tree_nodeINS_12__value_typeINS_12basic_stringIcNS_11char_traitsIcEENS_9allocatorIcEEEEN8nlohmann16json_abi_v3_11_310basic_jsonINS_3mapENS_6vectorES8_bxydS6_NSA_14adl_serializerENSD_IhNS6_IhEEEEvEEEEPvEENS_22__tree_node_destructorINS6_ISK_EEEEE5resetB8ue170006EPSK_, symObjAddr: 0x2153C, symBinAddr: 0x100022AB4, symSize: 0x78 }
  - { offsetInCU: 0x47D71, offset: 0x47D71, size: 0x8, addend: 0x0, symName: __ZNSt3__122__tree_node_destructorINS_9allocatorINS_11__tree_nodeINS_12__value_typeINS_12basic_stringIcNS_11char_traitsIcEENS1_IcEEEEN8nlohmann16json_abi_v3_11_310basic_jsonINS_3mapENS_6vectorES8_bxydS1_NSA_14adl_serializerENSD_IhNS1_IhEEEEvEEEEPvEEEEEclB8ue170006EPSK_, symObjAddr: 0x215B4, symBinAddr: 0x100022B2C, symSize: 0x90 }
  - { offsetInCU: 0x47DA6, offset: 0x47DA6, size: 0x8, addend: 0x0, symName: __ZNSt3__115__tree_iteratorINS_12__value_typeINS_12basic_stringIcNS_11char_traitsIcEENS_9allocatorIcEEEEN8nlohmann16json_abi_v3_11_310basic_jsonINS_3mapENS_6vectorES7_bxydS5_NS9_14adl_serializerENSC_IhNS5_IhEEEEvEEEEPNS_11__tree_nodeISH_PvEElEC2B8ue170006ESL_, symObjAddr: 0x21644, symBinAddr: 0x100022BBC, symSize: 0x20 }
  - { offsetInCU: 0x47DDF, offset: 0x47DDF, size: 0x8, addend: 0x0, symName: __ZNSt3__14pairINS_15__tree_iteratorINS_12__value_typeINS_12basic_stringIcNS_11char_traitsIcEENS_9allocatorIcEEEEN8nlohmann16json_abi_v3_11_310basic_jsonINS_3mapENS_6vectorES8_bxydS6_NSA_14adl_serializerENSD_IhNS6_IhEEEEvEEEEPNS_11__tree_nodeISI_PvEElEEbEC2B8ue170006ISN_RbLSK_0EEEOT_OT0_, symObjAddr: 0x21664, symBinAddr: 0x100022BDC, symSize: 0x38 }
  - { offsetInCU: 0x47E3D, offset: 0x47E3D, size: 0x8, addend: 0x0, symName: __ZNSt3__120__map_const_iteratorINS_21__tree_const_iteratorINS_12__value_typeINS_12basic_stringIcNS_11char_traitsIcEENS_9allocatorIcEEEEN8nlohmann16json_abi_v3_11_310basic_jsonINS_3mapENS_6vectorES8_bxydS6_NSA_14adl_serializerENSD_IhNS6_IhEEEEvEEEEPNS_11__tree_nodeISI_PvEElEEEC2B8ue170006ESN_, symObjAddr: 0x2169C, symBinAddr: 0x100022C14, symSize: 0x20 }
  - { offsetInCU: 0x47E76, offset: 0x47E76, size: 0x8, addend: 0x0, symName: __ZNKSt3__121__tree_const_iteratorINS_12__value_typeINS_12basic_stringIcNS_11char_traitsIcEENS_9allocatorIcEEEEN8nlohmann16json_abi_v3_11_310basic_jsonINS_3mapENS_6vectorES7_bxydS5_NS9_14adl_serializerENSC_IhNS5_IhEEEEvEEEEPNS_11__tree_nodeISH_PvEElEptB8ue170006Ev, symObjAddr: 0x216BC, symBinAddr: 0x100022C34, symSize: 0x2C }
  - { offsetInCU: 0x47E9C, offset: 0x47E9C, size: 0x8, addend: 0x0, symName: __ZNSt3__114pointer_traitsIPKNS_12__value_typeINS_12basic_stringIcNS_11char_traitsIcEENS_9allocatorIcEEEEN8nlohmann16json_abi_v3_11_310basic_jsonINS_3mapENS_6vectorES7_bxydS5_NS9_14adl_serializerENSC_IhNS5_IhEEEEvEEEEE10pointer_toB8ue170006ERSI_, symObjAddr: 0x216E8, symBinAddr: 0x100022C60, symSize: 0x14 }
  - { offsetInCU: 0x47EBF, offset: 0x47EBF, size: 0x8, addend: 0x0, symName: __ZNKSt3__16__treeINS_12__value_typeINS_12basic_stringIcNS_11char_traitsIcEENS_9allocatorIcEEEEN8nlohmann16json_abi_v3_11_310basic_jsonINS_3mapENS_6vectorES7_bxydS5_NS9_14adl_serializerENSC_IhNS5_IhEEEEvEEEENS_19__map_value_compareIS7_SH_NS_4lessIvEELb1EEENS5_ISH_EEE5beginB8ue170006Ev, symObjAddr: 0x216FC, symBinAddr: 0x100022C74, symSize: 0x34 }
  - { offsetInCU: 0x47EE5, offset: 0x47EE5, size: 0x8, addend: 0x0, symName: __ZNKSt3__16__treeINS_12__value_typeINS_12basic_stringIcNS_11char_traitsIcEENS_9allocatorIcEEEEN8nlohmann16json_abi_v3_11_310basic_jsonINS_3mapENS_6vectorES7_bxydS5_NS9_14adl_serializerENSC_IhNS5_IhEEEEvEEEENS_19__map_value_compareIS7_SH_NS_4lessIvEELb1EEENS5_ISH_EEE12__begin_nodeB8ue170006Ev, symObjAddr: 0x21730, symBinAddr: 0x100022CA8, symSize: 0x14 }
  - { offsetInCU: 0x47F0B, offset: 0x47F0B, size: 0x8, addend: 0x0, symName: __ZNSt3__121__tree_const_iteratorINS_12__value_typeINS_12basic_stringIcNS_11char_traitsIcEENS_9allocatorIcEEEEN8nlohmann16json_abi_v3_11_310basic_jsonINS_3mapENS_6vectorES7_bxydS5_NS9_14adl_serializerENSC_IhNS5_IhEEEEvEEEEPNS_11__tree_nodeISH_PvEElEC1B8ue170006EPNS_15__tree_end_nodeIPNS_16__tree_node_baseISJ_EEEE, symObjAddr: 0x21744, symBinAddr: 0x100022CBC, symSize: 0x34 }
  - { offsetInCU: 0x47F44, offset: 0x47F44, size: 0x8, addend: 0x0, symName: __ZNSt3__121__tree_const_iteratorINS_12__value_typeINS_12basic_stringIcNS_11char_traitsIcEENS_9allocatorIcEEEEN8nlohmann16json_abi_v3_11_310basic_jsonINS_3mapENS_6vectorES7_bxydS5_NS9_14adl_serializerENSC_IhNS5_IhEEEEvEEEEPNS_11__tree_nodeISH_PvEElEC2B8ue170006EPNS_15__tree_end_nodeIPNS_16__tree_node_baseISJ_EEEE, symObjAddr: 0x21778, symBinAddr: 0x100022CF0, symSize: 0x20 }
  - { offsetInCU: 0x47F7D, offset: 0x47F7D, size: 0x8, addend: 0x0, symName: __ZNKSt3__16__treeINS_12__value_typeINS_12basic_stringIcNS_11char_traitsIcEENS_9allocatorIcEEEEN8nlohmann16json_abi_v3_11_310basic_jsonINS_3mapENS_6vectorES7_bxydS5_NS9_14adl_serializerENSC_IhNS5_IhEEEEvEEEENS_19__map_value_compareIS7_SH_NS_4lessIvEELb1EEENS5_ISH_EEE3endB8ue170006Ev, symObjAddr: 0x21798, symBinAddr: 0x100022D10, symSize: 0x34 }
  - { offsetInCU: 0x47FA3, offset: 0x47FA3, size: 0x8, addend: 0x0, symName: __ZNKSt3__117__compressed_pairIPNS_3mapINS_12basic_stringIcNS_11char_traitsIcEENS_9allocatorIcEEEEN8nlohmann16json_abi_v3_11_310basic_jsonIS1_NS_6vectorES7_bxydS5_NS9_14adl_serializerENSB_IhNS5_IhEEEEvEENS_4lessIvEENS5_INS_4pairIKS7_SF_EEEEEEZNSF_6createISM_JRKSM_EEEPT_DpOT0_EUlSN_E_E5firstB8ue170006Ev, symObjAddr: 0x217CC, symBinAddr: 0x100022D44, symSize: 0x24 }
  - { offsetInCU: 0x47FC9, offset: 0x47FC9, size: 0x8, addend: 0x0, symName: __ZNKSt3__110unique_ptrINS_3mapINS_12basic_stringIcNS_11char_traitsIcEENS_9allocatorIcEEEEN8nlohmann16json_abi_v3_11_310basic_jsonIS1_NS_6vectorES7_bxydS5_NS9_14adl_serializerENSB_IhNS5_IhEEEEvEENS_4lessIvEENS5_INS_4pairIKS7_SF_EEEEEEZNSF_6createISM_JRKSM_EEEPT_DpOT0_EUlPSM_E_EcvbB8ue170006Ev, symObjAddr: 0x217F0, symBinAddr: 0x100022D68, symSize: 0x34 }
  - { offsetInCU: 0x47FEF, offset: 0x47FEF, size: 0x8, addend: 0x0, symName: __ZNSt3__117__compressed_pairIPNS_3mapINS_12basic_stringIcNS_11char_traitsIcEENS_9allocatorIcEEEEN8nlohmann16json_abi_v3_11_310basic_jsonIS1_NS_6vectorES7_bxydS5_NS9_14adl_serializerENSB_IhNS5_IhEEEEvEENS_4lessIvEENS5_INS_4pairIKS7_SF_EEEEEEZNSF_6createISM_JRKSM_EEEPT_DpOT0_EUlSN_E_E5firstB8ue170006Ev, symObjAddr: 0x21824, symBinAddr: 0x100022D9C, symSize: 0x24 }
  - { offsetInCU: 0x48015, offset: 0x48015, size: 0x8, addend: 0x0, symName: __ZNSt3__110unique_ptrINS_3mapINS_12basic_stringIcNS_11char_traitsIcEENS_9allocatorIcEEEEN8nlohmann16json_abi_v3_11_310basic_jsonIS1_NS_6vectorES7_bxydS5_NS9_14adl_serializerENSB_IhNS5_IhEEEEvEENS_4lessIvEENS5_INS_4pairIKS7_SF_EEEEEEZNSF_6createISM_JRKSM_EEEPT_DpOT0_EUlPSM_E_ED2B8ue170006Ev, symObjAddr: 0x21848, symBinAddr: 0x100022DC0, symSize: 0x30 }
  - { offsetInCU: 0x4803F, offset: 0x4803F, size: 0x8, addend: 0x0, symName: __ZNSt3__110unique_ptrINS_3mapINS_12basic_stringIcNS_11char_traitsIcEENS_9allocatorIcEEEEN8nlohmann16json_abi_v3_11_310basic_jsonIS1_NS_6vectorES7_bxydS5_NS9_14adl_serializerENSB_IhNS5_IhEEEEvEENS_4lessIvEENS5_INS_4pairIKS7_SF_EEEEEEZNSF_6createISM_JRKSM_EEEPT_DpOT0_EUlPSM_E_E5resetB8ue170006ESV_, symObjAddr: 0x21878, symBinAddr: 0x100022DF0, symSize: 0x80 }
  - { offsetInCU: 0x48083, offset: 0x48083, size: 0x8, addend: 0x0, symName: __ZNSt3__117__compressed_pairIPNS_3mapINS_12basic_stringIcNS_11char_traitsIcEENS_9allocatorIcEEEEN8nlohmann16json_abi_v3_11_310basic_jsonIS1_NS_6vectorES7_bxydS5_NS9_14adl_serializerENSB_IhNS5_IhEEEEvEENS_4lessIvEENS5_INS_4pairIKS7_SF_EEEEEEZNSF_6createISM_JRKSM_EEEPT_DpOT0_EUlSN_E_E6secondB8ue170006Ev, symObjAddr: 0x218F8, symBinAddr: 0x100022E70, symSize: 0x28 }
  - { offsetInCU: 0x480AF, offset: 0x480AF, size: 0x8, addend: 0x0, symName: __ZZN8nlohmann16json_abi_v3_11_310basic_jsonINSt3__13mapENS2_6vectorENS2_12basic_stringIcNS2_11char_traitsIcEENS2_9allocatorIcEEEEbxydS8_NS0_14adl_serializerENS4_IhNS8_IhEEEEvE6createINS3_ISA_SE_NS2_4lessIvEENS8_INS2_4pairIKSA_SE_EEEEEEJRKSM_EEEPT_DpOT0_ENKUlPSM_E_clESU_, symObjAddr: 0x21920, symBinAddr: 0x100022E98, symSize: 0x34 }
  - { offsetInCU: 0x480E8, offset: 0x480E8, size: 0x8, addend: 0x0, symName: __ZNSt3__122__compressed_pair_elemIZN8nlohmann16json_abi_v3_11_310basic_jsonINS_3mapENS_6vectorENS_12basic_stringIcNS_11char_traitsIcEENS_9allocatorIcEEEEbxydS9_NS2_14adl_serializerENS5_IhNS9_IhEEEEvE6createINS4_ISB_SF_NS_4lessIvEENS9_INS_4pairIKSB_SF_EEEEEEJRKSN_EEEPT_DpOT0_EUlPSN_E_Li1ELb0EE5__getB8ue170006Ev, symObjAddr: 0x21954, symBinAddr: 0x100022ECC, symSize: 0x14 }
  - { offsetInCU: 0x4810E, offset: 0x4810E, size: 0x8, addend: 0x0, symName: __ZN8nlohmann16json_abi_v3_11_310basic_jsonINSt3__13mapENS2_6vectorENS2_12basic_stringIcNS2_11char_traitsIcEENS2_9allocatorIcEEEEbxydS8_NS0_14adl_serializerENS4_IhNS8_IhEEEEvE10json_valueC2ERKNS4_ISE_NS8_ISE_EEEE, symObjAddr: 0x21968, symBinAddr: 0x100022EE0, symSize: 0x3C }
  - { offsetInCU: 0x48147, offset: 0x48147, size: 0x8, addend: 0x0, symName: __ZN8nlohmann16json_abi_v3_11_310basic_jsonINSt3__13mapENS2_6vectorENS2_12basic_stringIcNS2_11char_traitsIcEENS2_9allocatorIcEEEEbxydS8_NS0_14adl_serializerENS4_IhNS8_IhEEEEvE6createINS4_ISE_NS8_ISE_EEEEJRKSH_EEEPT_DpOT0_, symObjAddr: 0x219A4, symBinAddr: 0x100022F1C, symSize: 0xF4 }
  - { offsetInCU: 0x48248, offset: 0x48248, size: 0x8, addend: 0x0, symName: __ZNSt3__110unique_ptrINS_6vectorIN8nlohmann16json_abi_v3_11_310basic_jsonINS_3mapES1_NS_12basic_stringIcNS_11char_traitsIcEENS_9allocatorIcEEEEbxydS9_NS3_14adl_serializerENS1_IhNS9_IhEEEEvEENS9_ISF_EEEEZNSF_6createISH_JRKSH_EEEPT_DpOT0_EUlPSH_E_EC1B8ue170006ILb1EvEESQ_NS_16__dependent_typeINS_27__unique_ptr_deleter_sfinaeISR_EEXT_EE15__lval_ref_typeE, symObjAddr: 0x21A98, symBinAddr: 0x100023010, symSize: 0x3C }
  - { offsetInCU: 0x48299, offset: 0x48299, size: 0x8, addend: 0x0, symName: __ZNSt3__116allocator_traitsINS_9allocatorINS_6vectorIN8nlohmann16json_abi_v3_11_310basic_jsonINS_3mapES2_NS_12basic_stringIcNS_11char_traitsIcEENS1_IcEEEEbxydS1_NS4_14adl_serializerENS2_IhNS1_IhEEEEvEENS1_ISF_EEEEEEE9constructB8ue170006ISH_JRKSH_EvvEEvRSI_PT_DpOT0_, symObjAddr: 0x21AD4, symBinAddr: 0x10002304C, symSize: 0x30 }
  - { offsetInCU: 0x482ED, offset: 0x482ED, size: 0x8, addend: 0x0, symName: __ZNKSt3__110unique_ptrINS_6vectorIN8nlohmann16json_abi_v3_11_310basic_jsonINS_3mapES1_NS_12basic_stringIcNS_11char_traitsIcEENS_9allocatorIcEEEEbxydS9_NS3_14adl_serializerENS1_IhNS9_IhEEEEvEENS9_ISF_EEEEZNSF_6createISH_JRKSH_EEEPT_DpOT0_EUlPSH_E_E3getB8ue170006Ev, symObjAddr: 0x21B04, symBinAddr: 0x10002307C, symSize: 0x28 }
  - { offsetInCU: 0x48313, offset: 0x48313, size: 0x8, addend: 0x0, symName: __ZNSt3__110unique_ptrINS_6vectorIN8nlohmann16json_abi_v3_11_310basic_jsonINS_3mapES1_NS_12basic_stringIcNS_11char_traitsIcEENS_9allocatorIcEEEEbxydS9_NS3_14adl_serializerENS1_IhNS9_IhEEEEvEENS9_ISF_EEEEZNSF_6createISH_JRKSH_EEEPT_DpOT0_EUlPSH_E_E7releaseB8ue170006Ev, symObjAddr: 0x21B5C, symBinAddr: 0x1000230D4, symSize: 0x44 }
  - { offsetInCU: 0x48348, offset: 0x48348, size: 0x8, addend: 0x0, symName: __ZNSt3__110unique_ptrINS_6vectorIN8nlohmann16json_abi_v3_11_310basic_jsonINS_3mapES1_NS_12basic_stringIcNS_11char_traitsIcEENS_9allocatorIcEEEEbxydS9_NS3_14adl_serializerENS1_IhNS9_IhEEEEvEENS9_ISF_EEEEZNSF_6createISH_JRKSH_EEEPT_DpOT0_EUlPSH_E_ED1B8ue170006Ev, symObjAddr: 0x21BA0, symBinAddr: 0x100023118, symSize: 0x2C }
  - { offsetInCU: 0x48372, offset: 0x48372, size: 0x8, addend: 0x0, symName: __ZNSt3__110unique_ptrINS_6vectorIN8nlohmann16json_abi_v3_11_310basic_jsonINS_3mapES1_NS_12basic_stringIcNS_11char_traitsIcEENS_9allocatorIcEEEEbxydS9_NS3_14adl_serializerENS1_IhNS9_IhEEEEvEENS9_ISF_EEEEZNSF_6createISH_JRKSH_EEEPT_DpOT0_EUlPSH_E_EC2B8ue170006ILb1EvEESQ_NS_16__dependent_typeINS_27__unique_ptr_deleter_sfinaeISR_EEXT_EE15__lval_ref_typeE, symObjAddr: 0x21BCC, symBinAddr: 0x100023144, symSize: 0x48 }
  - { offsetInCU: 0x483C3, offset: 0x483C3, size: 0x8, addend: 0x0, symName: __ZNSt3__117__compressed_pairIPNS_6vectorIN8nlohmann16json_abi_v3_11_310basic_jsonINS_3mapES1_NS_12basic_stringIcNS_11char_traitsIcEENS_9allocatorIcEEEEbxydS9_NS3_14adl_serializerENS1_IhNS9_IhEEEEvEENS9_ISF_EEEEZNSF_6createISH_JRKSH_EEEPT_DpOT0_EUlSI_E_EC1B8ue170006IRSI_RKSR_EEOSM_OT0_, symObjAddr: 0x21C14, symBinAddr: 0x10002318C, symSize: 0x3C }
  - { offsetInCU: 0x4841B, offset: 0x4841B, size: 0x8, addend: 0x0, symName: __ZNSt3__117__compressed_pairIPNS_6vectorIN8nlohmann16json_abi_v3_11_310basic_jsonINS_3mapES1_NS_12basic_stringIcNS_11char_traitsIcEENS_9allocatorIcEEEEbxydS9_NS3_14adl_serializerENS1_IhNS9_IhEEEEvEENS9_ISF_EEEEZNSF_6createISH_JRKSH_EEEPT_DpOT0_EUlSI_E_EC2B8ue170006IRSI_RKSR_EEOSM_OT0_, symObjAddr: 0x21C50, symBinAddr: 0x1000231C8, symSize: 0x48 }
  - { offsetInCU: 0x48473, offset: 0x48473, size: 0x8, addend: 0x0, symName: __ZNSt3__122__compressed_pair_elemIZN8nlohmann16json_abi_v3_11_310basic_jsonINS_3mapENS_6vectorENS_12basic_stringIcNS_11char_traitsIcEENS_9allocatorIcEEEEbxydS9_NS2_14adl_serializerENS5_IhNS9_IhEEEEvE6createINS5_ISF_NS9_ISF_EEEEJRKSI_EEEPT_DpOT0_EUlPSI_E_Li1ELb0EEC2B8ue170006IRKSR_vEEOSL_, symObjAddr: 0x21C98, symBinAddr: 0x100023210, symSize: 0x24 }
  - { offsetInCU: 0x484B5, offset: 0x484B5, size: 0x8, addend: 0x0, symName: __ZNSt3__16vectorIN8nlohmann16json_abi_v3_11_310basic_jsonINS_3mapES0_NS_12basic_stringIcNS_11char_traitsIcEENS_9allocatorIcEEEEbxydS8_NS2_14adl_serializerENS0_IhNS8_IhEEEEvEENS8_ISE_EEEC1ERKSG_, symObjAddr: 0x21CF8, symBinAddr: 0x100023270, symSize: 0x34 }
  - { offsetInCU: 0x484F0, offset: 0x484F0, size: 0x8, addend: 0x0, symName: __ZNSt3__16vectorIN8nlohmann16json_abi_v3_11_310basic_jsonINS_3mapES0_NS_12basic_stringIcNS_11char_traitsIcEENS_9allocatorIcEEEEbxydS8_NS2_14adl_serializerENS0_IhNS8_IhEEEEvEENS8_ISE_EEEC2ERKSG_, symObjAddr: 0x21D2C, symBinAddr: 0x1000232A4, symSize: 0x94 }
  - { offsetInCU: 0x4852B, offset: 0x4852B, size: 0x8, addend: 0x0, symName: __ZNSt3__116allocator_traitsINS_9allocatorIN8nlohmann16json_abi_v3_11_310basic_jsonINS_3mapENS_6vectorENS_12basic_stringIcNS_11char_traitsIcEENS1_IcEEEEbxydS1_NS3_14adl_serializerENS6_IhNS1_IhEEEEvEEEEE37select_on_container_copy_constructionB8ue170006ISG_vvEESG_RKSG_, symObjAddr: 0x21DC0, symBinAddr: 0x100023338, symSize: 0x10 }
  - { offsetInCU: 0x48560, offset: 0x48560, size: 0x8, addend: 0x0, symName: __ZNSt3__117__compressed_pairIPN8nlohmann16json_abi_v3_11_310basic_jsonINS_3mapENS_6vectorENS_12basic_stringIcNS_11char_traitsIcEENS_9allocatorIcEEEEbxydS9_NS2_14adl_serializerENS5_IhNS9_IhEEEEvEENS9_ISF_EEEC1B8ue170006IDnSH_EEOT_OT0_, symObjAddr: 0x21DD0, symBinAddr: 0x100023348, symSize: 0x3C }
  - { offsetInCU: 0x485B8, offset: 0x485B8, size: 0x8, addend: 0x0, symName: __ZNSt3__16vectorIN8nlohmann16json_abi_v3_11_310basic_jsonINS_3mapES0_NS_12basic_stringIcNS_11char_traitsIcEENS_9allocatorIcEEEEbxydS8_NS2_14adl_serializerENS0_IhNS8_IhEEEEvEENS8_ISE_EEE16__init_with_sizeB8ue170006IPSE_SI_EEvT_T0_m, symObjAddr: 0x21E0C, symBinAddr: 0x100023384, symSize: 0xB8 }
  - { offsetInCU: 0x4862C, offset: 0x4862C, size: 0x8, addend: 0x0, symName: __ZNSt3__117__compressed_pairIPN8nlohmann16json_abi_v3_11_310basic_jsonINS_3mapENS_6vectorENS_12basic_stringIcNS_11char_traitsIcEENS_9allocatorIcEEEEbxydS9_NS2_14adl_serializerENS5_IhNS9_IhEEEEvEENS9_ISF_EEEC2B8ue170006IDnSH_EEOT_OT0_, symObjAddr: 0x21EC4, symBinAddr: 0x10002343C, symSize: 0x44 }
  - { offsetInCU: 0x48684, offset: 0x48684, size: 0x8, addend: 0x0, symName: __ZNSt3__122__compressed_pair_elemINS_9allocatorIN8nlohmann16json_abi_v3_11_310basic_jsonINS_3mapENS_6vectorENS_12basic_stringIcNS_11char_traitsIcEENS1_IcEEEEbxydS1_NS3_14adl_serializerENS6_IhNS1_IhEEEEvEEEELi1ELb1EEC2B8ue170006ISG_vEEOT_, symObjAddr: 0x21F08, symBinAddr: 0x100023480, symSize: 0x18 }
  - { offsetInCU: 0x486C6, offset: 0x486C6, size: 0x8, addend: 0x0, symName: __ZNSt3__16vectorIN8nlohmann16json_abi_v3_11_310basic_jsonINS_3mapES0_NS_12basic_stringIcNS_11char_traitsIcEENS_9allocatorIcEEEEbxydS8_NS2_14adl_serializerENS0_IhNS8_IhEEEEvEENS8_ISE_EEE11__vallocateB8ue170006Em, symObjAddr: 0x21F60, symBinAddr: 0x1000234D8, symSize: 0xAC }
  - { offsetInCU: 0x4870A, offset: 0x4870A, size: 0x8, addend: 0x0, symName: __ZNSt3__16vectorIN8nlohmann16json_abi_v3_11_310basic_jsonINS_3mapES0_NS_12basic_stringIcNS_11char_traitsIcEENS_9allocatorIcEEEEbxydS8_NS2_14adl_serializerENS0_IhNS8_IhEEEEvEENS8_ISE_EEE18__construct_at_endIPSE_SI_EEvT_T0_m, symObjAddr: 0x2200C, symBinAddr: 0x100023584, symSize: 0x8C }
  - { offsetInCU: 0x48780, offset: 0x48780, size: 0x8, addend: 0x0, symName: __ZNSt3__128__exception_guard_exceptionsINS_6vectorIN8nlohmann16json_abi_v3_11_310basic_jsonINS_3mapES1_NS_12basic_stringIcNS_11char_traitsIcEENS_9allocatorIcEEEEbxydS9_NS3_14adl_serializerENS1_IhNS9_IhEEEEvEENS9_ISF_EEE16__destroy_vectorEE10__completeB8ue170006Ev, symObjAddr: 0x22098, symBinAddr: 0x100023610, symSize: 0x1C }
  - { offsetInCU: 0x487A6, offset: 0x487A6, size: 0x8, addend: 0x0, symName: __ZNSt3__128__exception_guard_exceptionsINS_6vectorIN8nlohmann16json_abi_v3_11_310basic_jsonINS_3mapES1_NS_12basic_stringIcNS_11char_traitsIcEENS_9allocatorIcEEEEbxydS9_NS3_14adl_serializerENS1_IhNS9_IhEEEEvEENS9_ISF_EEE16__destroy_vectorEED1B8ue170006Ev, symObjAddr: 0x220B4, symBinAddr: 0x10002362C, symSize: 0x2C }
  - { offsetInCU: 0x487D0, offset: 0x487D0, size: 0x8, addend: 0x0, symName: __ZNSt3__128__exception_guard_exceptionsINS_6vectorIN8nlohmann16json_abi_v3_11_310basic_jsonINS_3mapES1_NS_12basic_stringIcNS_11char_traitsIcEENS_9allocatorIcEEEEbxydS9_NS3_14adl_serializerENS1_IhNS9_IhEEEEvEENS9_ISF_EEE16__destroy_vectorEEC1B8ue170006ESI_, symObjAddr: 0x220E0, symBinAddr: 0x100023658, symSize: 0x34 }
  - { offsetInCU: 0x48808, offset: 0x48808, size: 0x8, addend: 0x0, symName: __ZNSt3__128__exception_guard_exceptionsINS_6vectorIN8nlohmann16json_abi_v3_11_310basic_jsonINS_3mapES1_NS_12basic_stringIcNS_11char_traitsIcEENS_9allocatorIcEEEEbxydS9_NS3_14adl_serializerENS1_IhNS9_IhEEEEvEENS9_ISF_EEE16__destroy_vectorEEC2B8ue170006ESI_, symObjAddr: 0x22114, symBinAddr: 0x10002368C, symSize: 0x24 }
  - { offsetInCU: 0x48840, offset: 0x48840, size: 0x8, addend: 0x0, symName: __ZNSt3__119__unwrap_range_implIPN8nlohmann16json_abi_v3_11_310basic_jsonINS_3mapENS_6vectorENS_12basic_stringIcNS_11char_traitsIcEENS_9allocatorIcEEEEbxydS9_NS2_14adl_serializerENS5_IhNS9_IhEEEEvEESG_E8__unwrapB8ue170006ESG_SG_, symObjAddr: 0x22348, symBinAddr: 0x1000238C0, symSize: 0x58 }
  - { offsetInCU: 0x48871, offset: 0x48871, size: 0x8, addend: 0x0, symName: __ZNSt3__129_AllocatorDestroyRangeReverseINS_9allocatorIN8nlohmann16json_abi_v3_11_310basic_jsonINS_3mapENS_6vectorENS_12basic_stringIcNS_11char_traitsIcEENS1_IcEEEEbxydS1_NS3_14adl_serializerENS6_IhNS1_IhEEEEvEEEEPSF_EC1B8ue170006ERSG_RSH_SK_, symObjAddr: 0x223EC, symBinAddr: 0x100023964, symSize: 0x44 }
  - { offsetInCU: 0x488C8, offset: 0x488C8, size: 0x8, addend: 0x0, symName: __ZNSt3__116allocator_traitsINS_9allocatorIN8nlohmann16json_abi_v3_11_310basic_jsonINS_3mapENS_6vectorENS_12basic_stringIcNS_11char_traitsIcEENS1_IcEEEEbxydS1_NS3_14adl_serializerENS6_IhNS1_IhEEEEvEEEEE9constructB8ue170006ISF_JRSF_EvvEEvRSG_PT_DpOT0_, symObjAddr: 0x22430, symBinAddr: 0x1000239A8, symSize: 0x30 }
  - { offsetInCU: 0x4891C, offset: 0x4891C, size: 0x8, addend: 0x0, symName: __ZNSt3__128__exception_guard_exceptionsINS_29_AllocatorDestroyRangeReverseINS_9allocatorIN8nlohmann16json_abi_v3_11_310basic_jsonINS_3mapENS_6vectorENS_12basic_stringIcNS_11char_traitsIcEENS2_IcEEEEbxydS2_NS4_14adl_serializerENS7_IhNS2_IhEEEEvEEEEPSG_EEE10__completeB8ue170006Ev, symObjAddr: 0x22460, symBinAddr: 0x1000239D8, symSize: 0x1C }
  - { offsetInCU: 0x48942, offset: 0x48942, size: 0x8, addend: 0x0, symName: __ZNSt3__128__exception_guard_exceptionsINS_29_AllocatorDestroyRangeReverseINS_9allocatorIN8nlohmann16json_abi_v3_11_310basic_jsonINS_3mapENS_6vectorENS_12basic_stringIcNS_11char_traitsIcEENS2_IcEEEEbxydS2_NS4_14adl_serializerENS7_IhNS2_IhEEEEvEEEEPSG_EEED1B8ue170006Ev, symObjAddr: 0x2247C, symBinAddr: 0x1000239F4, symSize: 0x2C }
  - { offsetInCU: 0x4896C, offset: 0x4896C, size: 0x8, addend: 0x0, symName: __ZNSt3__128__exception_guard_exceptionsINS_29_AllocatorDestroyRangeReverseINS_9allocatorIN8nlohmann16json_abi_v3_11_310basic_jsonINS_3mapENS_6vectorENS_12basic_stringIcNS_11char_traitsIcEENS2_IcEEEEbxydS2_NS4_14adl_serializerENS7_IhNS2_IhEEEEvEEEEPSG_EEEC1B8ue170006ESJ_, symObjAddr: 0x224A8, symBinAddr: 0x100023A20, symSize: 0x34 }
  - { offsetInCU: 0x489A5, offset: 0x489A5, size: 0x8, addend: 0x0, symName: __ZNSt3__128__exception_guard_exceptionsINS_29_AllocatorDestroyRangeReverseINS_9allocatorIN8nlohmann16json_abi_v3_11_310basic_jsonINS_3mapENS_6vectorENS_12basic_stringIcNS_11char_traitsIcEENS2_IcEEEEbxydS2_NS4_14adl_serializerENS7_IhNS2_IhEEEEvEEEEPSG_EEEC2B8ue170006ESJ_, symObjAddr: 0x224DC, symBinAddr: 0x100023A54, symSize: 0x30 }
  - { offsetInCU: 0x489DE, offset: 0x489DE, size: 0x8, addend: 0x0, symName: __ZNSt3__129_AllocatorDestroyRangeReverseINS_9allocatorIN8nlohmann16json_abi_v3_11_310basic_jsonINS_3mapENS_6vectorENS_12basic_stringIcNS_11char_traitsIcEENS1_IcEEEEbxydS1_NS3_14adl_serializerENS6_IhNS1_IhEEEEvEEEEPSF_EC2B8ue170006ERSG_RSH_SK_, symObjAddr: 0x2250C, symBinAddr: 0x100023A84, symSize: 0x38 }
